 ProcList

 Timestamp is 60a544ff (Wed May 19 18:03:59 2021)

 Preferred load address is 10000000

 Start         Length     Name                   Class
 0001:00000000 00000004H .CRT$XCA                CODE
 0001:00000004 0000000cH .CRT$XCC                CODE
 0001:00000010 00000008H .CRT$XCL                CODE
 0001:00000018 0000000cH .CRT$XCU                CODE
 0001:00000024 00000004H .CRT$XCZ                CODE
 0001:00000028 00000004H .CRT$XIA                CODE
 0001:0000002c 00000018H .CRT$XIC                CODE
 0001:00000044 00000004H .CRT$XIZ                CODE
 0001:00000048 00000004H .CRT$XPA                CODE
 0001:0000004c 00000008H .CRT$XPX                CODE
 0001:00000054 00000004H .CRT$XPXA               CODE
 0001:00000058 00000004H .CRT$XPZ                CODE
 0001:0000005c 00000004H .CRT$XTA                CODE
 0001:00000060 00000010H .CRT$XTZ                CODE
 0001:00000064 00000000H .gfids$y                CODE
 0001:00000070 0000e064H .rdata                  CODE
 0001:0000e0d4 0000047cH .rdata$r                CODE
 0001:0000e550 0000012cH .rdata$sxdata           CODE
 0001:0000e67c 000002fcH .rdata$zzzdbg           CODE
 0001:0000e978 00000004H .rtc$IAA                CODE
 0001:0000e97c 00000004H .rtc$IZZ                CODE
 0001:0000e980 00000004H .rtc$TAA                CODE
 0001:0000e984 0000000cH .rtc$TZZ                CODE
 0001:0000e990 00000080H .text$di                CODE
 0001:0000ea10 0003ac50H .text$mn                CODE
 0001:00049660 00001070H .text$x                 CODE
 0001:0004a6d0 00000170H .text$yd                CODE
 0001:0004a840 00001b90H .xdata$x                CODE
 0001:0004c3d0 0000017fH .edata                  CODE
 0002:00000000 00000b50H .data                   DATA
 0002:00000b50 00000320H .data$r                 DATA
 0002:00000e70 00001c5cH .bss                    DATA
 0003:00000000 00000240H .idata$5                DATA
 0003:00000240 00000004H .00cfg                  DATA
 0003:00000244 000000a0H .idata$2                DATA
 0003:000002e4 00000014H .idata$3                DATA
 0003:000002f8 00000240H .idata$4                DATA
 0003:00000538 00000a10H .idata$6                DATA
 0004:00000000 00000060H .rsrc$01                DATA
 0004:00000060 00000378H .rsrc$02                DATA

  Address         Publics by Value              Rva+Base       Lib:Object

 0000:00000000       __except_list              00000000     <absolute>
 0000:00000000       ___dynamic_value_reloc_table 00000000     <absolute>
 0000:00000000       ___guard_iat_count         00000000     <absolute>
 0000:00000000       ___guard_fids_count        00000000     <absolute>
 0000:00000000       ___guard_longjmp_table     00000000     <absolute>
 0000:00000000       ___hybrid_code_map_count   00000000     <absolute>
 0000:00000000       ___hybrid_auxiliary_iat    00000000     <absolute>
 0000:00000000       ___guard_longjmp_count     00000000     <absolute>
 0000:00000000       ___guard_fids_table        00000000     <absolute>
 0000:00000000       ___volatile_metadata       00000000     <absolute>
 0000:00000000       ___guard_iat_table         00000000     <absolute>
 0000:00000000       ___AbsoluteZero            00000000     <absolute>
 0000:00000000       ___enclave_config          00000000     <absolute>
 0000:00000000       ___hybrid_code_map         00000000     <absolute>
 0000:0000004b       ___safe_se_handler_count   0000004b     <absolute>
 0000:00000100       ___guard_flags             00000100     <absolute>
 0000:00000000       ___ImageBase               10000000     <linker-defined>
 0001:00000000       ___xc_a                    10001000     LIBCMT:initializers.obj
 0001:00000024       ___xc_z                    10001024     LIBCMT:initializers.obj
 0001:00000028       ___xi_a                    10001028     LIBCMT:initializers.obj
 0001:00000034       ___acrt_stdio_initializer  10001034     libucrt:stdio_initializer.obj
 0001:00000038       ___acrt_tran_sse2_initializer 10001038     libucrt:sse2_initializer.obj
 0001:0000003c       ___acrt_timeset_initializer 1000103c     libucrt:timeset_initializer.obj
 0001:00000040       ___acrt_multibyte_initializer 10001040     libucrt:multibyte_initializer.obj
 0001:00000044       ___xi_z                    10001044     LIBCMT:initializers.obj
 0001:00000048       ___xp_a                    10001048     LIBCMT:initializers.obj
 0001:0000004c       ___acrt_locale_terminator  1000104c     libucrt:locale_initializer.obj
 0001:00000050       ___dcrt_console_output_terminator 10001050     libucrt:console_output_initializer.obj
 0001:00000054       ___acrt_stdio_terminator   10001054     libucrt:stdio_initializer.obj
 0001:00000058       ___xp_z                    10001058     LIBCMT:initializers.obj
 0001:0000005c       ___xt_a                    1000105c     LIBCMT:initializers.obj
 0001:00000060       ___xt_z                    10001060     LIBCMT:initializers.obj
 0001:00000070       ?powers_of_10_64@?$basic_data@X@detail@v7@fmt@@2QB_KB 10001070     format.obj
 0001:00000110       ?zero_or_powers_of_10_32@?$basic_data@X@detail@v7@fmt@@2QBIB 10001110     format.obj
 0001:00000140       ?zero_or_powers_of_10_64@?$basic_data@X@detail@v7@fmt@@2QB_KB 10001140     format.obj
 0001:000001e8       ?grisu_pow10_significands@?$basic_data@X@detail@v7@fmt@@2QB_KB 100011e8     format.obj
 0001:000004a0       ?grisu_pow10_exponents@?$basic_data@X@detail@v7@fmt@@2QBFB 100014a0     format.obj
 0001:00000550       ?divtest_table_for_pow5_32@?$basic_data@X@detail@v7@fmt@@2QBU?$divtest_table_entry@I@234@B 10001550     format.obj
 0001:000005a8       ?divtest_table_for_pow5_64@?$basic_data@X@detail@v7@fmt@@2QBU?$divtest_table_entry@_K@234@B 100015a8     format.obj
 0001:00000728       ?dragonbox_pow10_significands_64@?$basic_data@X@detail@v7@fmt@@2QB_KB 10001728     format.obj
 0001:00000998       ?powers_of_5_64@?$basic_data@X@detail@v7@fmt@@2QB_KB 10001998     format.obj
 0001:00000a70       ?dragonbox_pow10_recovery_errors@?$basic_data@X@detail@v7@fmt@@2QBIB 10001a70     format.obj
 0001:00000b10       ?digits@?$basic_data@X@detail@v7@fmt@@2QAY01$$CBDA 10001b10     format.obj
 0001:00000bd8       ?hex_digits@?$basic_data@X@detail@v7@fmt@@2QBDB 10001bd8     format.obj
 0001:00000bec       ?signs@?$basic_data@X@detail@v7@fmt@@2QBDB 10001bec     format.obj
 0001:00000bf0       ?left_padding_shifts@?$basic_data@X@detail@v7@fmt@@2QBDB 10001bf0     format.obj
 0001:00000bf8       ?right_padding_shifts@?$basic_data@X@detail@v7@fmt@@2QBDB 10001bf8     format.obj
 0001:00000c00       ??_C@_0BC@EOODALEL@Unknown?5exception@ 10001c00     format.obj
 0001:00000c14       ??_C@_0BF@KINCDENJ@bad?5array?5new?5length@ 10001c14     format.obj
 0001:00000c29       ??_C@_00CNPNBAHC@@         10001c29     format.obj
 0001:00000c2c       ??_C@_0BA@ELKIONDK@bad?5locale?5name@ 10001c2c     format.obj
 0001:00000c3c       ??_C@_05LAPONLG@false@     10001c3c     format.obj
 0001:00000c44       ??_C@_04LOAJBDKD@true@     10001c44     format.obj
 0001:00000c4c       ??_7format_error@v7@fmt@@6B@ 10001c4c     format.obj
 0001:00000c58       ?data@?1??bsr2log10@detail@v7@fmt@@YAGH@Z@4QBGB 10001c58     format.obj
 0001:00000cd8       ??_7?$basic_memory_buffer@_W$0BPE@V?$allocator@_W@std@@@v7@fmt@@6B@ 10001cd8     format.obj
 0001:00000cdc       ??_7?$basic_memory_buffer@D$0BPE@V?$allocator@D@std@@@v7@fmt@@6B@ 10001cdc     format.obj
 0001:00000ce0       ??_7?$basic_memory_buffer@I$0CA@V?$allocator@I@std@@@v7@fmt@@6B@ 10001ce0     format.obj
 0001:00000ce4       ??_C@_0BD@DBEDGLNA@argument?5not?5found@ 10001ce4     format.obj
 0001:00000cf8       ??_C@_0BA@JFNIOLAK@string?5too?5long@ 10001cf8     format.obj
 0001:00000d08       ??_C@_0BP@NMGMJOEM@unmatched?5?8?$HN?8?5in?5format?5string@ 10001d08     format.obj
 0001:00000d28       ??_C@_0BG@PEJKJNLA@invalid?5format?5string@ 10001d28     format.obj
 0001:00000d40       ??_C@_0BJ@JNDNOEDN@unknown?5format?5specifier@ 10001d40     format.obj
 0001:00000d5c       ??_C@_0BN@JNLAGDD@missing?5?8?$HN?8?5in?5format?5string@ 10001d5c     format.obj
 0001:00000d7c       ??_C@_0DJ@LMIJFHJI@cannot?5switch?5from?5automatic?5to@ 10001d7c     format.obj
 0001:00000db8       ??_C@_0BL@KNEDAEPA@invalid?5fill?5character?5?8?$HL?8@ 10001db8     format.obj
 0001:00000dd4       ??_C@_0CL@CFEEEDMP@format?5specifier?5requires?5numer@ 10001dd4     format.obj
 0001:00000e00       ??_C@_0BC@MDEIBHGE@number?5is?5too?5big@ 10001e00     format.obj
 0001:00000e14       ??_C@_0BH@CIKPCHEG@invalid?5type?5specifier@ 10001e14     format.obj
 0001:00000e2c       ??_C@_0CK@IBNNAPH@format?5specifier?5requires?5signe@ 10001e2c     format.obj
 0001:00000e58       ??_C@_0N@EFEDKJEI@invalid?5fill@ 10001e58     format.obj
 0001:00000e68       ??_C@_0DJ@GHJONFIH@cannot?5switch?5from?5manual?5to?5au@ 10001e68     format.obj
 0001:00000ea4       ??_C@_0BH@IEEDMHI@string?5pointer?5is?5null@ 10001ea4     format.obj
 0001:00000ebc       ??_C@_0CC@ELFJMMCC@invalid?5format?5specifier?5for?5ch@ 10001ebc     format.obj
 0001:00000ee0       ??_C@_0BM@IEKLBNBK@missing?5precision?5specifier@ 10001ee0     format.obj
 0001:00000efc       ??_C@_0CN@KMEDLGAJ@precision?5not?5allowed?5for?5this?5@ 10001efc     format.obj
 0001:00000f2c       ??_C@_03OEIAHPBN@INF@      10001f2c     format.obj
 0001:00000f30       ??_C@_03OJHLLCGB@inf@      10001f30     format.obj
 0001:00000f34       ??_C@_03LKNCIKJB@NAN@      10001f34     format.obj
 0001:00000f38       ??_C@_03LHCJEHON@nan@      10001f38     format.obj
 0001:00000f3c       ??_C@_0BB@JGGOGLEG@0123456789ABCDEF@ 10001f3c     format.obj
 0001:00000f50       ??_C@_0BD@PKKFPMLC@negative?5precision@ 10001f50     format.obj
 0001:00000f64       ??_C@_0P@DAPDPGEO@negative?5width@ 10001f64     format.obj
 0001:00000f74       ??_C@_0BJ@KKLAKOOL@precision?5is?5not?5integer@ 10001f74     format.obj
 0001:00000f90       ??_C@_0BF@KEAPHPPE@width?5is?5not?5integer@ 10001f90     format.obj
 0001:00000fbc       ??_C@_11LOCGONAA@@         10001fbc     handles.obj
 0001:00000fc0       ??_C@_1BA@NMDNJJOO@?$AAP?$AAr?$AAo?$AAc?$AAe?$AAs?$AAs@ 10001fc0     handles.obj
 0001:00000fd0       ??_C@_1O@CDOGJPJJ@?$AAT?$AAh?$AAr?$AAe?$AAa?$AAd@ 10001fd0     handles.obj
 0001:00000fe0       ??_C@_17KACEIPNC@?$AAK?$AAe?$AAy@ 10001fe0     handles.obj
 0001:00000fe8       ??_C@_19DDLLJDOO@?$AAF?$AAi?$AAl?$AAe@ 10001fe8     handles.obj
 0001:00000ff4       ??_C@_1O@ECECHNAE@?$AA?$DM?$AAp?$AAi?$AAp?$AAe?$AA?$DO@ 10001ff4     handles.obj
 0001:00001004       ??_C@_1BE@FGECLHKD@?$AA?$HL?$AA0?$AA?$HN?$AA?5?$AA?$CI?$AA?$HL?$AA1?$AA?$HN?$AA?$CJ@ 10002004     handles.obj
 0001:00001018       ??_C@_1BC@HBCEGEJN@?$AAT?$AAI?$AAD?$AA?3?$AA?5?$AA?$HL?$AA0?$AA?$HN@ 10002018     handles.obj
 0001:0000102c       ??_C@_1BE@ELICABCK@?$AA?$DM?$AAu?$AAn?$AAk?$AAn?$AAo?$AAw?$AAn?$AA?$DO@ 1000202c     handles.obj
 0001:00001040       ??_C@_1BG@OKCBELMP@?$AA?2?$AAR?$AAE?$AAG?$AAI?$AAS?$AAT?$AAR?$AAY?$AA?2@ 10002040     handles.obj
 0001:00001058       ??_C@_19KGHAHCFG@?$AAU?$AAS?$AAE?$AAR@ 10002058     handles.obj
 0001:00001064       ??_C@_1DC@OIDKFHBF@?$AAM?$AAA?$AAC?$AAH?$AAI?$AAN?$AAE?$AA?2?$AAS?$AAO?$AAF?$AAT?$AAW?$AAA?$AAR@ 10002064     handles.obj
 0001:00001098       ??_C@_1BA@INBMCOAP@?$AAM?$AAA?$AAC?$AAH?$AAI?$AAN?$AAE@ 10002098     handles.obj
 0001:000010a8       ??_C@_1BC@DCCOJFBE@?$AA_?$AAC?$AAL?$AAA?$AAS?$AAS?$AAE?$AAS@ 100020a8     handles.obj
 0001:000010bc       ??_C@_13FPGAJAPJ@?$AA?2@   100020bc     handles.obj
 0001:000010c0       ??_C@_19DIHHCHDI@?$AAH?$AAK?$AAU?$AA?2@ 100020c0     handles.obj
 0001:000010cc       ??_C@_19JAPAIJDE@?$AAH?$AAK?$AAC?$AAU@ 100020cc     handles.obj
 0001:000010d8       ??_C@_1BK@OEABCBLA@?$AAH?$AAK?$AAC?$AAU?$AA?2?$AAC?$AAl?$AAa?$AAs?$AAs?$AAe?$AAs@ 100020d8     handles.obj
 0001:000010f4       ??_C@_17PJOJPMPB@?$AAH?$AAK?$AAU@ 100020f4     handles.obj
 0001:000010fc       ??_C@_19NCHLBIN@?$AAH?$AAK?$AAC?$AAR@ 100020fc     handles.obj
 0001:00001108       ??_C@_19PEALEEJB@?$AAH?$AAK?$AAL?$AAM@ 10002108     handles.obj
 0001:00001114       ??_C@_1DM@NGIMPLFP@?$AA?6?$AA?$HL?$AA0?$AA?$HN?$AA?3?$AA?6?$AA?$HL?$AA1?$AA?3?$AA6?$AA?$HN?$AA?5?$AA?$HL?$AA2?$AA?3@ 10002114     handles.obj
 0001:00001150       ??_C@_1DG@HOLPNCNP@?$AA?$HL?$AA0?$AA?3?$AA6?$AAX?$AA?$HN?$AA?5?$AA?$HL?$AA1?$AA?3?$AA0?$AA8?$AAX?$AA?$HN?$AA?5@ 10002150     handles.obj
 0001:00001188       ??_C@_0BN@OFDOGPDL@invalid?5string_view?5position@ 10002188     handles.obj
 0001:000011a8       ?zero@?1???$write_float@V?$buffer_appender@_W@detail@v7@fmt@@U?$decimal_fp@M@dragonbox@234@_W@detail@v7@fmt@@YA?AV?$buffer_appender@_W@123@V4123@ABU?$decimal_fp@M@dragonbox@123@ABU?$basic_format_specs@_W@23@Ufloat_specs@123@_W@Z@4_WB 100021a8     handles.obj
 0001:000011ac       ?zero@?1???$write_float@V?$buffer_appender@_W@detail@v7@fmt@@U?$decimal_fp@N@dragonbox@234@_W@detail@v7@fmt@@YA?AV?$buffer_appender@_W@123@V4123@ABU?$decimal_fp@N@dragonbox@123@ABU?$basic_format_specs@_W@23@Ufloat_specs@123@_W@Z@4_WB 100021ac     handles.obj
 0001:000011b0       ?zero@?1???$write_float@V?$buffer_appender@_W@detail@v7@fmt@@Ubig_decimal_fp@234@_W@detail@v7@fmt@@YA?AV?$buffer_appender@_W@123@V4123@ABUbig_decimal_fp@123@ABU?$basic_format_specs@_W@23@Ufloat_specs@123@_W@Z@4_WB 100021b0     handles.obj
 0001:000011b4       ??_7PluginCheckBoxBinding@@6B@ 100021b4     Pcfg.obj
 0001:000011bc       ??_C@_1O@BJPKKLLM@?$AAC?$AAo?$AAn?$AAf?$AAi?$AAg@ 100021bc     Pcfg.obj
 0001:000011cc       ??_C@_1BO@NGDOFANC@?$AAA?$AAd?$AAd?$AAT?$AAo?$AAD?$AAi?$AAs?$AAk?$AAs?$AAM?$AAe?$AAn?$AAu@ 100021cc     Pcfg.obj
 0001:000011ec       ??_C@_1CC@PNNAOHJC@?$AAA?$AAd?$AAd?$AAT?$AAo?$AAP?$AAl?$AAu?$AAg?$AAi?$AAn?$AAs?$AAM?$AAe?$AAn@ 100021ec     Pcfg.obj
 0001:00001210       ??_C@_1CE@JIPJNDMD@?$AAE?$AAx?$AAp?$AAo?$AAr?$AAt?$AAE?$AAn?$AAv?$AAi?$AAr?$AAo?$AAn?$AAm?$AAe@ 10002210     Pcfg.obj
 0001:00001234       ??_C@_1CC@OABICAMP@?$AAE?$AAx?$AAp?$AAo?$AAr?$AAt?$AAM?$AAo?$AAd?$AAu?$AAl?$AAe?$AAI?$AAn?$AAf@ 10002234     Pcfg.obj
 0001:00001258       ??_C@_1CI@OFLGHPDG@?$AAE?$AAx?$AAp?$AAo?$AAr?$AAt?$AAM?$AAo?$AAd?$AAu?$AAl?$AAe?$AAV?$AAe?$AAr@ 10002258     Pcfg.obj
 0001:00001280       ??_C@_1CE@GNMOKOAL@?$AAE?$AAx?$AAp?$AAo?$AAr?$AAt?$AAP?$AAe?$AAr?$AAf?$AAo?$AAr?$AAm?$AAa?$AAn@ 10002280     Pcfg.obj
 0001:000012a4       ??_C@_1BM@KMCHODLM@?$AAE?$AAx?$AAp?$AAo?$AAr?$AAt?$AAH?$AAa?$AAn?$AAd?$AAl?$AAe?$AAs@ 100022a4     Pcfg.obj
 0001:000012c0       ??_C@_1CK@CLFOOHFA@?$AAE?$AAx?$AAp?$AAo?$AAr?$AAt?$AAH?$AAa?$AAn?$AAd?$AAl?$AAe?$AAs?$AAU?$AAn@ 100022c0     Pcfg.obj
 0001:000012ec       ??_C@_1BE@PKILIDFH@?$AAE?$AAn?$AAa?$AAb?$AAl?$AAe?$AAW?$AAM?$AAI@ 100022ec     Pcfg.obj
 0001:00001300       ??_7PluginEditFieldBinding@@6B@ 10002300     Pclass.obj
 0001:00001308       ??_C@_1BK@GMMKGKID@?$AA?$HL?$AA0?$AA?$HN?$AA?4?$AA?$HL?$AA1?$AA?3?$AA0?$AA?$HL?$AA2?$AA?$HN?$AA?$HN@ 10002308     Pclass.obj
 0001:00001324       ??_C@_1BA@BHJJFMCM@?$AAB?$AAK?$AAM?$AAG?$AAT?$AAP?$AAE@ 10002324     Pclass.obj
 0001:00001334       ??_C@_1BC@HGOMHBK@?$AA?$HL?$AA0?$AA?3?$AA?$DM?$AA2?$AA1?$AA?$HN?$AA?5@ 10002334     Pclass.obj
 0001:00001348       ??_C@_19LPDLLMEB@?$AA?$HL?$AA0?$AA?$HN?$AA?3@ 10002348     Pclass.obj
 0001:00001354       ??_C@_1BC@IALIJCAM@?$AAS?$AAo?$AAr?$AAt?$AAM?$AAo?$AAd?$AAe@ 10002354     Pclass.obj
 0001:00001368       ??_C@_1BO@OMKAPLPJ@?$AAS?$AAt?$AAa?$AAr?$AAt?$AAP?$AAa?$AAn?$AAe?$AAl?$AAM?$AAo?$AAd?$AAe@ 10002368     Pclass.obj
 0001:000013a8       ??_C@_1BA@JOLGFBLP@?$AAM?$AAo?$AAd?$AAe?$AA?$HL?$AA0?$AA?$HN@ 100023a8     Pclass.obj
 0001:000013b8       ??_C@_1CM@KGJLHHPG@?$AAN?$AA?0?$AAX?$AA1?$AA5?$AAF?$AA?0?$AAX?$AA1?$AA6?$AAF?$AA?0?$AAX?$AA1?$AA7@ 100023b8     Pclass.obj
 0001:000013e4       ??_C@_1BG@MNPGDOEP@?$AA1?$AA2?$AA?0?$AA0?$AA?0?$AA0?$AA?0?$AA0?$AA?0?$AA4@ 100023e4     Pclass.obj
 0001:000013fc       ??_C@_1CG@OHFJBKLN@?$AAN?$AA?0?$AAX?$AAI?$AA?0?$AAX?$AAB?$AA?0?$AAX?$AAP?$AA?0?$AAX?$AA0?$AAS?$AA?0@ 100023fc     Pclass.obj
 0001:00001424       ??_C@_1BI@EFANNANC@?$AA0?$AA?0?$AA6?$AA?0?$AA2?$AA?0?$AA2?$AA?0?$AA3?$AA?0?$AA9@ 10002424     Pclass.obj
 0001:0000143c       ??_C@_17KNGPBKAK@?$AAN?$AA?0?$AAN@ 1000243c     Pclass.obj
 0001:00001444       ??_C@_17JPFFEOAH@?$AA0?$AA?0?$AA0@ 10002444     Pclass.obj
 0001:0000144c       ??_C@_1BO@JAFIOFIL@?$AAN?$AA?0?$AAX?$AAI?$AA?0?$AAX?$AAB?$AA?0?$AAX?$AAC?$AA?0?$AAD?$AA?0?$AAT@ 1000244c     Pclass.obj
 0001:0000146c       ??_C@_1BI@LFIMKDME@?$AA0?$AA?0?$AA6?$AA?0?$AA2?$AA?0?$AA6?$AA?0?$AA0?$AA?0?$AA0@ 1000246c     Pclass.obj
 0001:00001484       ??_C@_1BK@IEHCCPMO@?$AAN?$AA?0?$AAX?$AAI?$AA?0?$AAX?$AA4?$AAF?$AA?0?$AAX?$AA6?$AAF@ 10002484     Pclass.obj
 0001:000014a0       ??_C@_1BA@MMHHFCDG@?$AA0?$AA?0?$AA6?$AA?0?$AA9?$AA?0?$AA9@ 100024a0     Pclass.obj
 0001:000014b0       ??_C@_1EA@CMHCGANC@?$AAN?$AA?0?$AAX?$AAI?$AA?0?$AAX?$AA4?$AAF?$AA?0?$AAX?$AA6?$AAF?$AA?0?$AAX?$AA1@ 100024b0     Pclass.obj
 0001:000014f0       ??_C@_1CE@LPFIEDMN@?$AA0?$AA?0?$AA6?$AA?0?$AA9?$AA?0?$AA9?$AA?0?$AA9?$AA?0?$AA9?$AA?0?$AA8?$AA?0?$AA8@ 100024f0     Pclass.obj
 0001:00001514       ??_C@_19ILLMDDHI@?$AAN?$AA?0?$AAZ?$AAD@ 10002514     Pclass.obj
 0001:00001520       ??_C@_19NMOJBHGD@?$AA1?$AA2?$AA?0?$AA0@ 10002520     Pclass.obj
 0001:00001530       ??_C@_1EC@OFLHMCFD@?$AAN?$AA?0?$AAX?$AAP?$AA?0?$AAX?$AA0?$AAS?$AA?0?$AAX?$AA1?$AAS?$AA?0?$AAX?$AA2@ 10002530     Pclass.obj
 0001:00001574       ??_C@_1CA@MGMNHCLL@?$AA0?$AA?0?$AA2?$AA?0?$AA3?$AA?0?$AA2?$AA?0?$AA2?$AA?0?$AA3?$AA?0?$AA4?$AA?0?$AA3@ 10002574     Pclass.obj
 0001:00001594       ??_C@_1O@JGFFCAGM@?$AAN?$AA?0?$AAX?$AAI?$AA?0?$AAO@ 10002594     Pclass.obj
 0001:000015a4       ??_C@_1O@FLEOANAI@?$AA0?$AA?0?$AA6?$AA?0?$AA1?$AA5@ 100025a4     Pclass.obj
 0001:000015b4       ??_C@_1CC@FANCGEGE@?$AAN?$AA?0?$AAX?$AAI?$AA?0?$AAX?$AAT?$AA?0?$AAX?$AA3?$AA?0?$AAX?$AAG?$AA?0?$AAX@ 100025b4     Pclass.obj
 0001:000015d8       ??_C@_1BI@PMPHDFGH@?$AA0?$AA?0?$AA6?$AA?0?$AA3?$AA?0?$AA4?$AA?0?$AA4?$AA?0?$AA4@ 100025d8     Pclass.obj
 0001:000015f0       ??_C@_1BG@COBJEPBB@?$AAN?$AA?0?$AAX?$AAI?$AA?0?$AAX?$AAT?$AA?0?$AAX?$AA3@ 100025f0     Pclass.obj
 0001:00001608       ??_C@_1BA@KPNNJGCD@?$AA0?$AA?0?$AA6?$AA?0?$AA3?$AA?0?$AA4@ 10002608     Pclass.obj
 0001:00001618       ??_C@_1CA@HLBJOHGN@?$AAF?$AAu?$AAl?$AAl?$AAS?$AAc?$AAr?$AAe?$AAe?$AAn?$AAL?$AAo?$AAc?$AAa?$AAl@ 10002618     Pclass.obj
 0001:00001638       ??_C@_1CC@EBBNDNOD@?$AAF?$AAu?$AAl?$AAl?$AAS?$AAc?$AAr?$AAe?$AAe?$AAn?$AAR?$AAe?$AAm?$AAo?$AAt@ 10002638     Pclass.obj
 0001:0000165c       ??_C@_1BK@HMOODHKK@?$AAC?$AAo?$AAl?$AAu?$AAm?$AAn?$AAs?$AAL?$AAo?$AAc?$AAa?$AAl@ 1000265c     Pclass.obj
 0001:00001678       ??_C@_1BM@EDHFKJEJ@?$AAC?$AAo?$AAl?$AAu?$AAm?$AAn?$AAs?$AAR?$AAe?$AAm?$AAo?$AAt?$AAe@ 10002678     Pclass.obj
 0001:00001694       ??_C@_1BI@FOOHDOCI@?$AAW?$AAi?$AAd?$AAt?$AAh?$AAs?$AAL?$AAo?$AAc?$AAa?$AAl@ 10002694     Pclass.obj
 0001:000016ac       ??_C@_1BK@DDBMMJCN@?$AAW?$AAi?$AAd?$AAt?$AAh?$AAs?$AAR?$AAe?$AAm?$AAo?$AAt?$AAe@ 100026ac     Pclass.obj
 0001:000016c8       ??_C@_13DEFPDAGF@?$AA?0@   100026c8     Pclass.obj
 0001:000016cc       ??_C@_15LNKNCLHH@?$AAS?$AAs@ 100026cc     Pclass.obj
 0001:000016d4       ??_C@_1M@PBHOFL@?$AA?5?$AA?$HL?$AA0?$AA?$HN?$AA?5@ 100026d4     Pclass.obj
 0001:000016e0       ??_C@_1BE@JJMDGICA@?$AA?$HL?$AA0?$AA?$HN?$AA?3?$AA?5?$AA?$HL?$AA1?$AA?$HN?$AA?5@ 100026e0     Pclass.obj
 0001:000016f4       ??_C@_15JOGBDECP@?$AA?0?$AA?5@ 100026f4     Pclass.obj
 0001:000016fc       ??_C@_15DNHPCDHG@?$AAT?$AAt@ 100026fc     Pclass.obj
 0001:00001704       ??_C@_15IJHBBPPC@?$AAF?$AAf@ 10002704     Pclass.obj
 0001:0000170c       ??_C@_1BC@OMEIHGFC@?$AAW?$AAS?$AA_?$AAP?$AAO?$AAP?$AAU?$AAP@ 1000270c     Pclass.obj
 0001:00001720       ??_C@_1BC@ONEEOLLM@?$AAW?$AAS?$AA_?$AAC?$AAH?$AAI?$AAL?$AAD@ 10002720     Pclass.obj
 0001:00001734       ??_C@_1BI@GHDIGAD@?$AAW?$AAS?$AA_?$AAM?$AAI?$AAN?$AAI?$AAM?$AAI?$AAZ?$AAE@ 10002734     Pclass.obj
 0001:0000174c       ??_C@_1BG@KLPFHNBP@?$AAW?$AAS?$AA_?$AAV?$AAI?$AAS?$AAI?$AAB?$AAL?$AAE@ 1000274c     Pclass.obj
 0001:00001764       ??_C@_1BI@NKODCGOF@?$AAW?$AAS?$AA_?$AAD?$AAI?$AAS?$AAA?$AAB?$AAL?$AAE?$AAD@ 10002764     Pclass.obj
 0001:0000177c       ??_C@_1CA@PCFJBBHH@?$AAW?$AAS?$AA_?$AAC?$AAL?$AAI?$AAP?$AAS?$AAI?$AAB?$AAL?$AAI?$AAN?$AAG?$AAS@ 1000277c     Pclass.obj
 0001:0000179c       ??_C@_1CA@MPLGGIO@?$AAW?$AAS?$AA_?$AAC?$AAL?$AAI?$AAP?$AAC?$AAH?$AAI?$AAL?$AAD?$AAR?$AAE?$AAN@ 1000279c     Pclass.obj
 0001:000017bc       ??_C@_1BI@OLBAGOJG@?$AAW?$AAS?$AA_?$AAM?$AAA?$AAX?$AAI?$AAM?$AAI?$AAZ?$AAE@ 100027bc     Pclass.obj
 0001:000017d4       ??_C@_1BE@DAMMEKNP@?$AAW?$AAS?$AA_?$AAB?$AAO?$AAR?$AAD?$AAE?$AAR@ 100027d4     Pclass.obj
 0001:000017e8       ??_C@_1BI@EDHINADK@?$AAW?$AAS?$AA_?$AAD?$AAL?$AAG?$AAF?$AAR?$AAA?$AAM?$AAE@ 100027e8     Pclass.obj
 0001:00001800       ??_C@_1BG@CKCLFGFA@?$AAW?$AAS?$AA_?$AAV?$AAS?$AAC?$AAR?$AAO?$AAL?$AAL@ 10002800     Pclass.obj
 0001:00001818       ??_C@_1BG@OMIOJOGF@?$AAW?$AAS?$AA_?$AAH?$AAS?$AAC?$AAR?$AAO?$AAL?$AAL@ 10002818     Pclass.obj
 0001:00001830       ??_C@_1BG@KJOBMDJC@?$AAW?$AAS?$AA_?$AAS?$AAY?$AAS?$AAM?$AAE?$AAN?$AAU@ 10002830     Pclass.obj
 0001:00001848       ??_C@_1BM@GPNNOPCH@?$AAW?$AAS?$AA_?$AAT?$AAH?$AAI?$AAC?$AAK?$AAF?$AAR?$AAA?$AAM?$AAE@ 10002848     Pclass.obj
 0001:00001864       ??_C@_1BO@FODKBODI@?$AAW?$AAS?$AA_?$AAM?$AAI?$AAN?$AAI?$AAM?$AAI?$AAZ?$AAE?$AAB?$AAO?$AAX@ 10002864     Pclass.obj
 0001:00001884       ??_C@_1BO@IDJMAOMI@?$AAW?$AAS?$AA_?$AAM?$AAA?$AAX?$AAI?$AAM?$AAI?$AAZ?$AAE?$AAB?$AAO?$AAX@ 10002884     Pclass.obj
 0001:000018a4       ??_C@_1CI@PKBCIOPN@?$AAW?$AAS?$AA_?$AAE?$AAX?$AA_?$AAD?$AAL?$AAG?$AAM?$AAO?$AAD?$AAA?$AAL?$AAF@ 100028a4     Pclass.obj
 0001:000018cc       ??_C@_1CK@KJECLHMG@?$AAW?$AAS?$AA_?$AAE?$AAX?$AA_?$AAN?$AAO?$AAP?$AAA?$AAR?$AAE?$AAN?$AAT?$AAN@ 100028cc     Pclass.obj
 0001:000018f8       ??_C@_1BM@OCBKBALE@?$AAW?$AAS?$AA_?$AAE?$AAX?$AA_?$AAT?$AAO?$AAP?$AAM?$AAO?$AAS?$AAT@ 100028f8     Pclass.obj
 0001:00001914       ??_C@_1CE@JIDMMICL@?$AAW?$AAS?$AA_?$AAE?$AAX?$AA_?$AAA?$AAC?$AAC?$AAE?$AAP?$AAT?$AAF?$AAI?$AAL@ 10002914     Pclass.obj
 0001:00001938       ??_C@_1CE@PFFPBMCF@?$AAW?$AAS?$AA_?$AAE?$AAX?$AA_?$AAT?$AAR?$AAA?$AAN?$AAS?$AAP?$AAA?$AAR?$AAE@ 10002938     Pclass.obj
 0001:0000195c       ??_C@_1BO@MEOEJPLO@?$AAW?$AAS?$AA_?$AAE?$AAX?$AA_?$AAM?$AAD?$AAI?$AAC?$AAH?$AAI?$AAL?$AAD@ 1000295c     Pclass.obj
 0001:0000197c       ??_C@_1CC@IEIGGJGG@?$AAW?$AAS?$AA_?$AAE?$AAX?$AA_?$AAT?$AAO?$AAO?$AAL?$AAW?$AAI?$AAN?$AAD?$AAO@ 1000297c     Pclass.obj
 0001:000019a0       ??_C@_1CC@PLPNIKGL@?$AAW?$AAS?$AA_?$AAE?$AAX?$AA_?$AAW?$AAI?$AAN?$AAD?$AAO?$AAW?$AAE?$AAD?$AAG@ 100029a0     Pclass.obj
 0001:000019c4       ??_C@_1CC@IAPGCLEG@?$AAW?$AAS?$AA_?$AAE?$AAX?$AA_?$AAC?$AAL?$AAI?$AAE?$AAN?$AAT?$AAE?$AAD?$AAG@ 100029c4     Pclass.obj
 0001:000019e8       ??_C@_1CE@EANKNCIF@?$AAW?$AAS?$AA_?$AAE?$AAX?$AA_?$AAC?$AAO?$AAN?$AAT?$AAE?$AAX?$AAT?$AAH?$AAE@ 100029e8     Pclass.obj
 0001:00001a0c       ??_C@_1BI@GFIADCMK@?$AAW?$AAS?$AA_?$AAE?$AAX?$AA_?$AAR?$AAI?$AAG?$AAH?$AAT@ 10002a0c     Pclass.obj
 0001:00001a24       ??_C@_1CC@JOFCJJPB@?$AAW?$AAS?$AA_?$AAE?$AAX?$AA_?$AAR?$AAT?$AAL?$AAR?$AAE?$AAA?$AAD?$AAI?$AAN@ 10002a24     Pclass.obj
 0001:00001a48       ??_C@_1CI@EFLDECAB@?$AAW?$AAS?$AA_?$AAE?$AAX?$AA_?$AAL?$AAE?$AAF?$AAT?$AAS?$AAC?$AAR?$AAO?$AAL@ 10002a48     Pclass.obj
 0001:00001a70       ??_C@_1CI@CIFGFFJB@?$AAW?$AAS?$AA_?$AAE?$AAX?$AA_?$AAC?$AAO?$AAN?$AAT?$AAR?$AAO?$AAL?$AAP?$AAA@ 10002a70     Pclass.obj
 0001:00001a98       ??_C@_1CC@BGEPLDCA@?$AAW?$AAS?$AA_?$AAE?$AAX?$AA_?$AAS?$AAT?$AAA?$AAT?$AAI?$AAC?$AAE?$AAD?$AAG@ 10002a98     Pclass.obj
 0001:00001abc       ??_C@_1CA@DOAIHHLO@?$AAW?$AAS?$AA_?$AAE?$AAX?$AA_?$AAA?$AAP?$AAP?$AAW?$AAI?$AAN?$AAD?$AAO?$AAW@ 10002abc     Pclass.obj
 0001:00001adc       ??_C@_1BM@FAODAMGD@?$AAW?$AAS?$AA_?$AAE?$AAX?$AA_?$AAL?$AAA?$AAY?$AAE?$AAR?$AAE?$AAD@ 10002adc     Pclass.obj
 0001:00001af8       ??_C@_1CM@DJKNBOGD@?$AAW?$AAS?$AA_?$AAE?$AAX?$AA_?$AAN?$AAO?$AAI?$AAN?$AAH?$AAE?$AAR?$AAI?$AAT@ 10002af8     Pclass.obj
 0001:00001b24       ??_C@_1CA@KMHLBMFI@?$AAW?$AAS?$AA_?$AAE?$AAX?$AA_?$AAL?$AAA?$AAY?$AAO?$AAU?$AAT?$AAR?$AAT?$AAL@ 10002b24     Pclass.obj
 0001:00001b44       ??_C@_1CC@LOFMDOPL@?$AAW?$AAS?$AA_?$AAE?$AAX?$AA_?$AAN?$AAO?$AAA?$AAC?$AAT?$AAI?$AAV?$AAA?$AAT@ 10002b44     Pclass.obj
 0001:00001b68       ??_C@_1BA@PCPLEJNM@?$AA?$HL?$AA0?$AA?3?$AA2?$AA0?$AA?$HN?$AA?6@ 10002b68     Pclass.obj
 0001:00001b78       ??_C@_1CA@PGPHFLML@?$AA?$HL?$AA0?$AA?3?$AA?$DO?$AA2?$AA0?$AA?$HN?$AA?5?$AA?$HL?$AA1?$AA?3?$AA7?$AA?$HN?$AA?$CF?$AA?6@ 10002b78     Pclass.obj
 0001:00001b98       ??_C@_1CE@BCAPNIMO@?$AA?$HL?$AA0?$AA?3?$AA2?$AA0?$AA?$HN?$AA?5?$AA?5?$AA?$HL?$AA1?$AA?3?$AA7?$AA?$HN?$AA?$HL?$AA2@ 10002b98     Pclass.obj
 0001:00001bd4       ??_C@_1CA@CGMHBFCH@?$AA?$HL?$AA0?$AA?$HN?$AA?$HL?$AA1?$AA?$HN?$AA?0?$AA?5?$AA?$HL?$AA2?$AA?$HN?$AA?$HL?$AA3?$AA?$HN?$AA?6@ 10002bd4     Pclass.obj
 0001:00001bf4       ??_C@_1BA@BIAFDLFH@?$AA?$HL?$AA0?$AA?$HN?$AA?$HL?$AA1?$AA?$HN?$AA?6@ 10002bf4     Pclass.obj
 0001:00001c04       ??_C@_1BI@DHFBAHCI@?$AA?$HL?$AA0?$AA?$HN?$AA?5?$AA?5?$AA?$CI?$AA?$HL?$AA1?$AA?$HN?$AA?$CJ?$AA?6@ 10002c04     Pclass.obj
 0001:00001c1c       ??_C@_19EPBAEEOA@?$AA?$HL?$AA0?$AA?$HN?$AA?6@ 10002c1c     Pclass.obj
 0001:00001c28       ??_C@_1BK@FKNCLDML@?$AA?6?$AA?$HL?$AA0?$AA?$HN?$AA?$HL?$AA1?$AA?$HN?$AA?5?$AA?$HL?$AA2?$AA?$HN?$AA?6@ 10002c28     Pclass.obj
 0001:00001c44       ??_C@_1BC@IBCAHKMA@?$AA?6?$AA?$HL?$AA0?$AA?$HN?$AA?$HL?$AA1?$AA?$HN?$AA?6@ 10002c44     Pclass.obj
 0001:00001c58       ??_C@_1BG@JEKFNBAO@?$AA?6?$AA?$HL?$AA0?$AA?$HN?$AA?3?$AA?6?$AA?$HL?$AA1?$AA?$HN?$AA?6@ 10002c58     Pclass.obj
 0001:00001c70       ??_C@_1CA@MEPGLLIO@?$AA?$HL?$AA0?$AA?$HN?$AA?$HL?$AA1?$AA?3?$AA0?$AA8?$AAX?$AA?$HN?$AA?5?$AA?$HL?$AA2?$AA?$HN?$AA?6@ 10002c70     Pclass.obj
 0001:00001c90       ??_C@_1DG@MNBLGAON@?$AA?6?$AA?$HL?$AA0?$AA?$HN?$AA?3?$AA?6?$AA?$HL?$AA1?$AA?3?$AA?$DM?$AA?$HL?$AA2?$AA?$HN?$AA?$HN?$AA?5@ 10002c90     Pclass.obj
 0001:00001cc8       ??_C@_19GGNHIDOH@?$AA?4?$AAt?$AAx?$AAt@ 10002cc8     Pclass.obj
 0001:00001cd4       ??_C@_19OPNPIOHE@?$AAH?$AAW?$AAN?$AAD@ 10002cd4     Pclass.obj
 0001:00001ce0       ??_C@_15GKIJICBO@?$AAZ?$AAC@ 10002ce0     Pclass.obj
 0001:00001ce8       ??_C@_17JJIMNMHK@?$AA?5?$AA?$CG?$AA?$FO@ 10002ce8     Pclass.obj
 0001:00001cf0       ??_C@_13HOIJIPNN@?$AA?5@   10002cf0     Pclass.obj
 0001:00001cf4       ??_C@_15LEKKCGMK@?$AA?2?$AA?2@ 10002cf4     Pclass.obj
 0001:00001d10       ??_C@_1M@CHPAGEIC@?$AA?$CF?$AA?5?$AA?$HL?$AA0?$AA?$HN@ 10002d10     Pclass.obj
 0001:00001d1c       ??_C@_1O@DLMEBHDD@?$AA?$HL?$AA0?$AA?$HN?$AA?$HL?$AA1?$AA?$HN@ 10002d1c     Pclass.obj
 0001:00001d2c       ??_C@_15DDHGOCBH@?$AA?4?$AA?4@ 10002d2c     Pclass.obj
 0001:00001d34       ??_C@_17FJPEEFCB@?$AAp?$AAr?$AAc@ 10002d34     Pclass.obj
 0001:00001d3c       ??_C@_1BC@ENICKDH@?$AAC?$AAo?$AAn?$AAt?$AAe?$AAn?$AAt?$AAs@ 10002d3c     Pclass.obj
 0001:00001d50       ??_C@_1CK@DGKCELDD@?$AAP?$AAr?$AAo?$AAc?$AAe?$AAs?$AAs?$AAL?$AAi?$AAs?$AAt?$AA?4?$AAC?$AAo?$AAm@ 10002d50     Pclass.obj
 0001:00001d7c       ??_C@_1CK@ECJCGOEK@?$AAP?$AAr?$AAo?$AAc?$AAe?$AAs?$AAs?$AAL?$AAi?$AAs?$AAt?$AA?4?$AAU?$AAs?$AAe@ 10002d7c     Pclass.obj
 0001:00001da8       ??_C@_1EA@IELLPLEF@?$AA?$HL?$AA0?$AA?$HN?$AA?5?$AA?$HL?$AA1?$AA?3?$AA0?$AA2?$AA?$HN?$AA?3?$AA?$HL?$AA2?$AA?3?$AA0@ 10002da8     Pclass.obj
 0001:00001de8       ??_C@_1DI@BCOMPFMM@?$AA?$HL?$AA0?$AA?3?$AA0?$AA2?$AA?$HN?$AA?3?$AA?$HL?$AA1?$AA?3?$AA0?$AA2?$AA?$HN?$AA?3?$AA?$HL@ 10002de8     Pclass.obj
 0001:00001e20       ??_C@_1EA@HECKBAAG@?$AA?2?$AAS?$AAt?$AAr?$AAi?$AAn?$AAg?$AAF?$AAi?$AAl?$AAe?$AAI?$AAn?$AAf?$AAo@ 10002e20     Pclass.obj
 0001:00001e60       ??_C@_19JHEHLFPM@?$AA?2?$AA?$DP?$AA?$DP?$AA?2@ 10002e60     Pclass.obj
 0001:00001e6c       ??_C@_1DC@HCLBMGIA@?$AA?2?$AAV?$AAa?$AAr?$AAF?$AAi?$AAl?$AAe?$AAI?$AAn?$AAf?$AAo?$AA?2?$AAT?$AAr@ 10002e6c     Pclass.obj
 0001:00001ea0       ??_C@_1BI@HCCAONKE@?$AAF?$AAi?$AAl?$AAe?$AAV?$AAe?$AAr?$AAs?$AAi?$AAo?$AAn@ 10002ea0     Pclass.obj
 0001:00001eb8       ??_C@_1CA@JGBAIPOO@?$AAF?$AAi?$AAl?$AAe?$AAD?$AAe?$AAs?$AAc?$AAr?$AAi?$AAp?$AAt?$AAi?$AAo?$AAn@ 10002eb8     Pclass.obj
 0001:00001ed8       ??_C@_19KBHGBEJO@?$AA?$HL?$AA0?$AA?$HN?$AA?2@ 10002ed8     Pclass.obj
 0001:00001ee4       ??_C@_1O@BMPPIAFP@?$AA?5?$AA?$CI?$AA?$HL?$AA0?$AA?$HN?$AA?$CJ@ 10002ee4     Pclass.obj
 0001:00001ef4       ??_C@_1BC@OMEIBLAI@?$AAw?$AAb?$AAe?$AAm?$AAc?$AAo?$AAm?$AAn@ 10002ef4     Pclass.obj
 0001:00001f08       ??_C@_0BA@FOIKENOD@vector?5too?5long@ 10002f08     Pclass.obj
 0001:00001f18       ??_C@_0BI@CFPLBAOH@invalid?5string?5position@ 10002f18     Pclass.obj
 0001:00001f30       ??_C@_15LGINNLBP@?$AA?$HL?$AA?$HN@ 10002f30     Pclass.obj
 0001:00001f38       ??_C@_0BL@GOIGLPKN@unordered_map?1set?5too?5long@ 10002f38     Pclass.obj
 0001:00001f54       ??_C@_0BK@OGNNAFAB@invalid?5hash?5bucket?5count@ 10002f54     Pclass.obj
 0001:00001f70       __real@4024000000000000    10002f70     Pclass.obj
 0001:00001f78       __real@41f0000000000000    10002f78     Pclass.obj
 0001:00001f80       __real@43e0000000000000    10002f80     Pclass.obj
 0001:00001f88       __real@4f800000            10002f88     Pclass.obj
 0001:00001f90       ?Counters@@3QBUcounters@@B 10002f90     perfthread.obj
 0001:00002098       ??_C@_1CC@DNHMJIKH@?$AA?$CF?$AA?5?$AAP?$AAr?$AAo?$AAc?$AAe?$AAs?$AAs?$AAo?$AAr?$AA?5?$AAT?$AAi?$AAm@ 10003098     perfthread.obj
 0001:000020bc       ??_C@_1CE@FNEMIHOD@?$AA?$CF?$AA?5?$AAP?$AAr?$AAi?$AAv?$AAi?$AAl?$AAe?$AAg?$AAe?$AAd?$AA?5?$AAT?$AAi@ 100030bc     perfthread.obj
 0001:000020e0       ??_C@_1BI@IIOPEKIO@?$AA?$CF?$AA?5?$AAU?$AAs?$AAe?$AAr?$AA?5?$AAT?$AAi?$AAm?$AAe@ 100030e0     perfthread.obj
 0001:000020f8       ??_C@_1BK@FAAJNJIB@?$AAH?$AAa?$AAn?$AAd?$AAl?$AAe?$AA?5?$AAC?$AAo?$AAu?$AAn?$AAt@ 100030f8     perfthread.obj
 0001:00002114       ??_C@_1CA@KJMNGIDJ@?$AAP?$AAa?$AAg?$AAe?$AA?5?$AAF?$AAi?$AAl?$AAe?$AA?5?$AAB?$AAy?$AAt?$AAe?$AAs@ 10003114     perfthread.obj
 0001:00002134       ??_C@_1CK@FGGMBBIH@?$AAP?$AAa?$AAg?$AAe?$AA?5?$AAF?$AAi?$AAl?$AAe?$AA?5?$AAB?$AAy?$AAt?$AAe?$AAs@ 10003134     perfthread.obj
 0001:00002160       ??_C@_1BI@GCOMDKEO@?$AAW?$AAo?$AAr?$AAk?$AAi?$AAn?$AAg?$AA?5?$AAS?$AAe?$AAt@ 10003160     perfthread.obj
 0001:00002178       ??_C@_1CC@OFJLEPCP@?$AAW?$AAo?$AAr?$AAk?$AAi?$AAn?$AAg?$AA?5?$AAS?$AAe?$AAt?$AA?5?$AAP?$AAe?$AAa@ 10003178     perfthread.obj
 0001:0000219c       ??_C@_1CI@LLKMGPEG@?$AAP?$AAo?$AAo?$AAl?$AA?5?$AAN?$AAo?$AAn?$AAp?$AAa?$AAg?$AAe?$AAd?$AA?5?$AAB@ 1000319c     perfthread.obj
 0001:000021c4       ??_C@_1CC@IMBAECJF@?$AAP?$AAo?$AAo?$AAl?$AA?5?$AAP?$AAa?$AAg?$AAe?$AAd?$AA?5?$AAB?$AAy?$AAt?$AAe@ 100031c4     perfthread.obj
 0001:000021e8       ??_C@_1BM@DGDPAMAA@?$AAP?$AAr?$AAi?$AAv?$AAa?$AAt?$AAe?$AA?5?$AAB?$AAy?$AAt?$AAe?$AAs@ 100031e8     perfthread.obj
 0001:00002204       ??_C@_1CA@GADAGCME@?$AAP?$AAa?$AAg?$AAe?$AA?5?$AAF?$AAa?$AAu?$AAl?$AAt?$AAs?$AA?1?$AAs?$AAe?$AAc@ 10003204     perfthread.obj
 0001:00002224       ??_C@_1BM@FMIOMJAE@?$AAV?$AAi?$AAr?$AAt?$AAu?$AAa?$AAl?$AA?5?$AAB?$AAy?$AAt?$AAe?$AAs@ 10003224     perfthread.obj
 0001:00002240       ??_C@_1CG@KJOKFONA@?$AAV?$AAi?$AAr?$AAt?$AAu?$AAa?$AAl?$AA?5?$AAB?$AAy?$AAt?$AAe?$AAs?$AA?5?$AAP@ 10003240     perfthread.obj
 0001:00002268       ??_C@_1CE@DFDFLLAO@?$AAI?$AAO?$AA?5?$AAD?$AAa?$AAt?$AAa?$AA?5?$AAB?$AAy?$AAt?$AAe?$AAs?$AA?1?$AAs@ 10003268     perfthread.obj
 0001:0000228c       ??_C@_1CE@EFLEKJAB@?$AAI?$AAO?$AA?5?$AAR?$AAe?$AAa?$AAd?$AA?5?$AAB?$AAy?$AAt?$AAe?$AAs?$AA?1?$AAs@ 1000328c     perfthread.obj
 0001:000022b0       ??_C@_1CG@MEJHKKKF@?$AAI?$AAO?$AA?5?$AAW?$AAr?$AAi?$AAt?$AAe?$AA?5?$AAB?$AAy?$AAt?$AAe?$AAs?$AA?1@ 100032b0     perfthread.obj
 0001:000022d8       ??_C@_1CG@LBBBPCJA@?$AAI?$AAO?$AA?5?$AAO?$AAt?$AAh?$AAe?$AAr?$AA?5?$AAB?$AAy?$AAt?$AAe?$AAs?$AA?1@ 100032d8     perfthread.obj
 0001:00002300       ??_C@_1CO@LIEOHDCC@?$AAI?$AAO?$AA?5?$AAD?$AAa?$AAt?$AAa?$AA?5?$AAO?$AAp?$AAe?$AAr?$AAa?$AAt?$AAi@ 10003300     perfthread.obj
 0001:00002330       ??_C@_1CO@LIIKBHDH@?$AAI?$AAO?$AA?5?$AAR?$AAe?$AAa?$AAd?$AA?5?$AAO?$AAp?$AAe?$AAr?$AAa?$AAt?$AAi@ 10003330     perfthread.obj
 0001:00002360       ??_C@_1DA@HICMAFKK@?$AAI?$AAO?$AA?5?$AAW?$AAr?$AAi?$AAt?$AAe?$AA?5?$AAO?$AAp?$AAe?$AAr?$AAa?$AAt@ 10003360     perfthread.obj
 0001:00002390       ??_C@_1DA@BEHINMGJ@?$AAI?$AAO?$AA?5?$AAO?$AAt?$AAh?$AAe?$AAr?$AA?5?$AAO?$AAp?$AAe?$AAr?$AAa?$AAt@ 10003390     perfthread.obj
 0001:000023c0       ??_C@_1BA@MGJGGMO@?$AAC?$AAo?$AAu?$AAn?$AAt?$AAe?$AAr@ 100033c0     perfthread.obj
 0001:000023d0       ??_C@_1BG@NKNJPBCD@?$AAI?$AAD?$AA?5?$AAP?$AAr?$AAo?$AAc?$AAe?$AAs?$AAs@ 100033d0     perfthread.obj
 0001:000023e8       ??_C@_1BM@KCAKLHJN@?$AAP?$AAr?$AAi?$AAo?$AAr?$AAi?$AAt?$AAy?$AA?5?$AAB?$AAa?$AAs?$AAe@ 100033e8     perfthread.obj
 0001:00002404       ??_C@_1BK@KCHPPKHP@?$AAT?$AAh?$AAr?$AAe?$AAa?$AAd?$AA?5?$AAC?$AAo?$AAu?$AAn?$AAt@ 10003404     perfthread.obj
 0001:00002420       ??_C@_1CI@FNIEMNAI@?$AAC?$AAr?$AAe?$AAa?$AAt?$AAi?$AAn?$AAg?$AA?5?$AAP?$AAr?$AAo?$AAc?$AAe?$AAs@ 10003420     perfthread.obj
 0001:00002448       ??_C@_1BK@IKAFHKBD@?$AAE?$AAl?$AAa?$AAp?$AAs?$AAe?$AAd?$AA?5?$AAT?$AAi?$AAm?$AAe@ 10003448     perfthread.obj
 0001:00002464       ??_C@_19DLCFHDFF@?$AAP?$AAE?$AAR?$AAF@ 10003464     perfthread.obj
 0001:00002470       ??_C@_19DOGDICKI@?$AA?4?$AAe?$AAx?$AAe@ 10003470     perfthread.obj
 0001:00002480       __real@3ff8000000000000    10003480     perfthread.obj
 0001:00002488       ??_C@_1O@NKAIMMPD@?$AA_?$AAT?$AAo?$AAt?$AAa?$AAl@ 10003488     Plist.obj
 0001:00002498       ??_C@_1CC@DMDJMJLM@?$AAS?$AAe?$AAD?$AAe?$AAb?$AAu?$AAg?$AAP?$AAr?$AAi?$AAv?$AAi?$AAl?$AAe?$AAg@ 10003498     Plist.obj
 0001:000024bc       ??_C@_1BE@KEEKBEOD@?$AA?$HL?$AA0?$AA?$HN?$AA?3?$AA?6?$AA?$HL?$AA1?$AA?$HN?$AA?6@ 100034bc     Plist.obj
 0001:000024d0       ??_C@_1O@DMFBLLIP@?$AA?6?$AA?$HL?$AA0?$AA?$HN?$AA?3?$AA?6@ 100034d0     Plist.obj
 0001:000024e0       ??_C@_1BG@JBKHLPML@?$AA?$HL?$AA0?$AA?$HN?$AA?5?$AA?$HL?$AA1?$AA?3?$AA8?$AAX?$AA?$HN@ 100034e0     Plist.obj
 0001:000024f8       ??_C@_19DPDNGGHD@?$AA?5?$AA?$HL?$AA0?$AA?$HN@ 100034f8     Plist.obj
 0001:00002504       ??_C@_1BE@EMDGEBAH@?$AA?$HL?$AA0?$AA?3?$AA0?$AA?$HL?$AA1?$AA?$HN?$AAX?$AA?$HN@ 10003504     Plist.obj
 0001:00002518       ??_C@_1BC@INJAHLHL@?$AA?$HL?$AA0?$AA?3?$AA0?$AA1?$AA6?$AAX?$AA?$HN@ 10003518     Plist.obj
 0001:00002544       ??_7?$_Func_impl_no_alloc@V<lambda_ca95615ebb3c7b16132ff39b7c245039>@@_NPA_WI@std@@6B@ 10003544     Plist.obj
 0001:0000255c       ??_7?$_Func_impl_no_alloc@V<lambda_7407d5cd5d4425cb98b7ee1223d84907>@@_NPA_WI@std@@6B@ 1000355c     Plist.obj
 0001:00002574       ??_C@_1CA@CCAFOKCB@?$AAE?$AAr?$AAr?$AAo?$AAr?$AA?5?$AA0?$AAx?$AA?$HL?$AA0?$AA?3?$AA0?$AA8?$AAX?$AA?$HN@ 10003574     Pmix.obj
 0001:00002594       ??_C@_15JNBOKNOG@?$AA?$AN?$AA?6@ 10003594     Pmix.obj
 0001:0000259c       ??_C@_1DC@LAIEFOLO@?$AAW?$AAi?$AAn?$AA3?$AA2?$AA_?$AAP?$AAr?$AAo?$AAc?$AAe?$AAs?$AAs?$AA?4?$AAH@ 1000359c     wmi.obj
 0001:000025d0       ??_C@_1BO@CLCOBGDE@?$AAE?$AAx?$AAe?$AAc?$AAu?$AAt?$AAa?$AAb?$AAl?$AAe?$AAP?$AAa?$AAt?$AAh@ 100035d0     wmi.obj
 0001:000025f0       ??_C@_1BI@LPJNJKGA@?$AAC?$AAo?$AAm?$AAm?$AAa?$AAn?$AAd?$AAL?$AAi?$AAn?$AAe@ 100035f0     wmi.obj
 0001:00002608       ??_C@_1BC@JHNNEHFE@?$AAP?$AAr?$AAi?$AAo?$AAr?$AAi?$AAt?$AAy@ 10003608     wmi.obj
 0001:0000261c       ??_C@_1BC@HJJANEGO@?$AAG?$AAe?$AAt?$AAO?$AAw?$AAn?$AAe?$AAr@ 1000361c     wmi.obj
 0001:00002630       ??_C@_19PIJILKAI@?$AAU?$AAs?$AAe?$AAr@ 10003630     wmi.obj
 0001:0000263c       ??_C@_1O@OAMNPMOM@?$AAD?$AAo?$AAm?$AAa?$AAi?$AAn@ 1000363c     wmi.obj
 0001:0000264c       ??_C@_1BI@OIPNMPCL@?$AAG?$AAe?$AAt?$AAO?$AAw?$AAn?$AAe?$AAr?$AAS?$AAi?$AAd@ 1000364c     wmi.obj
 0001:00002664       ??_C@_17NKMLOKHF@?$AAS?$AAi?$AAd@ 10003664     wmi.obj
 0001:0000266c       ??_C@_1BE@CFEJJKFE@?$AAS?$AAe?$AAs?$AAs?$AAi?$AAo?$AAn?$AAI?$AAd@ 1000366c     wmi.obj
 0001:00002680       ??_C@_1BM@MLGLIGHJ@?$AAW?$AAi?$AAn?$AA3?$AA2?$AA_?$AAP?$AAr?$AAo?$AAc?$AAe?$AAs?$AAs@ 10003680     wmi.obj
 0001:0000269c       ??_C@_1BI@FLOHINJE@?$AAR?$AAe?$AAt?$AAu?$AAr?$AAn?$AAV?$AAa?$AAl?$AAu?$AAe@ 1000369c     wmi.obj
 0001:000026b4       ??_C@_1BI@NKNJJIDM@?$AAS?$AAe?$AAt?$AAP?$AAr?$AAi?$AAo?$AAr?$AAi?$AAt?$AAy@ 100036b4     wmi.obj
 0001:000026cc       ??_C@_1O@GGHBFGJC@?$AAR?$AAe?$AAa?$AAs?$AAo?$AAn@ 100036cc     wmi.obj
 0001:000026dc       ??_C@_1BE@PBPGMODO@?$AAT?$AAe?$AAr?$AAm?$AAi?$AAn?$AAa?$AAt?$AAe@ 100036dc     wmi.obj
 0001:000026f0       ??_C@_1CC@OGNCBAIB@?$AA?2?$AA?2?$AA?$HL?$AA0?$AA?$HN?$AA?2?$AAr?$AAo?$AAo?$AAt?$AA?2?$AAc?$AAi?$AAm?$AAv@ 100036f0     wmi.obj
 0001:00002714       ??_C@_13JOFGPIOO@?$AA?4@   10003714     wmi.obj
 0001:00002748       _MainGuid                  10003748     Proclist.obj
 0001:00002758       _MenuGuid                  10003758     Proclist.obj
 0001:00002768       _ConfigDialogGuid          10003768     Proclist.obj
 0001:00002778       ??_C@_1M@OAIMIKLP@?$AAn?$AAt?$AAd?$AAl?$AAl@ 10003778     Proclist.obj
 0001:00002784       ??_C@_0BK@EGDDIFMK@NtQueryInformationProcess@ 10003784     Proclist.obj
 0001:000027a0       ??_C@_0BJ@HKKELGGC@NtQueryInformationThread@ 100037a0     Proclist.obj
 0001:000027bc       ??_C@_0O@IFMDHOMC@NtQueryObject@ 100037bc     Proclist.obj
 0001:000027cc       ??_C@_0BJ@NDLOPGCH@NtQuerySystemInformation@ 100037cc     Proclist.obj
 0001:000027e8       ??_C@_0BH@DLPGICA@NtQueryInformationFile@ 100037e8     Proclist.obj
 0001:00002800       ??_C@_0CB@GDPHBMJN@NtWow64QueryInformationProcess6@ 10003800     Proclist.obj
 0001:00002824       ??_C@_0BL@NJDHCDMK@NtWow64ReadVirtualMemory64@ 10003824     Proclist.obj
 0001:00002840       ??_C@_1BC@GDMECMAK@?$AAk?$AAe?$AAr?$AAn?$AAe?$AAl?$AA3?$AA2@ 10003840     Proclist.obj
 0001:00002854       ??_C@_0P@LKABJJMO@IsWow64Process@ 10003854     Proclist.obj
 0001:00002864       ??_C@_1BC@DNHGCMLG@?$AAa?$AAd?$AAv?$AAa?$AAp?$AAi?$AA3?$AA2@ 10003864     Proclist.obj
 0001:00002878       ??_C@_0L@KJHKJIPF@IsValidSid@ 10003878     Proclist.obj
 0001:00002884       ??_C@_0BK@FIHGNING@GetSidIdentifierAuthority@ 10003884     Proclist.obj
 0001:000028a0       ??_C@_0BI@LPFJALDI@GetSidSubAuthorityCount@ 100038a0     Proclist.obj
 0001:000028b8       ??_C@_0BD@LMGFHOAE@GetSidSubAuthority@ 100038b8     Proclist.obj
 0001:000028cc       ??_C@_1O@BCCLBEOE@?$AAu?$AAs?$AAe?$AAr?$AA3?$AA2@ 100038cc     Proclist.obj
 0001:000028dc       ??_C@_0BA@FKGDNIJG@GetGuiResources@ 100038dc     Proclist.obj
 0001:000028ec       ??_C@_1M@FFPAMFOB@?$AAo?$AAl?$AAe?$AA3?$AA2@ 100038ec     Proclist.obj
 0001:000028f8       ??_C@_0BC@IOEGILCE@CoSetProxyBlanket@ 100038f8     Proclist.obj
 0001:0000290c       ??_C@_1M@OMFDJDJC@?$AAp?$AAs?$AAa?$AAp?$AAi@ 1000390c     Proclist.obj
 0001:00002918       ??_C@_0BF@LEEEDPDK@EnumProcessModulesEx@ 10003918     Proclist.obj
 0001:00002930       ??_C@_1BC@PDEABLIN@?$AAP?$AAr?$AAo?$AAc?$AAL?$AAi?$AAs?$AAt@ 10003930     Proclist.obj
 0001:00002944       ??_C@_1DK@DCAMPEPJ@?$AAP?$AAr?$AAo?$AAc?$AAe?$AAs?$AAs?$AA?5?$AAL?$AAi?$AAs?$AAt?$AA?5?$AAf?$AAo@ 10003944     Proclist.obj
 0001:00002980       ??_C@_1DE@BGKMIKPD@?$AAE?$AAu?$AAg?$AAe?$AAn?$AAe?$AA?5?$AAR?$AAo?$AAs?$AAh?$AAa?$AAl?$AA?5?$AA?$CG@ 10003980     Proclist.obj
 0001:000029b4       ??_C@_1M@MNPEKPKO@?$AAp?$AAl?$AAi?$AAs?$AAt@ 100039b4     Proclist.obj
 0001:000029c0       __imp__EncodePointer@4     100039c0     vc_crt_fix.obj
 0001:000029c4       __imp__DecodePointer@4     100039c4     vc_crt_fix.obj
 0001:000029c8       __imp__GetModuleHandleExW@12 100039c8     vc_crt_fix.obj
 0001:000029cc       __imp__InitializeSListHead@4 100039cc     vc_crt_fix.obj
 0001:000029d0       __imp__InterlockedFlushSList@4 100039d0     vc_crt_fix.obj
 0001:000029d4       __imp__InterlockedPopEntrySList@4 100039d4     vc_crt_fix.obj
 0001:000029d8       __imp__InterlockedPushEntrySList@8 100039d8     vc_crt_fix.obj
 0001:000029dc       __imp__InterlockedPushListSListEx@16 100039dc     vc_crt_fix.obj
 0001:000029e0       __imp__RtlFirstEntrySList@4 100039e0     vc_crt_fix.obj
 0001:000029e4       __imp__QueryDepthSList@4   100039e4     vc_crt_fix.obj
 0001:000029e8       __imp__GetNumaHighestNodeNumber@4 100039e8     vc_crt_fix.obj
 0001:000029ec       __imp__GetLogicalProcessorInformation@8 100039ec     vc_crt_fix.obj
 0001:000029f0       __imp__SetThreadStackGuarantee@4 100039f0     vc_crt_fix.obj
 0001:000029f4       __imp__InitializeCriticalSectionEx@12 100039f4     vc_crt_fix.obj
 0001:000029f8       __imp__CompareStringEx@36  100039f8     vc_crt_fix.obj
 0001:000029fc       __imp__LCMapStringEx@36    100039fc     vc_crt_fix.obj
 0001:00002a20       ??_C@_0O@NLDKAIKN@EncodePointer@ 10003a20     vc_crt_fix_impl.obj
 0001:00002a30       ??_C@_0O@KBPMFGHI@DecodePointer@ 10003a30     vc_crt_fix_impl.obj
 0001:00002a40       ??_C@_0BD@GIGEJCNH@GetModuleHandleExW@ 10003a40     vc_crt_fix_impl.obj
 0001:00002a54       ??_C@_0BE@NBEJPEJA@InitializeSListHead@ 10003a54     vc_crt_fix_impl.obj
 0001:00002a68       ??_C@_0BG@PLLPFLHB@InterlockedFlushSList@ 10003a68     vc_crt_fix_impl.obj
 0001:00002a80       ??_C@_0BJ@PNEEKDOK@InterlockedPopEntrySList@ 10003a80     vc_crt_fix_impl.obj
 0001:00002a9c       ??_C@_0BK@JFGGAIOA@InterlockedPushEntrySList@ 10003a9c     vc_crt_fix_impl.obj
 0001:00002ab8       ??_C@_0BL@FOECAEGO@InterlockedPushListSListEx@ 10003ab8     vc_crt_fix_impl.obj
 0001:00002ad4       ??_C@_0BD@FHMMIGCI@RtlFirstEntrySList@ 10003ad4     vc_crt_fix_impl.obj
 0001:00002ae8       ??_C@_0BA@FGPHPMJB@QueryDepthSList@ 10003ae8     vc_crt_fix_impl.obj
 0001:00002af8       ??_C@_0BJ@NLNFLAMA@GetNumaHighestNodeNumber@ 10003af8     vc_crt_fix_impl.obj
 0001:00002b14       ??_C@_0BP@KHGALBC@GetLogicalProcessorInformation@ 10003b14     vc_crt_fix_impl.obj
 0001:00002b34       ??_C@_0BI@BKLFFAPO@SetThreadStackGuarantee@ 10003b34     vc_crt_fix_impl.obj
 0001:00002b4c       ??_C@_0BM@HCFOFFN@InitializeCriticalSectionEx@ 10003b4c     vc_crt_fix_impl.obj
 0001:00002b68       ??_C@_0BA@IHGNDAEB@CompareStringEx@ 10003b68     vc_crt_fix_impl.obj
 0001:00002b78       _CLSID_WbemLocator         10003b78     wbemuuid:wbemcli_i.obj
 0001:00002b88       _IID_IWbemLocator          10003b88     wbemuuid:wbemcli_i.obj
 0001:00002b9c       ??_7exception@std@@6B@     10003b9c     libcpmt:xthrow.obj
 0001:00002ba8       ??_7bad_alloc@std@@6B@     10003ba8     libcpmt:xthrow.obj
 0001:00002bb0       ??_C@_0P@GHFPNOJB@bad?5allocation@ 10003bb0     libcpmt:xthrow.obj
 0001:00002bc4       ??_7logic_error@std@@6B@   10003bc4     libcpmt:xthrow.obj
 0001:00002bd0       ??_7length_error@std@@6B@  10003bd0     libcpmt:xthrow.obj
 0001:00002bdc       ??_7out_of_range@std@@6B@  10003bdc     libcpmt:xthrow.obj
 0001:00002be8       ??_7runtime_error@std@@6B@ 10003be8     libcpmt:xthrow.obj
 0001:00002bf4       ??_7bad_function_call@std@@6B@ 10003bf4     libcpmt:xthrow.obj
 0001:00002bfc       ??_C@_0BC@DPJNKNAF@bad?5function?5call@ 10003bfc     libcpmt:xthrow.obj
 0001:00002c14       ??_7_Facet_base@std@@6B@   10003c14     libcpmt:locale0.obj
 0001:00002c24       ??_7_Locimp@locale@std@@6B@ 10003c24     libcpmt:locale0.obj
 0001:00002c30       ??_C@_01NBENCBCI@?$CK@     10003c30     libcpmt:locale0.obj
 0001:00002c34       ??_C@_01GFHCPBMG@C@        10003c34     libcpmt:locale0.obj
 0001:00002c3c       ??_7bad_array_new_length@std@@6B@ 10003c3c     libcpmt:locale.obj
 0001:00002c44       ??_C@_1BK@MGMFAEKH@?$AAk?$AAe?$AAr?$AAn?$AAe?$AAl?$AA3?$AA2?$AA?4?$AAd?$AAl?$AAl@ 10003c44     libcpmt:winapisupp.obj
 0001:00002c60       ??_C@_08KNHFBNJ@FlsAlloc@  10003c60     libcpmt:winapisupp.obj
 0001:00002c6c       ??_C@_07PEJMOBNF@FlsFree@  10003c6c     libcpmt:winapisupp.obj
 0001:00002c74       ??_C@_0M@GDNOONDI@FlsGetValue@ 10003c74     libcpmt:winapisupp.obj
 0001:00002c80       ??_C@_0M@JCPCPOEF@FlsSetValue@ 10003c80     libcpmt:winapisupp.obj
 0001:00002c8c       ??_C@_0BE@GPLMMCMH@InitOnceExecuteOnce@ 10003c8c     libcpmt:winapisupp.obj
 0001:00002ca0       ??_C@_0P@DLHPPCNH@CreateEventExW@ 10003ca0     libcpmt:winapisupp.obj
 0001:00002cb0       ??_C@_0BB@MEFPJLHN@CreateSemaphoreW@ 10003cb0     libcpmt:winapisupp.obj
 0001:00002cc4       ??_C@_0BD@KIEEOEEH@CreateSemaphoreExW@ 10003cc4     libcpmt:winapisupp.obj
 0001:00002cd8       ??_C@_0BG@OGFAJCKC@CreateThreadpoolTimer@ 10003cd8     libcpmt:winapisupp.obj
 0001:00002cf0       ??_C@_0BD@LPLEMMDI@SetThreadpoolTimer@ 10003cf0     libcpmt:winapisupp.obj
 0001:00002d04       ??_C@_0CA@FMNJENH@WaitForThreadpoolTimerCallbacks@ 10003d04     libcpmt:winapisupp.obj
 0001:00002d24       ??_C@_0BF@DCFCCNOC@CloseThreadpoolTimer@ 10003d24     libcpmt:winapisupp.obj
 0001:00002d3c       ??_C@_0BF@FLABGKKM@CreateThreadpoolWait@ 10003d3c     libcpmt:winapisupp.obj
 0001:00002d54       ??_C@_0BC@MGCOHNA@SetThreadpoolWait@ 10003d54     libcpmt:winapisupp.obj
 0001:00002d68       ??_C@_0BE@OCIOMIMP@CloseThreadpoolWait@ 10003d68     libcpmt:winapisupp.obj
 0001:00002d7c       ??_C@_0BJ@LKGHFHBO@FlushProcessWriteBuffers@ 10003d7c     libcpmt:winapisupp.obj
 0001:00002d98       ??_C@_0BP@KALKKPMO@FreeLibraryWhenCallbackReturns@ 10003d98     libcpmt:winapisupp.obj
 0001:00002db8       ??_C@_0BK@DFNBACLA@GetCurrentProcessorNumber@ 10003db8     libcpmt:winapisupp.obj
 0001:00002dd4       ??_C@_0BE@FKKLLFLM@CreateSymbolicLinkW@ 10003dd4     libcpmt:winapisupp.obj
 0001:00002de8       ??_C@_0BE@JOGNEJCI@GetCurrentPackageId@ 10003de8     libcpmt:winapisupp.obj
 0001:00002dfc       ??_C@_0P@CDHHOHKP@GetTickCount64@ 10003dfc     libcpmt:winapisupp.obj
 0001:00002e0c       ??_C@_0BN@NEEHBBPO@GetFileInformationByHandleEx@ 10003e0c     libcpmt:winapisupp.obj
 0001:00002e2c       ??_C@_0BL@KBBHGKCM@SetFileInformationByHandle@ 10003e2c     libcpmt:winapisupp.obj
 0001:00002e48       ??_C@_0BP@FPNJPEJC@GetSystemTimePreciseAsFileTime@ 10003e48     libcpmt:winapisupp.obj
 0001:00002e68       ??_C@_0BM@HLJJNPAH@InitializeConditionVariable@ 10003e68     libcpmt:winapisupp.obj
 0001:00002e84       ??_C@_0BG@BFNILBLN@WakeConditionVariable@ 10003e84     libcpmt:winapisupp.obj
 0001:00002e9c       ??_C@_0BJ@PGPPEPCC@WakeAllConditionVariable@ 10003e9c     libcpmt:winapisupp.obj
 0001:00002eb8       ??_C@_0BJ@JEBJOJFJ@SleepConditionVariableCS@ 10003eb8     libcpmt:winapisupp.obj
 0001:00002ed4       ??_C@_0BC@MMLHEBPB@InitializeSRWLock@ 10003ed4     libcpmt:winapisupp.obj
 0001:00002ee8       ??_C@_0BI@OMNLIJDB@AcquireSRWLockExclusive@ 10003ee8     libcpmt:winapisupp.obj
 0001:00002f00       ??_C@_0BL@OGHFEMNA@TryAcquireSRWLockExclusive@ 10003f00     libcpmt:winapisupp.obj
 0001:00002f1c       ??_C@_0BI@HMIEPCNJ@ReleaseSRWLockExclusive@ 10003f1c     libcpmt:winapisupp.obj
 0001:00002f34       ??_C@_0BK@LGACAGIC@SleepConditionVariableSRW@ 10003f34     libcpmt:winapisupp.obj
 0001:00002f50       ??_C@_0BF@GGPHFPJA@CreateThreadpoolWork@ 10003f50     libcpmt:winapisupp.obj
 0001:00002f68       ??_C@_0BF@NHDAIMMO@SubmitThreadpoolWork@ 10003f68     libcpmt:winapisupp.obj
 0001:00002f80       ??_C@_0BE@NPHIPNPD@CloseThreadpoolWork@ 10003f80     libcpmt:winapisupp.obj
 0001:00002f94       ??_C@_0BA@ONOKGCMP@GetLocaleInfoEx@ 10003f94     libcpmt:winapisupp.obj
 0001:00002fa4       ??_C@_0O@KKBNKAPF@LCMapStringEx@ 10003fa4     libcpmt:winapisupp.obj
 0001:00002fb8       ??_7?$numpunct@_W@std@@6B@ 10003fb8     libcpmt:wlocale.obj
 0001:00002fd8       ??_C@_13IMODFHAA@?$AA?9@   10003fd8     libcpmt:wlocale.obj
 0001:00002fdc       ??_C@_01JOAMLHOP@?9@       10003fdc     libcpmt:wlocale.obj
 0001:00003ec0       ??_C@_15EMKDOKLE@?$AAa?$AAr@ 10004ec0     libcpmt:winapinls.obj
 0001:00003ec8       ??_C@_15KNPADPLH@?$AAb?$AAg@ 10004ec8     libcpmt:winapinls.obj
 0001:00003ed0       ??_C@_15EDMHLDMO@?$AAc?$AAa@ 10004ed0     libcpmt:winapinls.obj
 0001:00003ed8       ??_C@_1O@BPEAJADD@?$AAz?$AAh?$AA?9?$AAC?$AAH?$AAS@ 10004ed8     libcpmt:winapinls.obj
 0001:00003ee8       ??_C@_15LJNHCMNK@?$AAc?$AAs@ 10004ee8     libcpmt:winapinls.obj
 0001:00003ef0       ??_C@_15FOMCIDHG@?$AAd?$AAa@ 10004ef0     libcpmt:winapinls.obj
 0001:00003ef8       ??_C@_15NBKABECB@?$AAd?$AAe@ 10004ef8     libcpmt:winapinls.obj
 0001:00003f00       ??_C@_15GHPEIIAO@?$AAe?$AAl@ 10004f00     libcpmt:winapinls.obj
 0001:00003f08       ??_C@_15MNPNEAIF@?$AAe?$AAn@ 10004f08     libcpmt:winapinls.obj
 0001:00003f10       ??_C@_15GPIOMPMH@?$AAe?$AAs@ 10004f10     libcpmt:winapinls.obj
 0001:00003f18       ??_C@_15NGLOAKJC@?$AAf?$AAi@ 10004f18     libcpmt:winapinls.obj
 0001:00003f20       ??_C@_15FBKGNKAM@?$AAf?$AAr@ 10004f20     libcpmt:winapinls.obj
 0001:00003f28       ??_C@_15KGGCNEFK@?$AAh?$AAe@ 10004f28     libcpmt:winapinls.obj
 0001:00003f30       ??_C@_15PGHLIDMF@?$AAh?$AAu@ 10004f30     libcpmt:winapinls.obj
 0001:00003f38       ??_C@_15BIEMAPLM@?$AAi?$AAs@ 10004f38     libcpmt:winapinls.obj
 0001:00003f40       ??_C@_15IFJLDHAF@?$AAi?$AAt@ 10004f40     libcpmt:winapinls.obj
 0001:00003f48       ??_C@_15GEMIOCAG@?$AAj?$AAa@ 10004f48     libcpmt:winapinls.obj
 0001:00003f50       ??_C@_15EPELEGJA@?$AAk?$AAo@ 10004f50     libcpmt:winapinls.obj
 0001:00003f58       ??_C@_15NDDHIMN@?$AAn?$AAl@ 10004f58     libcpmt:winapinls.obj
 0001:00003f60       ??_C@_15BPIGNHCD@?$AAn?$AAo@ 10004f60     libcpmt:winapinls.obj
 0001:00003f68       ??_C@_15DEOPBLCG@?$AAp?$AAl@ 10004f68     libcpmt:winapinls.obj
 0001:00003f70       ??_C@_15KBECGEFG@?$AAp?$AAt@ 10004f70     libcpmt:winapinls.obj
 0001:00003f78       ??_C@_15GLJCBFMD@?$AAr?$AAo@ 10004f78     libcpmt:winapinls.obj
 0001:00003f80       ??_C@_15FEDGKCDI@?$AAr?$AAu@ 10004f80     libcpmt:winapinls.obj
 0001:00003f88       ??_C@_15GLKMLLHM@?$AAh?$AAr@ 10004f88     libcpmt:winapinls.obj
 0001:00003f90       ??_C@_15CPKMFBDB@?$AAs?$AAk@ 10004f90     libcpmt:winapinls.obj
 0001:00003f98       ??_C@_15BAAIOGMK@?$AAs?$AAq@ 10004f98     libcpmt:winapinls.obj
 0001:00003fa0       ??_C@_15INNPNOHD@?$AAs?$AAv@ 10004fa0     libcpmt:winapinls.obj
 0001:00003fa8       ??_C@_15CABMMOGH@?$AAt?$AAh@ 10004fa8     libcpmt:winapinls.obj
 0001:00003fb0       ??_C@_15BPLIHJJM@?$AAt?$AAr@ 10004fb0     libcpmt:winapinls.obj
 0001:00003fb8       ??_C@_15NEOEKKDJ@?$AAu?$AAr@ 10004fb8     libcpmt:winapinls.obj
 0001:00003fc0       ??_C@_15NFICGAJK@?$AAi?$AAd@ 10004fc0     libcpmt:winapinls.obj
 0001:00003fc8       ??_C@_15PJPFLCCM@?$AAu?$AAk@ 10004fc8     libcpmt:winapinls.obj
 0001:00003fd0       ??_C@_15HPJPHDM@?$AAb?$AAe@ 10004fd0     libcpmt:winapinls.obj
 0001:00003fd8       ??_C@_15LCHLGJII@?$AAs?$AAl@ 10004fd8     libcpmt:winapinls.obj
 0001:00003fe0       ??_C@_15PCFJPHHO@?$AAe?$AAt@ 10004fe0     libcpmt:winapinls.obj
 0001:00003fe8       ??_C@_15HPFPGODN@?$AAl?$AAv@ 10004fe8     libcpmt:winapinls.obj
 0001:00003ff0       ??_C@_15NFFGKGLG@?$AAl?$AAt@ 10004ff0     libcpmt:winapinls.obj
 0001:00003ff8       ??_C@_15BDAKCCHN@?$AAf?$AAa@ 10004ff8     libcpmt:winapinls.obj
 0001:00004000       ??_C@_15NFGIAIAJ@?$AAv?$AAi@ 10005000     libcpmt:winapinls.obj
 0001:00004008       ??_C@_15LMKNDMHN@?$AAh?$AAy@ 10005008     libcpmt:winapinls.obj
 0001:00004010       ??_C@_15IJBHMCFL@?$AAa?$AAz@ 10005010     libcpmt:winapinls.obj
 0001:00004018       ??_C@_15EKOFJABL@?$AAe?$AAu@ 10005018     libcpmt:winapinls.obj
 0001:00004020       ??_C@_15BGHADCNK@?$AAm?$AAk@ 10005020     libcpmt:winapinls.obj
 0001:00004028       ??_C@_15JDNICKHM@?$AAa?$AAf@ 10005028     libcpmt:winapinls.obj
 0001:00004030       ??_C@_15KPJEDBKD@?$AAk?$AAa@ 10005030     libcpmt:winapinls.obj
 0001:00004038       ??_C@_15PDNFFFEO@?$AAf?$AAo@ 10005038     libcpmt:winapinls.obj
 0001:00004040       ??_C@_15OMLEGLOC@?$AAh?$AAi@ 10005040     libcpmt:winapinls.obj
 0001:00004048       ??_C@_15IDNNENKK@?$AAm?$AAs@ 10005048     libcpmt:winapinls.obj
 0001:00004050       ??_C@_15MACJNBMH@?$AAk?$AAk@ 10005050     libcpmt:winapinls.obj
 0001:00004058       ??_C@_15DKDJEOND@?$AAk?$AAy@ 10005058     libcpmt:winapinls.obj
 0001:00004060       ??_C@_15DFGDLJBG@?$AAs?$AAw@ 10005060     libcpmt:winapinls.obj
 0001:00004068       ??_C@_15BBFAICNG@?$AAu?$AAz@ 10005068     libcpmt:winapinls.obj
 0001:00004070       ??_C@_15DKNDCGEA@?$AAt?$AAt@ 10005070     libcpmt:winapinls.obj
 0001:00004078       ??_C@_15MGIFMDPL@?$AAp?$AAa@ 10005078     libcpmt:winapinls.obj
 0001:00004080       ??_C@_15HCNDBBA@?$AAg?$AAu@ 10005080     libcpmt:winapinls.obj
 0001:00004088       ??_C@_15FNBEIBON@?$AAt?$AAa@ 10005088     libcpmt:winapinls.obj
 0001:00004090       ??_C@_15NCHGBGLK@?$AAt?$AAe@ 10005090     libcpmt:winapinls.obj
 0001:00004098       ??_C@_15PHPHCBPF@?$AAk?$AAn@ 10005098     libcpmt:winapinls.obj
 0001:000040a0       ??_C@_15DLGBCKMP@?$AAm?$AAr@ 100050a0     libcpmt:winapinls.obj
 0001:000040a8       ??_C@_15EABBLBFF@?$AAs?$AAa@ 100050a8     libcpmt:winapinls.obj
 0001:000040b0       ??_C@_15CBKOMCOI@?$AAm?$AAn@ 100050b0     libcpmt:winapinls.obj
 0001:000040b8       ??_C@_15CKDMCJAF@?$AAg?$AAl@ 100050b8     libcpmt:winapinls.obj
 0001:000040c0       ??_C@_17CNJFBPG@?$AAk?$AAo?$AAk@ 100050c0     libcpmt:winapinls.obj
 0001:000040c8       ??_C@_17FFBJICPL@?$AAs?$AAy?$AAr@ 100050c8     libcpmt:winapinls.obj
 0001:000040d0       ??_C@_17KPNDCPAF@?$AAd?$AAi?$AAv@ 100050d0     libcpmt:winapinls.obj
 0001:000040d8       ??_C@_1M@OKAHONE@?$AAa?$AAr?$AA?9?$AAS?$AAA@ 100050d8     libcpmt:winapinls.obj
 0001:000040e4       ??_C@_1M@FFFIGIGK@?$AAb?$AAg?$AA?9?$AAB?$AAG@ 100050e4     libcpmt:winapinls.obj
 0001:000040f0       ??_C@_1M@BJNKEDC@?$AAc?$AAa?$AA?9?$AAE?$AAS@ 100050f0     libcpmt:winapinls.obj
 0001:000040fc       ??_C@_1M@CLNBBOPM@?$AAz?$AAh?$AA?9?$AAT?$AAW@ 100050fc     libcpmt:winapinls.obj
 0001:00004108       ??_C@_1M@IJJHFJHA@?$AAc?$AAs?$AA?9?$AAC?$AAZ@ 10005108     libcpmt:winapinls.obj
 0001:00004114       ??_C@_1M@CLPEOBGI@?$AAd?$AAa?$AA?9?$AAD?$AAK@ 10005114     libcpmt:winapinls.obj
 0001:00004120       ??_C@_1M@MCMADGCB@?$AAd?$AAe?$AA?9?$AAD?$AAE@ 10005120     libcpmt:winapinls.obj
 0001:0000412c       ??_C@_1M@OOCKEMAM@?$AAe?$AAl?$AA?9?$AAG?$AAR@ 1000512c     libcpmt:winapinls.obj
 0001:00004138       ??_C@_1M@BMHNFIME@?$AAe?$AAn?$AA?9?$AAU?$AAS@ 10005138     libcpmt:winapinls.obj
 0001:00004144       ??_C@_1M@DDNJFGID@?$AAf?$AAi?$AA?9?$AAF?$AAI@ 10005144     libcpmt:winapinls.obj
 0001:00004150       ??_C@_1M@GLIPPMAC@?$AAf?$AAr?$AA?9?$AAF?$AAR@ 10005150     libcpmt:winapinls.obj
 0001:0000415c       ??_C@_1M@GFMCHPE@?$AAh?$AAe?$AA?9?$AAI?$AAL@ 1000515c     libcpmt:winapinls.obj
 0001:00004168       ??_C@_1M@MHLPGNKM@?$AAh?$AAu?$AA?9?$AAH?$AAU@ 10005168     libcpmt:winapinls.obj
 0001:00004174       ??_C@_1M@LPDDNNPN@?$AAi?$AAs?$AA?9?$AAI?$AAS@ 10005174     libcpmt:winapinls.obj
 0001:00004180       ??_C@_1M@MADIPODN@?$AAi?$AAt?$AA?9?$AAI?$AAT@ 10005180     libcpmt:winapinls.obj
 0001:0000418c       ??_C@_1M@HPNHIDJI@?$AAj?$AAa?$AA?9?$AAJ?$AAP@ 1000518c     libcpmt:winapinls.obj
 0001:00004198       ??_C@_1M@JLOOOEGK@?$AAk?$AAo?$AA?9?$AAK?$AAR@ 10005198     libcpmt:winapinls.obj
 0001:000041a4       ??_C@_1M@IHBJJGG@?$AAn?$AAl?$AA?9?$AAN?$AAL@ 100051a4     libcpmt:winapinls.obj
 0001:000041b0       ??_C@_1M@EANAGDL@?$AAn?$AAb?$AA?9?$AAN?$AAO@ 100051b0     libcpmt:winapinls.obj
 0001:000041bc       ??_C@_1M@NEIEMEGP@?$AAp?$AAl?$AA?9?$AAP?$AAL@ 100051bc     libcpmt:winapinls.obj
 0001:000041c8       ??_C@_1M@BOCFIGEP@?$AAp?$AAt?$AA?9?$AAB?$AAR@ 100051c8     libcpmt:winapinls.obj
 0001:000041d4       ??_C@_1M@IMPFOPBG@?$AAr?$AAo?$AA?9?$AAR?$AAO@ 100051d4     libcpmt:winapinls.obj
 0001:000041e0       ??_C@_1M@IDNNEJMM@?$AAr?$AAu?$AA?9?$AAR?$AAU@ 100051e0     libcpmt:winapinls.obj
 0001:000041ec       ??_C@_1M@LILEEOGM@?$AAh?$AAr?$AA?9?$AAH?$AAR@ 100051ec     libcpmt:winapinls.obj
 0001:000041f8       ??_C@_1M@FKIFEHPB@?$AAs?$AAk?$AA?9?$AAS?$AAK@ 100051f8     libcpmt:winapinls.obj
 0001:00004204       ??_C@_1M@LJMAMNPJ@?$AAs?$AAq?$AA?9?$AAA?$AAL@ 10005204     libcpmt:winapinls.obj
 0001:00004210       ??_C@_1M@GIAKDKJK@?$AAs?$AAv?$AA?9?$AAS?$AAE@ 10005210     libcpmt:winapinls.obj
 0001:0000421c       ??_C@_1M@MKJKIKCL@?$AAt?$AAh?$AA?9?$AAT?$AAH@ 1000521c     libcpmt:winapinls.obj
 0001:00004228       ??_C@_1M@MFLCCMPB@?$AAt?$AAr?$AA?9?$AAT?$AAR@ 10005228     libcpmt:winapinls.obj
 0001:00004234       ??_C@_1M@OIJHDKJN@?$AAu?$AAr?$AA?9?$AAP?$AAK@ 10005234     libcpmt:winapinls.obj
 0001:00004240       ??_C@_1M@LHIPCIEK@?$AAi?$AAd?$AA?9?$AAI?$AAD@ 10005240     libcpmt:winapinls.obj
 0001:0000424c       ??_C@_1M@MFMOBGI@?$AAu?$AAk?$AA?9?$AAU?$AAA@ 1000524c     libcpmt:winapinls.obj
 0001:00004258       ??_C@_1M@OBGLJIPL@?$AAb?$AAe?$AA?9?$AAB?$AAY@ 10005258     libcpmt:winapinls.obj
 0001:00004264       ??_C@_1M@BCFAJEAD@?$AAs?$AAl?$AA?9?$AAS?$AAI@ 10005264     libcpmt:winapinls.obj
 0001:00004270       ??_C@_1M@FKFFEDDN@?$AAe?$AAt?$AA?9?$AAE?$AAE@ 10005270     libcpmt:winapinls.obj
 0001:0000427c       ??_C@_1M@KGKKAACI@?$AAl?$AAv?$AA?9?$AAL?$AAV@ 1000527c     libcpmt:winapinls.obj
 0001:00004288       ??_C@_1M@IFGBIJO@?$AAl?$AAt?$AA?9?$AAL?$AAT@ 10005288     libcpmt:winapinls.obj
 0001:00004294       ??_C@_1M@FGEAHEDM@?$AAf?$AAa?$AA?9?$AAI?$AAR@ 10005294     libcpmt:winapinls.obj
 0001:000042a0       ??_C@_1M@KBMAIBFN@?$AAv?$AAi?$AA?9?$AAV?$AAN@ 100052a0     libcpmt:winapinls.obj
 0001:000042ac       ??_C@_1M@GPCBKDJK@?$AAh?$AAy?$AA?9?$AAA?$AAM@ 100052ac     libcpmt:winapinls.obj
 0001:000042b8       ??_C@_1BG@BECMDDJB@?$AAa?$AAz?$AA?9?$AAA?$AAZ?$AA?9?$AAL?$AAa?$AAt?$AAn@ 100052b8     libcpmt:winapinls.obj
 0001:000042d0       ??_C@_1M@MAOFCAEA@?$AAe?$AAu?$AA?9?$AAE?$AAS@ 100052d0     libcpmt:winapinls.obj
 0001:000042dc       ??_C@_1M@IGHABKPI@?$AAm?$AAk?$AA?9?$AAM?$AAK@ 100052dc     libcpmt:winapinls.obj
 0001:000042e8       ??_C@_1M@IAIGNEJG@?$AAt?$AAn?$AA?9?$AAZ?$AAA@ 100052e8     libcpmt:winapinls.obj
 0001:000042f4       ??_C@_1M@IIJCOJFA@?$AAx?$AAh?$AA?9?$AAZ?$AAA@ 100052f4     libcpmt:winapinls.obj
 0001:00004300       ??_C@_1M@LGPJHNJH@?$AAz?$AAu?$AA?9?$AAZ?$AAA@ 10005300     libcpmt:winapinls.obj
 0001:0000430c       ??_C@_1M@HOKAOIO@?$AAa?$AAf?$AA?9?$AAZ?$AAA@ 1000530c     libcpmt:winapinls.obj
 0001:00004318       ??_C@_1M@DPCLHLIE@?$AAk?$AAa?$AA?9?$AAG?$AAE@ 10005318     libcpmt:winapinls.obj
 0001:00004324       ??_C@_1M@BLKMHJBI@?$AAf?$AAo?$AA?9?$AAF?$AAO@ 10005324     libcpmt:winapinls.obj
 0001:00004330       ??_C@_1M@LGGJAPPB@?$AAh?$AAi?$AA?9?$AAI?$AAN@ 10005330     libcpmt:winapinls.obj
 0001:0000433c       ??_C@_1M@FIKPIHFE@?$AAm?$AAt?$AA?9?$AAM?$AAT@ 1000533c     libcpmt:winapinls.obj
 0001:00004348       ??_C@_1M@HEGGPBFA@?$AAs?$AAe?$AA?9?$AAN?$AAO@ 10005348     libcpmt:winapinls.obj
 0001:00004354       ??_C@_1M@EIBJEEPA@?$AAm?$AAs?$AA?9?$AAM?$AAY@ 10005354     libcpmt:winapinls.obj
 0001:00004360       ??_C@_1M@FHLBGMPP@?$AAk?$AAk?$AA?9?$AAK?$AAZ@ 10005360     libcpmt:winapinls.obj
 0001:0000436c       ??_C@_1M@NGJJLCGI@?$AAk?$AAy?$AA?9?$AAK?$AAG@ 1000536c     libcpmt:winapinls.obj
 0001:00004378       ??_C@_1M@GIENNBFC@?$AAs?$AAw?$AA?9?$AAK?$AAE@ 10005378     libcpmt:winapinls.obj
 0001:00004384       ??_C@_1BG@NDGMJIMJ@?$AAu?$AAz?$AA?9?$AAU?$AAZ?$AA?9?$AAL?$AAa?$AAt?$AAn@ 10005384     libcpmt:winapinls.obj
 0001:0000439c       ??_C@_1M@IDCCIHBC@?$AAt?$AAt?$AA?9?$AAR?$AAU@ 1000539c     libcpmt:winapinls.obj
 0001:000043a8       ??_C@_1M@LOICPMOJ@?$AAb?$AAn?$AA?9?$AAI?$AAN@ 100053a8     libcpmt:winapinls.obj
 0001:000043b4       ??_C@_1M@KPKKNEAH@?$AAp?$AAa?$AA?9?$AAI?$AAN@ 100053b4     libcpmt:winapinls.obj
 0001:000043c0       ??_C@_1M@PJGPPBOG@?$AAg?$AAu?$AA?9?$AAI?$AAN@ 100053c0     libcpmt:winapinls.obj
 0001:000043cc       ??_C@_1M@KMKMOPHI@?$AAt?$AAa?$AA?9?$AAI?$AAN@ 100053cc     libcpmt:winapinls.obj
 0001:000043d8       ??_C@_1M@KFEHEPAC@?$AAt?$AAe?$AA?9?$AAI?$AAN@ 100053d8     libcpmt:winapinls.obj
 0001:000043e4       ??_C@_1M@CDCLMGHI@?$AAk?$AAn?$AA?9?$AAI?$AAN@ 100053e4     libcpmt:winapinls.obj
 0001:000043f0       ??_C@_1M@MIODLDKF@?$AAm?$AAl?$AA?9?$AAI?$AAN@ 100053f0     libcpmt:winapinls.obj
 0001:000043fc       ??_C@_1M@PBIEACPO@?$AAm?$AAr?$AA?9?$AAI?$AAN@ 100053fc     libcpmt:winapinls.obj
 0001:00004408       ??_C@_1M@NIDEAGPH@?$AAs?$AAa?$AA?9?$AAI?$AAN@ 10005408     libcpmt:winapinls.obj
 0001:00004414       ??_C@_1M@FHIHCBIO@?$AAm?$AAn?$AA?9?$AAM?$AAN@ 10005414     libcpmt:winapinls.obj
 0001:00004420       ??_C@_1M@JAIJPENP@?$AAc?$AAy?$AA?9?$AAG?$AAB@ 10005420     libcpmt:winapinls.obj
 0001:0000442c       ??_C@_1M@PHGFBEPN@?$AAg?$AAl?$AA?9?$AAE?$AAS@ 1000542c     libcpmt:winapinls.obj
 0001:00004438       ??_C@_1O@KPIPDNCP@?$AAk?$AAo?$AAk?$AA?9?$AAI?$AAN@ 10005438     libcpmt:winapinls.obj
 0001:00004448       ??_C@_1O@KNHJLDJA@?$AAs?$AAy?$AAr?$AA?9?$AAS?$AAY@ 10005448     libcpmt:winapinls.obj
 0001:00004458       ??_C@_1O@MKEKBLAH@?$AAd?$AAi?$AAv?$AA?9?$AAM?$AAV@ 10005458     libcpmt:winapinls.obj
 0001:00004468       ??_C@_1O@OHDCKDDF@?$AAq?$AAu?$AAz?$AA?9?$AAB?$AAO@ 10005468     libcpmt:winapinls.obj
 0001:00004478       ??_C@_1M@LEPJNLFD@?$AAn?$AAs?$AA?9?$AAZ?$AAA@ 10005478     libcpmt:winapinls.obj
 0001:00004484       ??_C@_1M@OMLEIIJB@?$AAm?$AAi?$AA?9?$AAN?$AAZ@ 10005484     libcpmt:winapinls.obj
 0001:00004490       ??_C@_1M@PMPEAILG@?$AAa?$AAr?$AA?9?$AAI?$AAQ@ 10005490     libcpmt:winapinls.obj
 0001:0000449c       ??_C@_1M@BIBDDEMK@?$AAz?$AAh?$AA?9?$AAC?$AAN@ 1000549c     libcpmt:winapinls.obj
 0001:000044a8       ??_C@_1M@CNKPNOEE@?$AAd?$AAe?$AA?9?$AAC?$AAH@ 100054a8     libcpmt:winapinls.obj
 0001:000044b4       ??_C@_1M@LKMGMLKO@?$AAe?$AAn?$AA?9?$AAG?$AAB@ 100054b4     libcpmt:winapinls.obj
 0001:000044c0       ??_C@_1M@PGKJFFGL@?$AAe?$AAs?$AA?9?$AAM?$AAX@ 100054c0     libcpmt:winapinls.obj
 0001:000044cc       ??_C@_1M@DNNANBDC@?$AAf?$AAr?$AA?9?$AAB?$AAE@ 100054cc     libcpmt:winapinls.obj
 0001:000044d8       ??_C@_1M@HLGMDFHM@?$AAi?$AAt?$AA?9?$AAC?$AAH@ 100054d8     libcpmt:winapinls.obj
 0001:000044e4       ??_C@_1M@CLLBGJH@?$AAn?$AAl?$AA?9?$AAB?$AAE@ 100054e4     libcpmt:winapinls.obj
 0001:000044f0       ??_C@_1M@BODBOGLF@?$AAn?$AAn?$AA?9?$AAN?$AAO@ 100054f0     libcpmt:winapinls.obj
 0001:000044fc       ??_C@_1M@HFFAHKAD@?$AAp?$AAt?$AA?9?$AAP?$AAT@ 100054fc     libcpmt:winapinls.obj
 0001:00004508       ??_C@_1BG@LNOAKHIE@?$AAs?$AAr?$AA?9?$AAS?$AAP?$AA?9?$AAL?$AAa?$AAt?$AAn@ 10005508     libcpmt:winapinls.obj
 0001:00004520       ??_C@_1M@HBMHBGAK@?$AAs?$AAv?$AA?9?$AAF?$AAI@ 10005520     libcpmt:winapinls.obj
 0001:0000452c       ??_C@_1BG@DGCJGJBE@?$AAa?$AAz?$AA?9?$AAA?$AAZ?$AA?9?$AAC?$AAy?$AAr?$AAl@ 1000552c     libcpmt:winapinls.obj
 0001:00004544       ??_C@_1M@KEJDAAHB@?$AAs?$AAe?$AA?9?$AAS?$AAE@ 10005544     libcpmt:winapinls.obj
 0001:00004550       ??_C@_1M@HEIBJJAD@?$AAm?$AAs?$AA?9?$AAB?$AAN@ 10005550     libcpmt:winapinls.obj
 0001:0000455c       ??_C@_1BG@PBGJMCEM@?$AAu?$AAz?$AA?9?$AAU?$AAZ?$AA?9?$AAC?$AAy?$AAr?$AAl@ 1000555c     libcpmt:winapinls.obj
 0001:00004574       ??_C@_1O@LAOBCMDF@?$AAq?$AAu?$AAz?$AA?9?$AAE?$AAC@ 10005574     libcpmt:winapinls.obj
 0001:00004584       ??_C@_1M@POEEMAIO@?$AAa?$AAr?$AA?9?$AAE?$AAG@ 10005584     libcpmt:winapinls.obj
 0001:00004590       ??_C@_1M@EFAKDEDL@?$AAz?$AAh?$AA?9?$AAH?$AAK@ 10005590     libcpmt:winapinls.obj
 0001:0000459c       ??_C@_1M@HKKIJHGI@?$AAd?$AAe?$AA?9?$AAA?$AAT@ 1000559c     libcpmt:winapinls.obj
 0001:000045a8       ??_C@_1M@KBFBEHJF@?$AAe?$AAn?$AA?9?$AAA?$AAU@ 100055a8     libcpmt:winapinls.obj
 0001:000045b4       ??_C@_1M@MNPLFAAH@?$AAe?$AAs?$AA?9?$AAE?$AAS@ 100055b4     libcpmt:winapinls.obj
 0001:000045c0       ??_C@_1M@HJOOJFMA@?$AAf?$AAr?$AA?9?$AAC?$AAA@ 100055c0     libcpmt:winapinls.obj
 0001:000045cc       ??_C@_1BG@JPOFPNAB@?$AAs?$AAr?$AA?9?$AAS?$AAP?$AA?9?$AAC?$AAy?$AAr?$AAl@ 100055cc     libcpmt:winapinls.obj
 0001:000045e4       ??_C@_1M@LNFOCMOB@?$AAs?$AAe?$AA?9?$AAF?$AAI@ 100055e4     libcpmt:winapinls.obj
 0001:000045f0       ??_C@_1O@MGJBOAMB@?$AAq?$AAu?$AAz?$AA?9?$AAP?$AAE@ 100055f0     libcpmt:winapinls.obj
 0001:00004600       ??_C@_1M@GJINLBOK@?$AAa?$AAr?$AA?9?$AAL?$AAY@ 10005600     libcpmt:winapinls.obj
 0001:0000460c       ??_C@_1M@GGMNHJNL@?$AAz?$AAh?$AA?9?$AAS?$AAG@ 1000560c     libcpmt:winapinls.obj
 0001:00004618       ??_C@_1M@HOIKODND@?$AAd?$AAe?$AA?9?$AAL?$AAU@ 10005618     libcpmt:winapinls.obj
 0001:00004624       ??_C@_1M@DDOCCGFG@?$AAe?$AAn?$AA?9?$AAC?$AAA@ 10005624     libcpmt:winapinls.obj
 0001:00004630       ??_C@_1M@BNOEMJLF@?$AAe?$AAs?$AA?9?$AAG?$AAT@ 10005630     libcpmt:winapinls.obj
 0001:0000463c       ??_C@_1M@EOGNKEK@?$AAf?$AAr?$AA?9?$AAC?$AAH@ 1000563c     libcpmt:winapinls.obj
 0001:00004648       ??_C@_1M@FLIDJFHL@?$AAh?$AAr?$AA?9?$AAB?$AAA@ 10005648     libcpmt:winapinls.obj
 0001:00004654       ??_C@_1O@FMCELNAJ@?$AAs?$AAm?$AAj?$AA?9?$AAN?$AAO@ 10005654     libcpmt:winapinls.obj
 0001:00004664       ??_C@_1M@JHGLJMGJ@?$AAa?$AAr?$AA?9?$AAD?$AAZ@ 10005664     libcpmt:winapinls.obj
 0001:00004670       ??_C@_1M@JKKFDCNP@?$AAz?$AAh?$AA?9?$AAM?$AAO@ 10005670     libcpmt:winapinls.obj
 0001:0000467c       ??_C@_1M@GEEFALPE@?$AAd?$AAe?$AA?9?$AAL?$AAI@ 1000567c     libcpmt:winapinls.obj
 0001:00004688       ??_C@_1M@IGEOFBG@?$AAe?$AAn?$AA?9?$AAN?$AAZ@ 10005688     libcpmt:winapinls.obj
 0001:00004694       ??_C@_1M@KDBONEHP@?$AAe?$AAs?$AA?9?$AAC?$AAR@ 10005694     libcpmt:winapinls.obj
 0001:000046a0       ??_C@_1M@FHMDOHNN@?$AAf?$AAr?$AA?9?$AAL?$AAU@ 100056a0     libcpmt:winapinls.obj
 0001:000046ac       ??_C@_1BG@NFKKMAFG@?$AAb?$AAs?$AA?9?$AAB?$AAA?$AA?9?$AAL?$AAa?$AAt?$AAn@ 100056ac     libcpmt:winapinls.obj
 0001:000046c4       ??_C@_1O@IMNBEMCI@?$AAs?$AAm?$AAj?$AA?9?$AAS?$AAE@ 100056c4     libcpmt:winapinls.obj
 0001:000046d4       ??_C@_1M@DHHMBNDP@?$AAa?$AAr?$AA?9?$AAM?$AAA@ 100056d4     libcpmt:winapinls.obj
 0001:000046e0       ??_C@_1M@BNBLJCGH@?$AAe?$AAn?$AA?9?$AAI?$AAE@ 100056e0     libcpmt:winapinls.obj
 0001:000046ec       ??_C@_1M@GEPAFMDL@?$AAe?$AAs?$AA?9?$AAP?$AAA@ 100056ec     libcpmt:winapinls.obj
 0001:000046f8       ??_C@_1M@OJONDMDL@?$AAf?$AAr?$AA?9?$AAM?$AAC@ 100056f8     libcpmt:winapinls.obj
 0001:00004704       ??_C@_1BG@OBCNFJB@?$AAs?$AAr?$AA?9?$AAB?$AAA?$AA?9?$AAL?$AAa?$AAt?$AAn@ 10005704     libcpmt:winapinls.obj
 0001:0000471c       ??_C@_1O@KEMEEGPO@?$AAs?$AAm?$AAa?$AA?9?$AAN?$AAO@ 1000571c     libcpmt:winapinls.obj
 0001:0000472c       ??_C@_1M@ELMGFODK@?$AAa?$AAr?$AA?9?$AAT?$AAN@ 1000572c     libcpmt:winapinls.obj
 0001:00004738       ??_C@_1M@BHDLHFAF@?$AAe?$AAn?$AA?9?$AAZ?$AAA@ 10005738     libcpmt:winapinls.obj
 0001:00004744       ??_C@_1M@BMGIGLIF@?$AAe?$AAs?$AA?9?$AAD?$AAO@ 10005744     libcpmt:winapinls.obj
 0001:00004750       ??_C@_1BG@CMBHIPBE@?$AAs?$AAr?$AA?9?$AAB?$AAA?$AA?9?$AAC?$AAy?$AAr?$AAl@ 10005750     libcpmt:winapinls.obj
 0001:00004768       ??_C@_1O@HEDBLHNP@?$AAs?$AAm?$AAa?$AA?9?$AAS?$AAE@ 10005768     libcpmt:winapinls.obj
 0001:00004778       ??_C@_1M@DAGCADIM@?$AAa?$AAr?$AA?9?$AAO?$AAM@ 10005778     libcpmt:winapinls.obj
 0001:00004784       ??_C@_1M@FODLMICG@?$AAe?$AAn?$AA?9?$AAJ?$AAM@ 10005784     libcpmt:winapinls.obj
 0001:00004790       ??_C@_1M@DNMLCIHB@?$AAe?$AAs?$AA?9?$AAV?$AAE@ 10005790     libcpmt:winapinls.obj
 0001:0000479c       ??_C@_1O@EOKHMKJK@?$AAs?$AAm?$AAs?$AA?9?$AAF?$AAI@ 1000579c     libcpmt:winapinls.obj
 0001:000047ac       ??_C@_1M@CAFJMKOF@?$AAa?$AAr?$AA?9?$AAY?$AAE@ 100057ac     libcpmt:winapinls.obj
 0001:000047b8       ??_C@_1M@CBFHIJLI@?$AAe?$AAn?$AA?9?$AAC?$AAB@ 100057b8     libcpmt:winapinls.obj
 0001:000047c4       ??_C@_1M@BGNFLDN@?$AAe?$AAs?$AA?9?$AAC?$AAO@ 100057c4     libcpmt:winapinls.obj
 0001:000047d0       ??_C@_1O@JMPHMAMC@?$AAs?$AAm?$AAn?$AA?9?$AAF?$AAI@ 100057d0     libcpmt:winapinls.obj
 0001:000047e0       ??_C@_1M@JLANABKE@?$AAa?$AAr?$AA?9?$AAS?$AAY@ 100057e0     libcpmt:winapinls.obj
 0001:000047ec       ??_C@_1M@HPKGCFGN@?$AAe?$AAn?$AA?9?$AAB?$AAZ@ 100057ec     libcpmt:winapinls.obj
 0001:000047f8       ??_C@_1M@OLJCMLGM@?$AAe?$AAs?$AA?9?$AAP?$AAE@ 100057f8     libcpmt:winapinls.obj
 0001:00004804       ??_C@_1M@MKKGFKLE@?$AAa?$AAr?$AA?9?$AAJ?$AAO@ 10005804     libcpmt:winapinls.obj
 0001:00004810       ??_C@_1M@EKPGLDNI@?$AAe?$AAn?$AA?9?$AAT?$AAT@ 10005810     libcpmt:winapinls.obj
 0001:0000481c       ??_C@_1M@OONGHFHE@?$AAe?$AAs?$AA?9?$AAA?$AAR@ 1000581c     libcpmt:winapinls.obj
 0001:00004828       ??_C@_1M@OOJFGBHE@?$AAa?$AAr?$AA?9?$AAL?$AAB@ 10005828     libcpmt:winapinls.obj
 0001:00004834       ??_C@_1M@GCEJHNEG@?$AAe?$AAn?$AA?9?$AAZ?$AAW@ 10005834     libcpmt:winapinls.obj
 0001:00004840       ??_C@_1M@JNOCAHJI@?$AAe?$AAs?$AA?9?$AAE?$AAC@ 10005840     libcpmt:winapinls.obj
 0001:0000484c       ??_C@_1M@JEFHPGGB@?$AAa?$AAr?$AA?9?$AAK?$AAW@ 1000584c     libcpmt:winapinls.obj
 0001:00004858       ??_C@_1M@MLKIBJOJ@?$AAe?$AAn?$AA?9?$AAP?$AAH@ 10005858     libcpmt:winapinls.obj
 0001:00004864       ??_C@_1M@BDNIPEND@?$AAe?$AAs?$AA?9?$AAC?$AAL@ 10005864     libcpmt:winapinls.obj
 0001:00004870       ??_C@_1M@MPNMEKBD@?$AAa?$AAr?$AA?9?$AAA?$AAE@ 10005870     libcpmt:winapinls.obj
 0001:0000487c       ??_C@_1M@KBJALCPI@?$AAe?$AAs?$AA?9?$AAU?$AAY@ 1000587c     libcpmt:winapinls.obj
 0001:00004888       ??_C@_1M@LLCCOAGA@?$AAa?$AAr?$AA?9?$AAB?$AAH@ 10005888     libcpmt:winapinls.obj
 0001:00004894       ??_C@_1M@PBFNCDEL@?$AAe?$AAs?$AA?9?$AAP?$AAY@ 10005894     libcpmt:winapinls.obj
 0001:000048a0       ??_C@_1M@EDGINPNP@?$AAa?$AAr?$AA?9?$AAQ?$AAA@ 100058a0     libcpmt:winapinls.obj
 0001:000048ac       ??_C@_1M@MKDBIIJI@?$AAe?$AAs?$AA?9?$AAB?$AAO@ 100058ac     libcpmt:winapinls.obj
 0001:000048b8       ??_C@_1M@CPKKEBLD@?$AAe?$AAs?$AA?9?$AAS?$AAV@ 100058b8     libcpmt:winapinls.obj
 0001:000048c4       ??_C@_1M@NDBGMMJL@?$AAe?$AAs?$AA?9?$AAH?$AAN@ 100058c4     libcpmt:winapinls.obj
 0001:000048d0       ??_C@_1M@JIJIBHDP@?$AAe?$AAs?$AA?9?$AAN?$AAI@ 100058d0     libcpmt:winapinls.obj
 0001:000048dc       ??_C@_1M@CGFMKEEK@?$AAe?$AAs?$AA?9?$AAP?$AAR@ 100058dc     libcpmt:winapinls.obj
 0001:000048e8       ??_C@_1O@ICJHKIIK@?$AAz?$AAh?$AA?9?$AAC?$AAH?$AAT@ 100058e8     libcpmt:winapinls.obj
 0001:000048f8       ??_C@_15CLNEJCE@?$AAs?$AAr@ 100058f8     libcpmt:winapinls.obj
 0001:00004900       ??_C@_1M@KAHEKEIG@?$AAa?$AAf?$AA?9?$AAz?$AAa@ 10005900     libcpmt:winapinls.obj
 0001:0000490c       ??_C@_1M@GIECOABL@?$AAa?$AAr?$AA?9?$AAa?$AAe@ 1000590c     libcpmt:winapinls.obj
 0001:00004918       ??_C@_1M@BMLMEKGI@?$AAa?$AAr?$AA?9?$AAb?$AAh@ 10005918     libcpmt:winapinls.obj
 0001:00004924       ??_C@_1M@DAPFDGGB@?$AAa?$AAr?$AA?9?$AAd?$AAz@ 10005924     libcpmt:winapinls.obj
 0001:00004930       ??_C@_1M@FJNKGKIG@?$AAa?$AAr?$AA?9?$AAe?$AAg@ 10005930     libcpmt:winapinls.obj
 0001:0000493c       ??_C@_1M@FLGKKCLO@?$AAa?$AAr?$AA?9?$AAi?$AAq@ 1000593c     libcpmt:winapinls.obj
 0001:00004948       ??_C@_1M@GNDIPALM@?$AAa?$AAr?$AA?9?$AAj?$AAo@ 10005948     libcpmt:winapinls.obj
 0001:00004954       ??_C@_1M@DDMJFMGJ@?$AAa?$AAr?$AA?9?$AAk?$AAw@ 10005954     libcpmt:winapinls.obj
 0001:00004960       ??_C@_1M@EJALMLHM@?$AAa?$AAr?$AA?9?$AAl?$AAb@ 10005960     libcpmt:winapinls.obj
 0001:0000496c       ??_C@_1M@MOBDBLOC@?$AAa?$AAr?$AA?9?$AAl?$AAy@ 1000596c     libcpmt:winapinls.obj
 0001:00004978       ??_C@_1M@JAOCLHDH@?$AAa?$AAr?$AA?9?$AAm?$AAa@ 10005978     libcpmt:winapinls.obj
 0001:00004984       ??_C@_1M@JHPMKJIE@?$AAa?$AAr?$AA?9?$AAo?$AAm@ 10005984     libcpmt:winapinls.obj
 0001:00004990       ??_C@_1M@OEPGHFNH@?$AAa?$AAr?$AA?9?$AAq?$AAa@ 10005990     libcpmt:winapinls.obj
 0001:0000499c       ??_C@_1M@KJDONENM@?$AAa?$AAr?$AA?9?$AAs?$AAa@ 1000599c     libcpmt:winapinls.obj
 0001:000049a8       ??_C@_1M@DMJDKLKM@?$AAa?$AAr?$AA?9?$AAs?$AAy@ 100059a8     libcpmt:winapinls.obj
 0001:000049b4       ??_C@_1M@OMFIPEDC@?$AAa?$AAr?$AA?9?$AAt?$AAn@ 100059b4     libcpmt:winapinls.obj
 0001:000049c0       ??_C@_1M@IHMHGAON@?$AAa?$AAr?$AA?9?$AAy?$AAe@ 100059c0     libcpmt:winapinls.obj
 0001:000049cc       ??_C@_1BG@KDCPGJGB@?$AAa?$AAz?$AA?9?$AAa?$AAz?$AA?9?$AAc?$AAy?$AAr?$AAl@ 100059cc     libcpmt:winapinls.obj
 0001:000049e4       ??_C@_1BG@IBCKDDOE@?$AAa?$AAz?$AA?9?$AAa?$AAz?$AA?9?$AAl?$AAa?$AAt?$AAn@ 100059e4     libcpmt:winapinls.obj
 0001:000049fc       ??_C@_1M@EGPFDCPD@?$AAb?$AAe?$AA?9?$AAb?$AAy@ 100059fc     libcpmt:winapinls.obj
 0001:00004a08       ??_C@_1M@PCMGMCGC@?$AAb?$AAg?$AA?9?$AAb?$AAg@ 10005a08     libcpmt:winapinls.obj
 0001:00004a14       ??_C@_1M@BJBMFGOB@?$AAb?$AAn?$AA?9?$AAi?$AAn@ 10005a14     libcpmt:winapinls.obj
 0001:00004a20       ??_C@_1BG@EAKMMACD@?$AAb?$AAs?$AA?9?$AAb?$AAa?$AA?9?$AAl?$AAa?$AAt?$AAn@ 10005a20     libcpmt:winapinls.obj
 0001:00004a38       ??_C@_1M@KGADAODK@?$AAc?$AAa?$AA?9?$AAe?$AAs@ 10005a38     libcpmt:winapinls.obj
 0001:00004a44       ??_C@_1M@COAJPDHI@?$AAc?$AAs?$AA?9?$AAc?$AAz@ 10005a44     libcpmt:winapinls.obj
 0001:00004a50       ??_C@_1M@DHBHFONH@?$AAc?$AAy?$AA?9?$AAg?$AAb@ 10005a50     libcpmt:winapinls.obj
 0001:00004a5c       ??_C@_1M@IMGKELGA@?$AAd?$AAa?$AA?9?$AAd?$AAk@ 10005a5c     libcpmt:winapinls.obj
 0001:00004a68       ??_C@_1M@NNDGDNGA@?$AAd?$AAe?$AA?9?$AAa?$AAt@ 10005a68     libcpmt:winapinls.obj
 0001:00004a74       ??_C@_1M@IKDBHEEM@?$AAd?$AAe?$AA?9?$AAc?$AAh@ 10005a74     libcpmt:winapinls.obj
 0001:00004a80       ??_C@_1M@GFFOJMCJ@?$AAd?$AAe?$AA?9?$AAd?$AAe@ 10005a80     libcpmt:winapinls.obj
 0001:00004a8c       ??_C@_1M@MDNLKBPM@?$AAd?$AAe?$AA?9?$AAl?$AAi@ 10005a8c     libcpmt:winapinls.obj
 0001:00004a98       ??_C@_1M@NJBEEJNL@?$AAd?$AAe?$AA?9?$AAl?$AAu@ 10005a98     libcpmt:winapinls.obj
 0001:00004aa4       ??_C@_1O@GNNELBAP@?$AAd?$AAi?$AAv?$AA?9?$AAm?$AAv@ 10005aa4     libcpmt:winapinls.obj
 0001:00004ab4       ??_C@_1M@EJLEOGAE@?$AAe?$AAl?$AA?9?$AAg?$AAr@ 10005ab4     libcpmt:winapinls.obj
 0001:00004ac0       ??_C@_1M@GMPONJN@?$AAe?$AAn?$AA?9?$AAa?$AAu@ 10005ac0     libcpmt:winapinls.obj
 0001:00004acc       ??_C@_1M@NIDIIPGF@?$AAe?$AAn?$AA?9?$AAb?$AAz@ 10005acc     libcpmt:winapinls.obj
 0001:00004ad8       ??_C@_1M@JEHMIMFO@?$AAe?$AAn?$AA?9?$AAc?$AAa@ 10005ad8     libcpmt:winapinls.obj
 0001:00004ae4       ??_C@_1M@IGMJCDLA@?$AAe?$AAn?$AA?9?$AAc?$AAb@ 10005ae4     libcpmt:winapinls.obj
 0001:00004af0       ??_C@_1M@BNFIGBKG@?$AAe?$AAn?$AA?9?$AAg?$AAb@ 10005af0     libcpmt:winapinls.obj
 0001:00004afc       ??_C@_1M@LKIFDIGP@?$AAe?$AAn?$AA?9?$AAi?$AAe@ 10005afc     libcpmt:winapinls.obj
 0001:00004b08       ??_C@_1M@PJKFGCCO@?$AAe?$AAn?$AA?9?$AAj?$AAm@ 10005b08     libcpmt:winapinls.obj
 0001:00004b14       ??_C@_1M@KPPKEPBO@?$AAe?$AAn?$AA?9?$AAn?$AAz@ 10005b14     libcpmt:winapinls.obj
 0001:00004b20       ??_C@_1M@GMDGLDOB@?$AAe?$AAn?$AA?9?$AAp?$AAh@ 10005b20     libcpmt:winapinls.obj
 0001:00004b2c       ??_C@_1M@ONGIBJNA@?$AAe?$AAn?$AA?9?$AAt?$AAt@ 10005b2c     libcpmt:winapinls.obj
 0001:00004b38       ??_C@_1M@LLODPCMM@?$AAe?$AAn?$AA?9?$AAu?$AAs@ 10005b38     libcpmt:winapinls.obj
 0001:00004b44       ??_C@_1M@LAKFNPAN@?$AAe?$AAn?$AA?9?$AAz?$AAa@ 10005b44     libcpmt:winapinls.obj
 0001:00004b50       ??_C@_1M@MFNHNHEO@?$AAe?$AAn?$AA?9?$AAz?$AAw@ 10005b50     libcpmt:winapinls.obj
 0001:00004b5c       ??_C@_1M@EJEINPHM@?$AAe?$AAs?$AA?9?$AAa?$AAr@ 10005b5c     libcpmt:winapinls.obj
 0001:00004b68       ??_C@_1M@GNKPCCJA@?$AAe?$AAs?$AA?9?$AAb?$AAo@ 10005b68     libcpmt:winapinls.obj
 0001:00004b74       ??_C@_1M@LEEGFONL@?$AAe?$AAs?$AA?9?$AAc?$AAl@ 10005b74     libcpmt:winapinls.obj
 0001:00004b80       ??_C@_1M@KGPDPBDF@?$AAe?$AAs?$AA?9?$AAc?$AAo@ 10005b80     libcpmt:winapinls.obj
 0001:00004b8c       ??_C@_1M@EIAHOHH@?$AAe?$AAs?$AA?9?$AAc?$AAr@ 10005b8c     libcpmt:winapinls.obj
 0001:00004b98       ??_C@_1M@LLPGMBIN@?$AAe?$AAs?$AA?9?$AAd?$AAo@ 10005b98     libcpmt:winapinls.obj
 0001:00004ba4       ??_C@_1M@DKHMKNJA@?$AAe?$AAs?$AA?9?$AAe?$AAc@ 10005ba4     libcpmt:winapinls.obj
 0001:00004bb0       ??_C@_1M@GKGFPKAP@?$AAe?$AAs?$AA?9?$AAe?$AAs@ 10005bb0     libcpmt:winapinls.obj
 0001:00004bbc       ??_C@_1M@LKHKGDLN@?$AAe?$AAs?$AA?9?$AAg?$AAt@ 10005bbc     libcpmt:winapinls.obj
 0001:00004bc8       ??_C@_1M@HEIIGGJD@?$AAe?$AAs?$AA?9?$AAh?$AAn@ 10005bc8     libcpmt:winapinls.obj
 0001:00004bd4       ??_C@_1M@FBDHPPGD@?$AAe?$AAs?$AA?9?$AAm?$AAx@ 10005bd4     libcpmt:winapinls.obj
 0001:00004be0       ??_C@_1M@DPAGLNDH@?$AAe?$AAs?$AA?9?$AAn?$AAi@ 10005be0     libcpmt:winapinls.obj
 0001:00004bec       ??_C@_1M@MDGOPGDD@?$AAe?$AAs?$AA?9?$AAp?$AAa@ 10005bec     libcpmt:winapinls.obj
 0001:00004bf8       ??_C@_1M@EMAMGBGE@?$AAe?$AAs?$AA?9?$AAp?$AAe@ 10005bf8     libcpmt:winapinls.obj
 0001:00004c04       ??_C@_1M@IBMCAOEC@?$AAe?$AAs?$AA?9?$AAp?$AAr@ 10005c04     libcpmt:winapinls.obj
 0001:00004c10       ??_C@_1M@FGMDIJED@?$AAe?$AAs?$AA?9?$AAp?$AAy@ 10005c10     libcpmt:winapinls.obj
 0001:00004c1c       ??_C@_1M@IIDEOLLL@?$AAe?$AAs?$AA?9?$AAs?$AAv@ 10005c1c     libcpmt:winapinls.obj
 0001:00004c28       ??_C@_1M@GAOBIPA@?$AAe?$AAs?$AA?9?$AAu?$AAy@ 10005c28     libcpmt:winapinls.obj
 0001:00004c34       ??_C@_1M@JKFFICHJ@?$AAe?$AAs?$AA?9?$AAv?$AAe@ 10005c34     libcpmt:winapinls.obj
 0001:00004c40       ??_C@_1M@PNMLOJDF@?$AAe?$AAt?$AA?9?$AAe?$AAe@ 10005c40     libcpmt:winapinls.obj
 0001:00004c4c       ??_C@_1M@GHHLIKEI@?$AAe?$AAu?$AA?9?$AAe?$AAs@ 10005c4c     libcpmt:winapinls.obj
 0001:00004c58       ??_C@_1M@PBNONODE@?$AAf?$AAa?$AA?9?$AAi?$AAr@ 10005c58     libcpmt:winapinls.obj
 0001:00004c64       ??_C@_1M@JEEHPMIL@?$AAf?$AAi?$AA?9?$AAf?$AAi@ 10005c64     libcpmt:winapinls.obj
 0001:00004c70       ??_C@_1M@LMDCNDBA@?$AAf?$AAo?$AA?9?$AAf?$AAo@ 10005c70     libcpmt:winapinls.obj
 0001:00004c7c       ??_C@_1M@JKEOHLDK@?$AAf?$AAr?$AA?9?$AAb?$AAe@ 10005c7c     libcpmt:winapinls.obj
 0001:00004c88       ??_C@_1M@NOHADPMI@?$AAf?$AAr?$AA?9?$AAc?$AAa@ 10005c88     libcpmt:winapinls.obj
 0001:00004c94       ??_C@_1M@KDHIHAEC@?$AAf?$AAr?$AA?9?$AAc?$AAh@ 10005c94     libcpmt:winapinls.obj
 0001:00004ca0       ??_C@_1M@MMBBFGAK@?$AAf?$AAr?$AA?9?$AAf?$AAr@ 10005ca0     libcpmt:winapinls.obj
 0001:00004cac       ??_C@_1M@PAFNENNF@?$AAf?$AAr?$AA?9?$AAl?$AAu@ 10005cac     libcpmt:winapinls.obj
 0001:00004cb8       ??_C@_1M@EOHDJGDD@?$AAf?$AAr?$AA?9?$AAm?$AAc@ 10005cb8     libcpmt:winapinls.obj
 0001:00004cc4       ??_C@_1M@FAPLLOPF@?$AAg?$AAl?$AA?9?$AAe?$AAs@ 10005cc4     libcpmt:winapinls.obj
 0001:00004cd0       ??_C@_1M@FOPBFLOO@?$AAg?$AAu?$AA?9?$AAi?$AAn@ 10005cd0     libcpmt:winapinls.obj
 0001:00004cdc       ??_C@_1M@KBMCINPM@?$AAh?$AAe?$AA?9?$AAi?$AAl@ 10005cdc     libcpmt:winapinls.obj
 0001:00004ce8       ??_C@_1M@BBPHKFPJ@?$AAh?$AAi?$AA?9?$AAi?$AAn@ 10005ce8     libcpmt:winapinls.obj
 0001:00004cf4       ??_C@_1M@PMBNDPHD@?$AAh?$AAr?$AA?9?$AAb?$AAa@ 10005cf4     libcpmt:winapinls.obj
 0001:00004d00       ??_C@_1M@BPCKOEGE@?$AAh?$AAr?$AA?9?$AAh?$AAr@ 10005d00     libcpmt:winapinls.obj
 0001:00004d0c       ??_C@_1M@GACBMHKE@?$AAh?$AAu?$AA?9?$AAh?$AAu@ 10005d0c     libcpmt:winapinls.obj
 0001:00004d18       ??_C@_1M@MILPAJJC@?$AAh?$AAy?$AA?9?$AAa?$AAm@ 10005d18     libcpmt:winapinls.obj
 0001:00004d24       ??_C@_1M@BABBICEC@?$AAi?$AAd?$AA?9?$AAi?$AAd@ 10005d24     libcpmt:winapinls.obj
 0001:00004d30       ??_C@_1M@BIKNHHPF@?$AAi?$AAs?$AA?9?$AAi?$AAs@ 10005d30     libcpmt:winapinls.obj
 0001:00004d3c       ??_C@_1M@NMPCJPHE@?$AAi?$AAt?$AA?9?$AAc?$AAh@ 10005d3c     libcpmt:winapinls.obj
 0001:00004d48       ??_C@_1M@GHKGFEDF@?$AAi?$AAt?$AA?9?$AAi?$AAt@ 10005d48     libcpmt:winapinls.obj
 0001:00004d54       ??_C@_1M@NIEJCJJA@?$AAj?$AAa?$AA?9?$AAj?$AAp@ 10005d54     libcpmt:winapinls.obj
 0001:00004d60       ??_C@_1M@JILFNBIM@?$AAk?$AAa?$AA?9?$AAg?$AAe@ 10005d60     libcpmt:winapinls.obj
 0001:00004d6c       ??_C@_1M@PACPMGPH@?$AAk?$AAk?$AA?9?$AAk?$AAz@ 10005d6c     libcpmt:winapinls.obj
 0001:00004d78       ??_C@_1M@IELFGMHA@?$AAk?$AAn?$AA?9?$AAi?$AAn@ 10005d78     libcpmt:winapinls.obj
 0001:00004d84       ??_C@_1M@DMHAEOGC@?$AAk?$AAo?$AA?9?$AAk?$AAr@ 10005d84     libcpmt:winapinls.obj
 0001:00004d90       ??_C@_1O@IBBJHCH@?$AAk?$AAo?$AAk?$AA?9?$AAi?$AAn@ 10005d90     libcpmt:winapinls.obj
 0001:00004da0       ??_C@_1M@HBAHBIGA@?$AAk?$AAy?$AA?9?$AAk?$AAg@ 10005da0     libcpmt:winapinls.obj
 0001:00004dac       ??_C@_1M@KPMILCJG@?$AAl?$AAt?$AA?9?$AAl?$AAt@ 10005dac     libcpmt:winapinls.obj
 0001:00004db8       ??_C@_1M@BDEKKCA@?$AAl?$AAv?$AA?9?$AAl?$AAv@ 10005db8     libcpmt:winapinls.obj
 0001:00004dc4       ??_C@_1M@ELCKCCJJ@?$AAm?$AAi?$AA?9?$AAn?$AAz@ 10005dc4     libcpmt:winapinls.obj
 0001:00004dd0       ??_C@_1M@CBOOLAPA@?$AAm?$AAk?$AA?9?$AAm?$AAk@ 10005dd0     libcpmt:winapinls.obj
 0001:00004ddc       ??_C@_1M@GPHNBJKN@?$AAm?$AAl?$AA?9?$AAi?$AAn@ 10005ddc     libcpmt:winapinls.obj
 0001:00004de8       ??_C@_1M@PABJILIG@?$AAm?$AAn?$AA?9?$AAm?$AAn@ 10005de8     libcpmt:winapinls.obj
 0001:00004df4       ??_C@_1M@FGBKKIPG@?$AAm?$AAr?$AA?9?$AAi?$AAn@ 10005df4     libcpmt:winapinls.obj
 0001:00004e00       ??_C@_1M@NDBPDDAL@?$AAm?$AAs?$AA?9?$AAb?$AAn@ 10005e00     libcpmt:winapinls.obj
 0001:00004e0c       ??_C@_1M@OPIHOOPI@?$AAm?$AAs?$AA?9?$AAm?$AAy@ 10005e0c     libcpmt:winapinls.obj
 0001:00004e18       ??_C@_1M@PPDBCNFM@?$AAm?$AAt?$AA?9?$AAm?$AAt@ 10005e18     libcpmt:winapinls.obj
 0001:00004e24       ??_C@_1M@KDJDKMDD@?$AAn?$AAb?$AA?9?$AAn?$AAo@ 10005e24     libcpmt:winapinls.obj
 0001:00004e30       ??_C@_1M@KFCFLMJP@?$AAn?$AAl?$AA?9?$AAb?$AAe@ 10005e30     libcpmt:winapinls.obj
 0001:00004e3c       ??_C@_1M@KPOPDDGO@?$AAn?$AAl?$AA?9?$AAn?$AAl@ 10005e3c     libcpmt:winapinls.obj
 0001:00004e48       ??_C@_1M@LJKPEMLN@?$AAn?$AAn?$AA?9?$AAn?$AAo@ 10005e48     libcpmt:winapinls.obj
 0001:00004e54       ??_C@_1M@BDGHHBFL@?$AAn?$AAs?$AA?9?$AAz?$AAa@ 10005e54     libcpmt:winapinls.obj
 0001:00004e60       ??_C@_1M@IDEHOAP@?$AAp?$AAa?$AA?9?$AAi?$AAn@ 10005e60     libcpmt:winapinls.obj
 0001:00004e6c       ??_C@_1M@HDBKGOGH@?$AAp?$AAl?$AA?9?$AAp?$AAl@ 10005e6c     libcpmt:winapinls.obj
 0001:00004e78       ??_C@_1M@LJLLCMEH@?$AAp?$AAt?$AA?9?$AAb?$AAr@ 10005e78     libcpmt:winapinls.obj
 0001:00004e84       ??_C@_1M@NCMONAAL@?$AAp?$AAt?$AA?9?$AAp?$AAt@ 10005e84     libcpmt:winapinls.obj
 0001:00004e90       ??_C@_1O@EAKMAJDN@?$AAq?$AAu?$AAz?$AA?9?$AAb?$AAo@ 10005e90     libcpmt:winapinls.obj
 0001:00004ea0       ??_C@_1O@BHHPIGDN@?$AAq?$AAu?$AAz?$AA?9?$AAe?$AAc@ 10005ea0     libcpmt:winapinls.obj
 0001:00004eb0       ??_C@_1O@GBAPEKMJ@?$AAq?$AAu?$AAz?$AA?9?$AAp?$AAe@ 10005eb0     libcpmt:winapinls.obj
 0001:00004ec0       ??_C@_1M@CLGLEFBO@?$AAr?$AAo?$AA?9?$AAr?$AAo@ 10005ec0     libcpmt:winapinls.obj
 0001:00004ecc       ??_C@_1M@CEEDODME@?$AAr?$AAu?$AA?9?$AAr?$AAu@ 10005ecc     libcpmt:winapinls.obj
 0001:00004ed8       ??_C@_1M@HPKKKMPP@?$AAs?$AAa?$AA?9?$AAi?$AAn@ 10005ed8     libcpmt:winapinls.obj
 0001:00004ee4       ??_C@_1M@BKMAIGOJ@?$AAs?$AAe?$AA?9?$AAf?$AAi@ 10005ee4     libcpmt:winapinls.obj
 0001:00004ef0       ??_C@_1M@NDPIFLFI@?$AAs?$AAe?$AA?9?$AAn?$AAo@ 10005ef0     libcpmt:winapinls.obj
 0001:00004efc       ??_C@_1M@DANKKHJ@?$AAs?$AAe?$AA?9?$AAs?$AAe@ 10005efc     libcpmt:winapinls.obj
 0001:00004f08       ??_C@_1M@PNBLONPJ@?$AAs?$AAk?$AA?9?$AAs?$AAk@ 10005f08     libcpmt:winapinls.obj
 0001:00004f14       ??_C@_1M@LFMODOAL@?$AAs?$AAl?$AA?9?$AAs?$AAi@ 10005f14     libcpmt:winapinls.obj
 0001:00004f20       ??_C@_1O@DFKOMPG@?$AAs?$AAm?$AAa?$AA?9?$AAn?$AAo@ 10005f20     libcpmt:winapinls.obj
 0001:00004f30       ??_C@_1O@NDKPBNNH@?$AAs?$AAm?$AAa?$AA?9?$AAs?$AAe@ 10005f30     libcpmt:winapinls.obj
 0001:00004f40       ??_C@_1O@PLLKBHAB@?$AAs?$AAm?$AAj?$AA?9?$AAn?$AAo@ 10005f40     libcpmt:winapinls.obj
 0001:00004f50       ??_C@_1O@CLEPOGCA@?$AAs?$AAm?$AAj?$AA?9?$AAs?$AAe@ 10005f50     libcpmt:winapinls.obj
 0001:00004f60       ??_C@_1O@DLGJGKMK@?$AAs?$AAm?$AAn?$AA?9?$AAf?$AAi@ 10005f60     libcpmt:winapinls.obj
 0001:00004f70       ??_C@_1O@OJDJGAJC@?$AAs?$AAm?$AAs?$AA?9?$AAf?$AAi@ 10005f70     libcpmt:winapinls.obj
 0001:00004f80       ??_C@_1M@BOFOGHPB@?$AAs?$AAq?$AA?9?$AAa?$AAl@ 10005f80     libcpmt:winapinls.obj
 0001:00004f8c       ??_C@_1BG@LJBBIPGB@?$AAs?$AAr?$AA?9?$AAb?$AAa?$AA?9?$AAc?$AAy?$AAr?$AAl@ 10005f8c     libcpmt:winapinls.obj
 0001:00004fa4       ??_C@_1BG@JLBENFOE@?$AAs?$AAr?$AA?9?$AAb?$AAa?$AA?9?$AAl?$AAa?$AAt?$AAn@ 10005fa4     libcpmt:winapinls.obj
 0001:00004fbc       ??_C@_1BG@KODPNHE@?$AAs?$AAr?$AA?9?$AAs?$AAp?$AA?9?$AAc?$AAy?$AAr?$AAl@ 10005fbc     libcpmt:winapinls.obj
 0001:00004fd4       ??_C@_1BG@CIOGKHPB@?$AAs?$AAr?$AA?9?$AAs?$AAp?$AA?9?$AAl?$AAa?$AAt?$AAn@ 10005fd4     libcpmt:winapinls.obj
 0001:00004fec       ??_C@_1M@NGFJLMAC@?$AAs?$AAv?$AA?9?$AAf?$AAi@ 10005fec     libcpmt:winapinls.obj
 0001:00004ff8       ??_C@_1M@MPJEJAJC@?$AAs?$AAv?$AA?9?$AAs?$AAe@ 10005ff8     libcpmt:winapinls.obj
 0001:00005004       ??_C@_1M@MPNDHLFK@?$AAs?$AAw?$AA?9?$AAk?$AAe@ 10006004     libcpmt:winapinls.obj
 0001:00005010       ??_C@_1O@KOHBJJI@?$AAs?$AAy?$AAr?$AA?9?$AAs?$AAy@ 10006010     libcpmt:winapinls.obj
 0001:00005020       ??_C@_1M@LDCEFHA@?$AAt?$AAa?$AA?9?$AAi?$AAn@ 10006020     libcpmt:winapinls.obj
 0001:0000502c       ??_C@_1M@CNJOFAK@?$AAt?$AAe?$AA?9?$AAi?$AAn@ 1000602c     libcpmt:winapinls.obj
 0001:00005038       ??_C@_1M@GNAECACD@?$AAt?$AAh?$AA?9?$AAt?$AAh@ 10006038     libcpmt:winapinls.obj
 0001:00005044       ??_C@_1M@CHBIHOJO@?$AAt?$AAn?$AA?9?$AAz?$AAa@ 10006044     libcpmt:winapinls.obj
 0001:00005050       ??_C@_1M@GCCMIGPJ@?$AAt?$AAr?$AA?9?$AAt?$AAr@ 10006050     libcpmt:winapinls.obj
 0001:0000505c       ??_C@_1M@CELMCNBK@?$AAt?$AAt?$AA?9?$AAr?$AAu@ 1000605c     libcpmt:winapinls.obj
 0001:00005068       ??_C@_1M@KLMCELGA@?$AAu?$AAk?$AA?9?$AAu?$AAa@ 10006068     libcpmt:winapinls.obj
 0001:00005074       ??_C@_1M@EPAJJAJF@?$AAu?$AAr?$AA?9?$AAp?$AAk@ 10006074     libcpmt:winapinls.obj
 0001:00005080       ??_C@_1BG@GEGPMCDJ@?$AAu?$AAz?$AA?9?$AAu?$AAz?$AA?9?$AAc?$AAy?$AAr?$AAl@ 10006080     libcpmt:winapinls.obj
 0001:00005098       ??_C@_1BG@EGGKJILM@?$AAu?$AAz?$AA?9?$AAu?$AAz?$AA?9?$AAl?$AAa?$AAt?$AAn@ 10006098     libcpmt:winapinls.obj
 0001:000050b0       ??_C@_1M@GFOCLFF@?$AAv?$AAi?$AA?9?$AAv?$AAn@ 100060b0     libcpmt:winapinls.obj
 0001:000050bc       ??_C@_1M@CPAMEDFI@?$AAx?$AAh?$AA?9?$AAz?$AAa@ 100060bc     libcpmt:winapinls.obj
 0001:000050c8       ??_C@_1O@EBKIFIGN@?$AAz?$AAh?$AA?9?$AAc?$AAh?$AAs@ 100060c8     libcpmt:winapinls.obj
 0001:000050d8       ??_C@_1O@NMHPGANE@?$AAz?$AAh?$AA?9?$AAc?$AAh?$AAt@ 100060d8     libcpmt:winapinls.obj
 0001:000050e8       ??_C@_1M@LPINJOMC@?$AAz?$AAh?$AA?9?$AAc?$AAn@ 100060e8     libcpmt:winapinls.obj
 0001:000050f4       ??_C@_1M@OCJEJODD@?$AAz?$AAh?$AA?9?$AAh?$AAk@ 100060f4     libcpmt:winapinls.obj
 0001:00005100       ??_C@_1M@DNDLJINH@?$AAz?$AAh?$AA?9?$AAm?$AAo@ 10006100     libcpmt:winapinls.obj
 0001:0000510c       ??_C@_1M@MBFDNDND@?$AAz?$AAh?$AA?9?$AAs?$AAg@ 1000610c     libcpmt:winapinls.obj
 0001:00005118       ??_C@_1M@IMEPLEPE@?$AAz?$AAh?$AA?9?$AAt?$AAw@ 10006118     libcpmt:winapinls.obj
 0001:00005124       ??_C@_1M@BBGHNHJP@?$AAz?$AAu?$AA?9?$AAz?$AAa@ 10006124     libcpmt:winapinls.obj
 0001:00005134       ??_7type_info@@6B@         10006134     LIBCMT:std_type_info_static.obj
 0001:0000514c       __pDefaultRawDllMain       1000614c     LIBCMT:dll_dllmain.obj
 0001:0000514c       __pRawDllMain              1000614c     LIBCMT:dll_dllmain.obj
 0001:00005158       __pDestructExceptionObject 10006158     libvcruntime:ehhelpers.obj
 0001:00005160       ??_7bad_exception@std@@6B@ 10006160     libvcruntime:frame.obj
 0001:00005168       ??_C@_0O@DPKOEFFH@bad?5exception@ 10006168     libvcruntime:frame.obj
 0001:000054f8       ??_C@_08EHJDFFNH@__based?$CI@ 100064f8     libvcruntime:undname.obj
 0001:00005504       ??_C@_07KOLFKCDI@__cdecl@  10006504     libvcruntime:undname.obj
 0001:0000550c       ??_C@_08GHMPAG@__pascal@   1000650c     libvcruntime:undname.obj
 0001:00005518       ??_C@_09IFJBGAPI@__stdcall@ 10006518     libvcruntime:undname.obj
 0001:00005524       ??_C@_0L@NPHFGOKO@__thiscall@ 10006524     libvcruntime:undname.obj
 0001:00005530       ??_C@_0L@JMKHOMEK@__fastcall@ 10006530     libvcruntime:undname.obj
 0001:0000553c       ??_C@_0N@BCKKPABJ@__vectorcall@ 1000653c     libvcruntime:undname.obj
 0001:0000554c       ??_C@_09HIJEGCPM@__clrcall@ 1000654c     libvcruntime:undname.obj
 0001:00005558       ??_C@_06GHPCKEAG@__eabi@   10006558     libvcruntime:undname.obj
 0001:00005560       ??_C@_09IOPIDJLG@__swift_1@ 10006560     libvcruntime:undname.obj
 0001:0000556c       ??_C@_09KFNFGKHF@__swift_2@ 1000656c     libvcruntime:undname.obj
 0001:00005578       ??_C@_07JOMMBBKO@__ptr64@  10006578     libvcruntime:undname.obj
 0001:00005580       ??_C@_0L@PILCLIHE@__restrict@ 10006580     libvcruntime:undname.obj
 0001:0000558c       ??_C@_0M@GFIIJFMG@__unaligned@ 1000658c     libvcruntime:undname.obj
 0001:00005598       ??_C@_09DHDLOLLB@restrict?$CI@ 10006598     libvcruntime:undname.obj
 0001:000055a4       ??_C@_04NIHEBCM@?5new@     100065a4     libvcruntime:undname.obj
 0001:000055ac       ??_C@_07FPCDHGMM@?5delete@ 100065ac     libvcruntime:undname.obj
 0001:000055b4       ??_C@_01NEMOKFLO@?$DN@     100065b4     libvcruntime:undname.obj
 0001:000055b8       ??_C@_02GPIOPFAK@?$DO?$DO@ 100065b8     libvcruntime:undname.obj
 0001:000055bc       ??_C@_02FODMEDOG@?$DM?$DM@ 100065bc     libvcruntime:undname.obj
 0001:000055c0       ??_C@_01DCLJPIOD@?$CB@     100065c0     libvcruntime:undname.obj
 0001:000055c4       ??_C@_02EGOFBIJA@?$DN?$DN@ 100065c4     libvcruntime:undname.obj
 0001:000055c8       ??_C@_02FDNJECIE@?$CB?$DN@ 100065c8     libvcruntime:undname.obj
 0001:000055cc       ??_C@_02GPECMEKF@?$FL?$FN@ 100065cc     libvcruntime:undname.obj
 0001:000055d0       ??_C@_08LHJFAFGD@operator@ 100065d0     libvcruntime:undname.obj
 0001:000055dc       ??_C@_02HBOOOICD@?9?$DO@   100065dc     libvcruntime:undname.obj
 0001:000055e0       ??_C@_02ECNGHCIF@?$CL?$CL@ 100065e0     libvcruntime:undname.obj
 0001:000055e4       ??_C@_02BAABKJLB@?9?9@     100065e4     libvcruntime:undname.obj
 0001:000055e8       ??_C@_01MIFGBAGJ@?$CL@     100065e8     libvcruntime:undname.obj
 0001:000055ec       ??_C@_01HNPIGOCE@?$CG@     100065ec     libvcruntime:undname.obj
 0001:000055f0       ??_C@_03MNHNFDLC@?9?$DO?$CK@ 100065f0     libvcruntime:undname.obj
 0001:000055f4       ??_C@_01KMDKNFGN@?1@       100065f4     libvcruntime:undname.obj
 0001:000055f8       ??_C@_01FGNFDNOH@?$CF@     100065f8     libvcruntime:undname.obj
 0001:000055fc       ??_C@_01MNNFJEPP@?$DM@     100065fc     libvcruntime:undname.obj
 0001:00005600       ??_C@_02EHCHHCKH@?$DM?$DN@ 10006600     libvcruntime:undname.obj
 0001:00005604       ??_C@_01PPODPGHN@?$DO@     10006604     libvcruntime:undname.obj
 0001:00005608       ??_C@_02EEKDKGMJ@?$DO?$DN@ 10006608     libvcruntime:undname.obj
 0001:0000560c       ??_C@_01IHBHIGKO@?0@       1000660c     libvcruntime:undname.obj
 0001:00005610       ??_C@_02HCKGKOFO@?$CI?$CJ@ 10006610     libvcruntime:undname.obj
 0001:00005614       ??_C@_01PJKLJHI@?$HO@      10006614     libvcruntime:undname.obj
 0001:00005618       ??_C@_01JKBOJNNK@?$FO@     10006618     libvcruntime:undname.obj
 0001:0000561c       ??_C@_01DNKMNLPK@?$HM@     1000661c     libvcruntime:undname.obj
 0001:00005620       ??_C@_02PPKAJPJL@?$CG?$CG@ 10006620     libvcruntime:undname.obj
 0001:00005624       ??_C@_02NONPIBCD@?$HM?$HM@ 10006624     libvcruntime:undname.obj
 0001:00005628       ??_C@_02FPIMKNGF@?$CK?$DN@ 10006628     libvcruntime:undname.obj
 0001:0000562c       ??_C@_02FOEOMHFC@?$CL?$DN@ 1000662c     libvcruntime:undname.obj
 0001:00005630       ??_C@_02FKMDLLOA@?9?$DN@   10006630     libvcruntime:undname.obj
 0001:00005634       ??_C@_02FJEHGPIO@?1?$DN@   10006634     libvcruntime:undname.obj
 0001:00005638       ??_C@_02FENAOKFI@?$CF?$DN@ 10006638     libvcruntime:undname.obj
 0001:0000563c       ??_C@_03IKFCCPFF@?$DO?$DO?$DN@ 1000663c     libvcruntime:undname.obj
 0001:00005640       ??_C@_03CDNPDDLA@?$DM?$DM?$DN@ 10006640     libvcruntime:undname.obj
 0001:00005644       ??_C@_02FGJGFEAB@?$CG?$DN@ 10006644     libvcruntime:undname.obj
 0001:00005648       ??_C@_02DHLNPPGH@?$HM?$DN@ 10006648     libvcruntime:undname.obj
 0001:0000564c       ??_C@_02MHEGNOJ@?$FO?$DN@  1000664c     libvcruntime:undname.obj
 0001:00005650       ??_C@_09IFPLHPGF@?$GAvftable?8@ 10006650     libvcruntime:undname.obj
 0001:0000565c       ??_C@_09BLBHBJP@?$GAvbtable?8@ 1000665c     libvcruntime:undname.obj
 0001:00005668       ??_C@_07FEEIOKP@?$GAvcall?8@ 10006668     libvcruntime:undname.obj
 0001:00005670       ??_C@_08LLFFHHDJ@?$GAtypeof?8@ 10006670     libvcruntime:undname.obj
 0001:0000567c       ??_C@_0BF@KDPPACIK@?$GAlocal?5static?5guard?8@ 1000667c     libvcruntime:undname.obj
 0001:00005694       ??_C@_08OBABFOLI@?$GAstring?8@ 10006694     libvcruntime:undname.obj
 0001:000056a0       ??_C@_0BD@JDLKDPAB@?$GAvbase?5destructor?8@ 100066a0     libvcruntime:undname.obj
 0001:000056b4       ??_C@_0BN@DEGPLNFK@?$GAvector?5deleting?5destructor?8@ 100066b4     libvcruntime:undname.obj
 0001:000056d4       ??_C@_0BO@OBMKPJIG@?$GAdefault?5constructor?5closure?8@ 100066d4     libvcruntime:undname.obj
 0001:000056f4       ??_C@_0BN@IMDCHIKM@?$GAscalar?5deleting?5destructor?8@ 100066f4     libvcruntime:undname.obj
 0001:00005714       ??_C@_0BO@PFGOCPJJ@?$GAvector?5constructor?5iterator?8@ 10006714     libvcruntime:undname.obj
 0001:00005734       ??_C@_0BN@LFPFMEDL@?$GAvector?5destructor?5iterator?8@ 10006734     libvcruntime:undname.obj
 0001:00005754       ??_C@_0CE@IKBNEHA@?$GAvector?5vbase?5constructor?5itera@ 10006754     libvcruntime:undname.obj
 0001:00005778       ??_C@_0BL@NILFHHPC@?$GAvirtual?5displacement?5map?8@ 10006778     libvcruntime:undname.obj
 0001:00005794       ??_C@_0CB@JONCMFFK@?$GAeh?5vector?5constructor?5iterator@ 10006794     libvcruntime:undname.obj
 0001:000057b8       ??_C@_0CA@GCEOPDGL@?$GAeh?5vector?5destructor?5iterator?8@ 100067b8     libvcruntime:undname.obj
 0001:000057d8       ??_C@_0CH@OOJPLCPH@?$GAeh?5vector?5vbase?5constructor?5it@ 100067d8     libvcruntime:undname.obj
 0001:00005800       ??_C@_0BL@LLKPOHJI@?$GAcopy?5constructor?5closure?8@ 10006800     libvcruntime:undname.obj
 0001:0000581c       ??_C@_0BA@KBCDOMBN@?$GAudt?5returning?8@ 1000681c     libvcruntime:undname.obj
 0001:0000582c       ??_C@_03KLGMFNMG@?$GAEH@   1000682c     libvcruntime:undname.obj
 0001:00005830       ??_C@_05KHLCHHI@?$GARTTI@  10006830     libvcruntime:undname.obj
 0001:00005838       ??_C@_0BA@KKLDJDLB@?$GAlocal?5vftable?8@ 10006838     libvcruntime:undname.obj
 0001:00005848       ??_C@_0CE@IIHCMGGL@?$GAlocal?5vftable?5constructor?5clos@ 10006848     libvcruntime:undname.obj
 0001:0000586c       ??_C@_06FHBGPFGH@?5new?$FL?$FN@ 1000686c     libvcruntime:undname.obj
 0001:00005874       ??_C@_09LBNFPBCA@?5delete?$FL?$FN@ 10006874     libvcruntime:undname.obj
 0001:00005880       ??_C@_0P@HJKNJFNN@?$GAomni?5callsig?8@ 10006880     libvcruntime:undname.obj
 0001:00005890       ??_C@_0BL@CNOONJFP@?$GAplacement?5delete?5closure?8@ 10006890     libvcruntime:undname.obj
 0001:000058ac       ??_C@_0BN@CKNJLHMB@?$GAplacement?5delete?$FL?$FN?5closure?8@ 100068ac     libvcruntime:undname.obj
 0001:000058cc       ??_C@_0CG@CFDHKGGD@?$GAmanaged?5vector?5constructor?5ite@ 100068cc     libvcruntime:undname.obj
 0001:000058f4       ??_C@_0CF@IMGKMJNO@?$GAmanaged?5vector?5destructor?5iter@ 100068f4     libvcruntime:undname.obj
 0001:0000591c       ??_C@_0CG@HLDDJMAG@?$GAeh?5vector?5copy?5constructor?5ite@ 1000691c     libvcruntime:undname.obj
 0001:00005944       ??_C@_0CM@FCBBDIGB@?$GAeh?5vector?5vbase?5copy?5construct@ 10006944     libvcruntime:undname.obj
 0001:00005970       ??_C@_0BL@CLIPGLGB@?$GAdynamic?5initializer?5for?5?8@ 10006970     libvcruntime:undname.obj
 0001:0000598c       ??_C@_0CB@PDBIFEP@?$GAdynamic?5atexit?5destructor?5for?5@ 1000698c     libvcruntime:undname.obj
 0001:000059b0       ??_C@_0CD@CGAJBKEJ@?$GAvector?5copy?5constructor?5iterat@ 100069b0     libvcruntime:undname.obj
 0001:000059d4       ??_C@_0CJ@GJELGAMM@?$GAvector?5vbase?5copy?5constructor?5@ 100069d4     libvcruntime:undname.obj
 0001:00005a00       ??_C@_0CL@FGIJHLCE@?$GAmanaged?5vector?5copy?5constructo@ 10006a00     libvcruntime:undname.obj
 0001:00005a2c       ??_C@_0BM@PMGGMLDN@?$GAlocal?5static?5thread?5guard?8@ 10006a2c     libvcruntime:undname.obj
 0001:00005a48       ??_C@_0N@BDNMDMOL@operator?5?$CC?$CC?5@ 10006a48     libvcruntime:undname.obj
 0001:00005a58       ??_C@_0BC@GGEBGALA@operator?5co_await@ 10006a58     libvcruntime:undname.obj
 0001:00005a6c       ??_C@_0M@GAAIMMOH@operator?$DM?$DN?$DO@ 10006a6c     libvcruntime:undname.obj
 0001:00005a78       ??_C@_0BC@DAFEJGAK@?5Type?5Descriptor?8@ 10006a78     libvcruntime:undname.obj
 0001:00005a8c       ??_C@_0BM@LDKODKLH@?5Base?5Class?5Descriptor?5at?5?$CI@ 10006a8c     libvcruntime:undname.obj
 0001:00005aa8       ??_C@_0BD@LGICGFMM@?5Base?5Class?5Array?8@ 10006aa8     libvcruntime:undname.obj
 0001:00005abc       ??_C@_0BN@MECKDCOJ@?5Class?5Hierarchy?5Descriptor?8@ 10006abc     libvcruntime:undname.obj
 0001:00005adc       ??_C@_0BK@CFCOFLF@?5Complete?5Object?5Locator?8@ 10006adc     libvcruntime:undname.obj
 0001:00005af8       ??_C@_0BG@JNJLAMPM@?$GAanonymous?5namespace?8@ 10006af8     libvcruntime:undname.obj
 0001:00005b1c       ??_C@_1DM@KHCHBNEB@?$AAa?$AAp?$AAi?$AA?9?$AAm?$AAs?$AA?9?$AAw?$AAi?$AAn?$AA?9?$AAc?$AAo?$AAr?$AAe@ 10006b1c     libvcruntime:winapi_downlevel.obj
 0001:00005b58       ??_C@_1DK@LPPGFMPP@?$AAa?$AAp?$AAi?$AA?9?$AAm?$AAs?$AA?9?$AAw?$AAi?$AAn?$AA?9?$AAc?$AAo?$AAr?$AAe@ 10006b58     libvcruntime:winapi_downlevel.obj
 0001:00005b94       ??_C@_1BA@PFFKHIOG@?$AAa?$AAp?$AAi?$AA?9?$AAm?$AAs?$AA?9@ 10006b94     libvcruntime:winapi_downlevel.obj
 0001:00005d38       _format_validation_lookup_table 10006d38     libucrt:output.obj
 0001:00005d94       ??_C@_1O@CEDCILHN@?$AA?$CI?$AAn?$AAu?$AAl?$AAl?$AA?$CJ@ 10006d94     libucrt:output.obj
 0001:00005da4       ??_C@_06OJHGLDPL@?$CInull?$CJ@ 10006da4     libucrt:output.obj
 0001:00005db0       __real@3e54ae0bf85ddf44    10006db0     libucrt:log2d.obj
 0001:00005db8       __real@3e5526e50e32a6ab    10006db8     libucrt:log2d.obj
 0001:00005dc0       __real@3e7427de7fbcc47c    10006dc0     libucrt:log2d.obj
 0001:00005dc8       __real@3e7f7d1cf79abc9e    10006dc8     libucrt:log2d.obj
 0001:00005dd0       __real@3fc2f8d8bf29def7    10006dd0     libucrt:log2d.obj
 0001:00005dd8       __real@3fc3991accfeb3f4    10006dd8     libucrt:log2d.obj
 0001:00005de0       __real@3fc7466fd968cb62    10006de0     libucrt:log2d.obj
 0001:00005de8       __real@3fcc71c4da12c9c6    10006de8     libucrt:log2d.obj
 0001:00005df0       __real@3fd24924948ae94a    10006df0     libucrt:log2d.obj
 0001:00005df8       __real@3fd3441300000000    10006df8     libucrt:log2d.obj
 0001:00005e00       __real@3fd9999999975ff7    10006e00     libucrt:log2d.obj
 0001:00005e08       __real@3fdbcb7b00000000    10006e08     libucrt:log2d.obj
 0001:00005e10       __real@3fdbcb7b1526e50e    10006e10     libucrt:log2d.obj
 0001:00005e18       __real@3fe55555555555bc    10006e18     libucrt:log2d.obj
 0001:00005e20       __real@3fe62e42c0000000    10006e20     libucrt:log2d.obj
 0001:00005e28       __real@3fe6a09e667f3bcd    10006e28     libucrt:log2d.obj
 0001:00005e30       __real@3ff0000000000000    10006e30     libucrt:log2d.obj
 0001:00005e38       __real@3ff7154760000000    10006e38     libucrt:log2d.obj
 0001:00005e40       __real@3ff71547652b82fe    10006e40     libucrt:log2d.obj
 0001:00005ea4       __half                     10006ea4     libucrt:pow_impl.obj
 0001:00005ef8       ___newctype                10006ef8     libucrt:ctype.obj
 0001:000061f8       ___newclmap                100071f8     libucrt:ctype.obj
 0001:00006378       ___newcumap                10007378     libucrt:ctype.obj
 0001:000064f8       __wctype                   100074f8     libucrt:ctype.obj
 0001:00006700       ?large_power_data@?1??multiply_by_power_of_ten@__crt_strtox@@YA_NAAUbig_integer@2@I@Z@4QBIB 10007700     libucrt:strtod.obj
 0001:00007008       ?small_powers_of_ten@?1??multiply_by_power_of_ten@__crt_strtox@@YA_NAAUbig_integer@2@I@Z@4QBIB 10008008     libucrt:strtod.obj
 0001:00007030       ___acrt_exception_action_table 10008030     libucrt:exception_filter.obj
 0001:000070c0       ___acrt_signal_action_table_count 100080c0     libucrt:exception_filter.obj
 0001:000070c4       ___acrt_signal_action_first_fpe_index 100080c4     libucrt:exception_filter.obj
 0001:000070c8       ___acrt_signal_action_fpe_count 100080c8     libucrt:exception_filter.obj
 0001:000070cc       ??_C@_1BI@BGOHAHKC@?$AAm?$AAs?$AAc?$AAo?$AAr?$AAe?$AAe?$AA?4?$AAd?$AAl?$AAl@ 100080cc     libucrt:exit.obj
 0001:000070e4       ??_C@_0P@MIGLKIOC@CorExitProcess@ 100080e4     libucrt:exit.obj
 0001:000071a8       __Inf_C                    100081a8     libucrt:_values.obj
 0001:000071b0       __Nan_C                    100081b0     libucrt:_values.obj
 0001:00007208       ??_C@_1EA@JGEFHKEI@?$AAa?$AAp?$AAi?$AA?9?$AAm?$AAs?$AA?9?$AAw?$AAi?$AAn?$AA?9?$AAc?$AAo?$AAr?$AAe@ 10008208     libucrt:winapi_thunks.obj
 0001:00007248       ??_C@_1DI@IJCEHOCB@?$AAa?$AAp?$AAi?$AA?9?$AAm?$AAs?$AA?9?$AAw?$AAi?$AAn?$AA?9?$AAc?$AAo?$AAr?$AAe@ 10008248     libucrt:winapi_thunks.obj
 0001:00007280       ??_C@_1EI@MPIAOHOC@?$AAa?$AAp?$AAi?$AA?9?$AAm?$AAs?$AA?9?$AAw?$AAi?$AAn?$AA?9?$AAc?$AAo?$AAr?$AAe@ 10008280     libucrt:winapi_thunks.obj
 0001:000072c8       ??_C@_1FK@FPHCKFIE@?$AAa?$AAp?$AAi?$AA?9?$AAm?$AAs?$AA?9?$AAw?$AAi?$AAn?$AA?9?$AAc?$AAo?$AAr?$AAe@ 100082c8     libucrt:winapi_thunks.obj
 0001:00007328       ??_C@_1EM@DILCGIIO@?$AAa?$AAp?$AAi?$AA?9?$AAm?$AAs?$AA?9?$AAw?$AAi?$AAn?$AA?9?$AAc?$AAo?$AAr?$AAe@ 10008328     libucrt:winapi_thunks.obj
 0001:00007374       ??_C@_1DM@LNCGDDPN@?$AAa?$AAp?$AAi?$AA?9?$AAm?$AAs?$AA?9?$AAw?$AAi?$AAn?$AA?9?$AAc?$AAo?$AAr?$AAe@ 10008374     libucrt:winapi_thunks.obj
 0001:000073b0       ??_C@_1DO@FPAPJEMD@?$AAa?$AAp?$AAi?$AA?9?$AAm?$AAs?$AA?9?$AAw?$AAi?$AAn?$AA?9?$AAc?$AAo?$AAr?$AAe@ 100083b0     libucrt:winapi_thunks.obj
 0001:000073f0       ??_C@_1DK@NDHNAHIO@?$AAa?$AAp?$AAi?$AA?9?$AAm?$AAs?$AA?9?$AAw?$AAi?$AAn?$AA?9?$AAc?$AAo?$AAr?$AAe@ 100083f0     libucrt:winapi_thunks.obj
 0001:0000742c       ??_C@_1DM@KGHDGBCM@?$AAa?$AAp?$AAi?$AA?9?$AAm?$AAs?$AA?9?$AAw?$AAi?$AAn?$AA?9?$AAc?$AAo?$AAr?$AAe@ 1000842c     libucrt:winapi_thunks.obj
 0001:00007468       ??_C@_1EO@IJIOEFOH@?$AAa?$AAp?$AAi?$AA?9?$AAm?$AAs?$AA?9?$AAw?$AAi?$AAn?$AA?9?$AAr?$AAt?$AAc?$AAo@ 10008468     libucrt:winapi_thunks.obj
 0001:000074b8       ??_C@_1FG@HHGEKANL@?$AAa?$AAp?$AAi?$AA?9?$AAm?$AAs?$AA?9?$AAw?$AAi?$AAn?$AA?9?$AAs?$AAe?$AAc?$AAu@ 100084b8     libucrt:winapi_thunks.obj
 0001:00007510       ??_C@_1EG@DBIOJECG@?$AAe?$AAx?$AAt?$AA?9?$AAm?$AAs?$AA?9?$AAw?$AAi?$AAn?$AA?9?$AAn?$AAt?$AAu?$AAs@ 10008510     libucrt:winapi_thunks.obj
 0001:00007558       ??_C@_1EO@FIHMJCLF@?$AAe?$AAx?$AAt?$AA?9?$AAm?$AAs?$AA?9?$AAw?$AAi?$AAn?$AA?9?$AAn?$AAt?$AAu?$AAs@ 10008558     libucrt:winapi_thunks.obj
 0001:000075a8       ??_C@_1EG@DPGNFKGC@?$AAa?$AAp?$AAi?$AA?9?$AAm?$AAs?$AA?9?$AAw?$AAi?$AAn?$AA?9?$AAa?$AAp?$AAp?$AAm@ 100085a8     libucrt:winapi_thunks.obj
 0001:000075f0       ??_C@_1BA@IAIFMGEF@?$AAe?$AAx?$AAt?$AA?9?$AAm?$AAs?$AA?9@ 100085f0     libucrt:winapi_thunks.obj
 0001:00007604       ??_C@_0BA@FHFNEAED@AreFileApisANSI@ 10008604     libucrt:winapi_thunks.obj
 0001:00007624       ??_C@_0BE@LJANKFHF@EnumSystemLocalesEx@ 10008624     libucrt:winapi_thunks.obj
 0001:00007660       ??_C@_0BA@EPCJIIPD@GetDateFormatEx@ 10008660     libucrt:winapi_thunks.obj
 0001:00007680       ??_C@_0BA@CIJJKCJJ@GetTimeFormatEx@ 10008680     libucrt:winapi_thunks.obj
 0001:00007698       ??_C@_0BJ@PBCCBIPI@GetUserDefaultLocaleName@ 10008698     libucrt:winapi_thunks.obj
 0001:000076c4       ??_C@_0BC@CELBKLLA@IsValidLocaleName@ 100086c4     libucrt:winapi_thunks.obj
 0001:000076e8       ??_C@_0BB@CDHDDLLP@LCIDToLocaleName@ 100086e8     libucrt:winapi_thunks.obj
 0001:00007704       ??_C@_0BB@HBDEELFH@LocaleNameToLCID@ 10008704     libucrt:winapi_thunks.obj
 0001:0000771c       ??_C@_0CF@OJOFEIGO@AppPolicyGetProcessTerminationM@ 1000871c     libucrt:winapi_thunks.obj
 0001:00007788       ??_C@_09OFJJIMPC@NAN?$CISNAN?$CJ@ 10008788     libucrt:cvt.obj
 0001:00007794       ??_C@_09IPFBKMDL@nan?$CIsnan?$CJ@ 10008794     libucrt:cvt.obj
 0001:000077a0       ??_C@_08IKHNHAJ@NAN?$CIIND?$CJ@ 100087a0     libucrt:cvt.obj
 0001:000077ac       ??_C@_08OFCDMILK@nan?$CIind?$CJ@ 100087ac     libucrt:cvt.obj
 0001:000077b8       ??_C@_05KLBDPFGC@e?$CL000@ 100087b8     libucrt:cvt.obj
 0001:00007840       ___lc_category             10008840     libucrt:wsetlocale.obj
 0001:00007888       ??_C@_1O@GIFLHMA@?$AAL?$AAC?$AA_?$AAA?$AAL?$AAL@ 10008888     libucrt:wsetlocale.obj
 0001:00007898       ??_C@_1BG@PPOMIBNJ@?$AAL?$AAC?$AA_?$AAC?$AAO?$AAL?$AAL?$AAA?$AAT?$AAE@ 10008898     libucrt:wsetlocale.obj
 0001:000078b0       ??_C@_1BC@FFJGAPJM@?$AAL?$AAC?$AA_?$AAC?$AAT?$AAY?$AAP?$AAE@ 100088b0     libucrt:wsetlocale.obj
 0001:000078c4       ??_C@_1BI@PCKFNJFB@?$AAL?$AAC?$AA_?$AAM?$AAO?$AAN?$AAE?$AAT?$AAA?$AAR?$AAY@ 100088c4     libucrt:wsetlocale.obj
 0001:000078dc       ??_C@_1BG@ENIEDKID@?$AAL?$AAC?$AA_?$AAN?$AAU?$AAM?$AAE?$AAR?$AAI?$AAC@ 100088dc     libucrt:wsetlocale.obj
 0001:000078f4       ??_C@_1BA@HAAOMIIG@?$AAL?$AAC?$AA_?$AAT?$AAI?$AAM?$AAE@ 100088f4     libucrt:wsetlocale.obj
 0001:00007904       ??_C@_15NBPDDFIP@?$AA?$DN?$AA?$DL@ 10008904     libucrt:wsetlocale.obj
 0001:0000790c       ??_C@_13PJJBFPED@?$AA?$DL@ 1000890c     libucrt:wsetlocale.obj
 0001:00007910       ??_C@_13NMPKAAJP@?$AA?$DN@ 10008910     libucrt:wsetlocale.obj
 0001:00007914       ??_C@_17EFJLDFDO@?$AA?9?$AA_?$AA?4@ 10008914     libucrt:wsetlocale.obj
 0001:0000791c       ??_C@_13FHBKNHDA@?$AAC@    1000891c     libucrt:wsetlocale.obj
 0001:00007920       ??_C@_17MBJJLFDM@?$AA_?$AA?4?$AA?0@ 10008920     libucrt:wsetlocale.obj
 0001:00007928       ??_C@_13ENNFDPBH@?$AA_@    10008928     libucrt:wsetlocale.obj
 0001:00007930       ___lc_time_c               10008930     libucrt:nlsdata.obj
 0001:00007a94       ??_C@_03KOEHGMDN@Sun@      10008a94     libucrt:nlsdata.obj
 0001:00007a98       ??_C@_03PDAGKDH@Mon@       10008a98     libucrt:nlsdata.obj
 0001:00007a9c       ??_C@_03NAGEINEP@Tue@      10008a9c     libucrt:nlsdata.obj
 0001:00007aa0       ??_C@_03MHOMLAJA@Wed@      10008aa0     libucrt:nlsdata.obj
 0001:00007aa4       ??_C@_03IOFIKPDN@Thu@      10008aa4     libucrt:nlsdata.obj
 0001:00007aa8       ??_C@_03IDIOELNC@Fri@      10008aa8     libucrt:nlsdata.obj
 0001:00007aac       ??_C@_03FEFJNEK@Sat@       10008aac     libucrt:nlsdata.obj
 0001:00007ab0       ??_C@_06OOPIFAJ@Sunday@    10008ab0     libucrt:nlsdata.obj
 0001:00007ab8       ??_C@_06JLEDEDGH@Monday@   10008ab8     libucrt:nlsdata.obj
 0001:00007ac0       ??_C@_07BAAGCFCM@Tuesday@  10008ac0     libucrt:nlsdata.obj
 0001:00007ac8       ??_C@_09DLIGFAKA@Wednesday@ 10008ac8     libucrt:nlsdata.obj
 0001:00007ad4       ??_C@_08HACCIKIA@Thursday@ 10008ad4     libucrt:nlsdata.obj
 0001:00007ae0       ??_C@_06JECMNKMI@Friday@   10008ae0     libucrt:nlsdata.obj
 0001:00007ae8       ??_C@_08INBOOONO@Saturday@ 10008ae8     libucrt:nlsdata.obj
 0001:00007af4       ??_C@_03JIHJHPIE@Jan@      10008af4     libucrt:nlsdata.obj
 0001:00007af8       ??_C@_03HJBDCHOM@Feb@      10008af8     libucrt:nlsdata.obj
 0001:00007afc       ??_C@_03ODNJBKGA@Mar@      10008afc     libucrt:nlsdata.obj
 0001:00007b00       ??_C@_03LEOLGMJP@Apr@      10008b00     libucrt:nlsdata.obj
 0001:00007b04       ??_C@_03CNMDKL@May@        10008b04     libucrt:nlsdata.obj
 0001:00007b08       ??_C@_03IDFGHECI@Jun@      10008b08     libucrt:nlsdata.obj
 0001:00007b0c       ??_C@_03LBGABGKK@Jul@      10008b0c     libucrt:nlsdata.obj
 0001:00007b10       ??_C@_03IFJFEIGA@Aug@      10008b10     libucrt:nlsdata.obj
 0001:00007b14       ??_C@_03GGCAPAJC@Sep@      10008b14     libucrt:nlsdata.obj
 0001:00007b18       ??_C@_03BMAOKBAD@Oct@      10008b18     libucrt:nlsdata.obj
 0001:00007b1c       ??_C@_03JPJOFNIA@Nov@      10008b1c     libucrt:nlsdata.obj
 0001:00007b20       ??_C@_03MKABNOCG@Dec@      10008b20     libucrt:nlsdata.obj
 0001:00007b24       ??_C@_07CGJPFGJA@January@  10008b24     libucrt:nlsdata.obj
 0001:00007b2c       ??_C@_08GNJGEPFN@February@ 10008b2c     libucrt:nlsdata.obj
 0001:00007b38       ??_C@_05HPCKOFNC@March@    10008b38     libucrt:nlsdata.obj
 0001:00007b40       ??_C@_05DMJDNLEJ@April@    10008b40     libucrt:nlsdata.obj
 0001:00007b48       ??_C@_04CNLMGBGM@June@     10008b48     libucrt:nlsdata.obj
 0001:00007b50       ??_C@_04MIEPOIFP@July@     10008b50     libucrt:nlsdata.obj
 0001:00007b58       ??_C@_06LBBHFDDG@August@   10008b58     libucrt:nlsdata.obj
 0001:00007b60       ??_C@_09BHHEALKD@September@ 10008b60     libucrt:nlsdata.obj
 0001:00007b6c       ??_C@_07JJNFCEND@October@  10008b6c     libucrt:nlsdata.obj
 0001:00007b74       ??_C@_08HCHEGEOA@November@ 10008b74     libucrt:nlsdata.obj
 0001:00007b80       ??_C@_08EDHMEBNP@December@ 10008b80     libucrt:nlsdata.obj
 0001:00007b8c       ??_C@_02DEDBPAFC@AM@       10008b8c     libucrt:nlsdata.obj
 0001:00007b90       ??_C@_02CJNFDJBF@PM@       10008b90     libucrt:nlsdata.obj
 0001:00007b94       ??_C@_08BPBNCDIB@MM?1dd?1yy@ 10008b94     libucrt:nlsdata.obj
 0001:00007ba0       ??_C@_0BE@CKGJFCPC@dddd?0?5MMMM?5dd?0?5yyyy@ 10008ba0     libucrt:nlsdata.obj
 0001:00007bb4       ??_C@_08JCCMCCIL@HH?3mm?3ss@ 10008bb4     libucrt:nlsdata.obj
 0001:00007bc0       ??_C@_17MBGCMIPB@?$AAS?$AAu?$AAn@ 10008bc0     libucrt:nlsdata.obj
 0001:00007bc8       ??_C@_17KBOMKBF@?$AAM?$AAo?$AAn@ 10008bc8     libucrt:nlsdata.obj
 0001:00007bd0       ??_C@_17BMKGEGOJ@?$AAT?$AAu?$AAe@ 10008bd0     libucrt:nlsdata.obj
 0001:00007bd8       ??_C@_17CJEDCEPE@?$AAW?$AAe?$AAd@ 10008bd8     libucrt:nlsdata.obj
 0001:00007be0       ??_C@_17PDPHAADD@?$AAT?$AAh?$AAu@ 10008be0     libucrt:nlsdata.obj
 0001:00007be8       ??_C@_17HFOLPPLP@?$AAF?$AAr?$AAi@ 10008be8     libucrt:nlsdata.obj
 0001:00007bf0       ??_C@_17GGIBDPIH@?$AAS?$AAa?$AAt@ 10008bf0     libucrt:nlsdata.obj
 0001:00007bf8       ??_C@_1O@IHNHDHPB@?$AAS?$AAu?$AAn?$AAd?$AAa?$AAy@ 10008bf8     libucrt:nlsdata.obj
 0001:00007c08       ??_C@_1O@MMNBFLIA@?$AAM?$AAo?$AAn?$AAd?$AAa?$AAy@ 10008c08     libucrt:nlsdata.obj
 0001:00007c18       ??_C@_1BA@ENFBFFEK@?$AAT?$AAu?$AAe?$AAs?$AAd?$AAa?$AAy@ 10008c18     libucrt:nlsdata.obj
 0001:00007c28       ??_C@_1BE@EBOGMDOH@?$AAW?$AAe?$AAd?$AAn?$AAe?$AAs?$AAd?$AAa?$AAy@ 10008c28     libucrt:nlsdata.obj
 0001:00007c3c       ??_C@_1BC@HHMNLIHE@?$AAT?$AAh?$AAu?$AAr?$AAs?$AAd?$AAa?$AAy@ 10008c3c     libucrt:nlsdata.obj
 0001:00007c50       ??_C@_1O@PDICJHAG@?$AAF?$AAr?$AAi?$AAd?$AAa?$AAy@ 10008c50     libucrt:nlsdata.obj
 0001:00007c60       ??_C@_1BC@ENMNNPAJ@?$AAS?$AAa?$AAt?$AAu?$AAr?$AAd?$AAa?$AAy@ 10008c60     libucrt:nlsdata.obj
 0001:00007c74       ??_C@_17DKNBKCHM@?$AAJ?$AAa?$AAn@ 10008c74     libucrt:nlsdata.obj
 0001:00007c7c       ??_C@_17LMDJEKJN@?$AAF?$AAe?$AAb@ 10008c7c     libucrt:nlsdata.obj
 0001:00007c84       ??_C@_17CKNLEDEC@?$AAM?$AAa?$AAr@ 10008c84     libucrt:nlsdata.obj
 0001:00007c8c       ??_C@_17LFPOIHDD@?$AAA?$AAp?$AAr@ 10008c8c     libucrt:nlsdata.obj
 0001:00007c94       ??_C@_17PNNKMEED@?$AAM?$AAa?$AAy@ 10008c94     libucrt:nlsdata.obj
 0001:00007c9c       ??_C@_17KCJGOCPB@?$AAJ?$AAu?$AAn@ 10008c9c     libucrt:nlsdata.obj
 0001:00007ca4       ??_C@_17IJPCKHK@?$AAJ?$AAu?$AAl@ 10008ca4     libucrt:nlsdata.obj
 0001:00007cac       ??_C@_17ICPELBCN@?$AAA?$AAu?$AAg@ 10008cac     libucrt:nlsdata.obj
 0001:00007cb4       ??_C@_17HCHCOKMG@?$AAS?$AAe?$AAp@ 10008cb4     libucrt:nlsdata.obj
 0001:00007cbc       ??_C@_17FNLKOI@?$AAO?$AAc?$AAt@ 10008cbc     libucrt:nlsdata.obj
 0001:00007cc4       ??_C@_17BBDMLCIG@?$AAN?$AAo?$AAv@ 10008cc4     libucrt:nlsdata.obj
 0001:00007ccc       ??_C@_17EGKACKIF@?$AAD?$AAe?$AAc@ 10008ccc     libucrt:nlsdata.obj
 0001:00007cd4       ??_C@_1BA@EFMEIEBA@?$AAJ?$AAa?$AAn?$AAu?$AAa?$AAr?$AAy@ 10008cd4     libucrt:nlsdata.obj
 0001:00007ce4       ??_C@_1BC@JGDDFFAM@?$AAF?$AAe?$AAb?$AAr?$AAu?$AAa?$AAr?$AAy@ 10008ce4     libucrt:nlsdata.obj
 0001:00007cf8       ??_C@_1M@IKEENEDF@?$AAM?$AAa?$AAr?$AAc?$AAh@ 10008cf8     libucrt:nlsdata.obj
 0001:00007d04       ??_C@_1M@GJNLMHFD@?$AAA?$AAp?$AAr?$AAi?$AAl@ 10008d04     libucrt:nlsdata.obj
 0001:00007d10       ??_C@_19EPFLPGAP@?$AAJ?$AAu?$AAn?$AAe@ 10008d10     libucrt:nlsdata.obj
 0001:00007d1c       ??_C@_19BIFMLPCD@?$AAJ?$AAu?$AAl?$AAy@ 10008d1c     libucrt:nlsdata.obj
 0001:00007d28       ??_C@_1O@PAHLKOAC@?$AAA?$AAu?$AAg?$AAu?$AAs?$AAt@ 10008d28     libucrt:nlsdata.obj
 0001:00007d38       ??_C@_1BE@DKAAMBJL@?$AAS?$AAe?$AAp?$AAt?$AAe?$AAm?$AAb?$AAe?$AAr@ 10008d38     libucrt:nlsdata.obj
 0001:00007d4c       ??_C@_1BA@EPANDLNG@?$AAO?$AAc?$AAt?$AAo?$AAb?$AAe?$AAr@ 10008d4c     libucrt:nlsdata.obj
 0001:00007d5c       ??_C@_1BC@BGLIFPF@?$AAN?$AAo?$AAv?$AAe?$AAm?$AAb?$AAe?$AAr@ 10008d5c     libucrt:nlsdata.obj
 0001:00007d70       ??_C@_1BC@FEMKIFH@?$AAD?$AAe?$AAc?$AAe?$AAm?$AAb?$AAe?$AAr@ 10008d70     libucrt:nlsdata.obj
 0001:00007d84       ??_C@_15ODEHAHHF@?$AAA?$AAM@ 10008d84     libucrt:nlsdata.obj
 0001:00007d8c       ??_C@_15CLMNNGEL@?$AAP?$AAM@ 10008d8c     libucrt:nlsdata.obj
 0001:00007d94       ??_C@_1BC@IEBCMHCM@?$AAM?$AAM?$AA?1?$AAd?$AAd?$AA?1?$AAy?$AAy@ 10008d94     libucrt:nlsdata.obj
 0001:00007da8       ??_C@_1CI@KNAKOEBC@?$AAd?$AAd?$AAd?$AAd?$AA?0?$AA?5?$AAM?$AAM?$AAM?$AAM?$AA?5?$AAd?$AAd?$AA?0?$AA?5@ 10008da8     libucrt:nlsdata.obj
 0001:00007dd0       ??_C@_1BC@GDGBMEMK@?$AAH?$AAH?$AA?3?$AAm?$AAm?$AA?3?$AAs?$AAs@ 10008dd0     libucrt:nlsdata.obj
 0001:00007de4       ??_C@_03MGHMBJCF@log@      10008de4     libucrt:libm_error.obj
 0001:00007de8       ??_C@_05HGHHAHAP@log10@    10008de8     libucrt:libm_error.obj
 0001:00007df0       ??_C@_03KHJOGHMM@exp@      10008df0     libucrt:libm_error.obj
 0001:00007df4       ??_C@_03JGHBODFD@pow@      10008df4     libucrt:libm_error.obj
 0001:00007df8       ??_C@_04FIHNOPOL@asin@     10008df8     libucrt:libm_error.obj
 0001:00007e00       ??_C@_04PDIFKINK@acos@     10008e00     libucrt:libm_error.obj
 0001:00007e08       ??_C@_04EIAKFFMI@sqrt@     10008e08     libucrt:libm_error.obj
 0001:00007f10       __infinity                 10008f10     libucrt:87tran.obj
 0001:00007f1a       __minfinity                10008f1a     libucrt:87tran.obj
 0001:00007f24       __logemax                  10008f24     libucrt:87tran.obj
 0001:00007f4a       __OP_EXPjmptab             10008f4a     libucrt:87tran.obj
 0001:00007f70       __indefinite               10008f70     libucrt:87disp.obj
 0001:00007f7a       __piby2                    10008f7a     libucrt:87disp.obj
 0001:00007f84       __piby4                    10008f84     libucrt:87disp.obj
 0001:00007fb8       __DEFAULT_CW_in_mem        10008fb8     libucrt:common.obj
 0001:00007fba       __pi_by_2_to_61            10008fba     libucrt:common.obj
 0001:000080c0       __real@3fe0000000000000    100090c0     libucrt:powhlp.obj
 0001:000081b0       ??_C@_04COOMCNPB@sinh@     100091b0     libucrt:fpexcept.obj
 0001:000081b8       ??_C@_04HPJJNFIM@cosh@     100091b8     libucrt:fpexcept.obj
 0001:000081c0       ??_C@_04FJHINJAO@tanh@     100091c0     libucrt:fpexcept.obj
 0001:000081c8       ??_C@_04MLLJIGOK@atan@     100091c8     libucrt:fpexcept.obj
 0001:000081d0       ??_C@_05KNGEOGJB@atan2@    100091d0     libucrt:fpexcept.obj
 0001:000081d8       ??_C@_03BLEJJJBH@sin@      100091d8     libucrt:fpexcept.obj
 0001:000081dc       ??_C@_03LALBNOCG@cos@      100091dc     libucrt:fpexcept.obj
 0001:000081e0       ??_C@_03IIINPABG@tan@      100091e0     libucrt:fpexcept.obj
 0001:000081e4       ??_C@_04GFPJNGEK@ceil@     100091e4     libucrt:fpexcept.obj
 0001:000081ec       ??_C@_05PBJFFIGL@floor@    100091ec     libucrt:fpexcept.obj
 0001:000081f4       ??_C@_04ODHECPBC@fabs@     100091f4     libucrt:fpexcept.obj
 0001:000081fc       ??_C@_04EHEDPDJG@modf@     100091fc     libucrt:fpexcept.obj
 0001:00008204       ??_C@_05CEJMAHNP@ldexp@    10009204     libucrt:fpexcept.obj
 0001:0000820c       ??_C@_05KBKMEMPO@_cabs@    1000920c     libucrt:fpexcept.obj
 0001:00008214       ??_C@_06MEIMCGCF@_hypot@   10009214     libucrt:fpexcept.obj
 0001:0000821c       ??_C@_04KEPJIHGP@fmod@     1000921c     libucrt:fpexcept.obj
 0001:00008224       ??_C@_05GKKHEGJL@frexp@    10009224     libucrt:fpexcept.obj
 0001:0000822c       ??_C@_03MJLDFKDL@_y0@      1000922c     libucrt:fpexcept.obj
 0001:00008230       ??_C@_03NAKIGLHK@_y1@      10009230     libucrt:fpexcept.obj
 0001:00008234       ??_C@_03ONILCKOB@_yn@      10009234     libucrt:fpexcept.obj
 0001:00008238       ??_C@_05JGDBENOH@_logb@    10009238     libucrt:fpexcept.obj
 0001:00008240       ??_C@_0L@KDOEJCKC@_nextafter@ 10009240     libucrt:fpexcept.obj
 0001:00008250       __d_inf                    10009250     libucrt:util.obj
 0001:00008258       __d_ind                    10009258     libucrt:util.obj
 0001:00008260       __d_max                    10009260     libucrt:util.obj
 0001:00008268       __d_mzero                  10009268     libucrt:util.obj
 0001:00009170       ??_C@_01GBGANLPD@0@        1000a170     libucrt:cfout.obj
 0001:00009174       ??_C@_05DNEBIAHO@1?$CDINF@ 1000a174     libucrt:cfout.obj
 0001:0000917c       ??_C@_06IMKFLFPG@1?$CDQNAN@ 1000a17c     libucrt:cfout.obj
 0001:00009184       ??_C@_06PGGFOGJG@1?$CDSNAN@ 1000a184     libucrt:cfout.obj
 0001:0000918c       ??_C@_05PHHOCPM@1?$CDIND@  1000a18c     libucrt:cfout.obj
 0001:00009198       ___acrt_rg_language        1000a198     libucrt:get_qualified_locale.obj
 0001:000094a4       ___acrt_rg_language_count  1000a4a4     libucrt:get_qualified_locale.obj
 0001:000094a8       ___acrt_rg_country         1000a4a8     libucrt:get_qualified_locale.obj
 0001:000095bc       ___acrt_rg_country_count   1000a5bc     libucrt:get_qualified_locale.obj
 0001:000095c0       ??_C@_1BC@LLOKLNP@?$AAa?$AAm?$AAe?$AAr?$AAi?$AAc?$AAa?$AAn@ 1000a5c0     libucrt:get_qualified_locale.obj
 0001:000095d4       ??_C@_1CC@HEIGCDGG@?$AAa?$AAm?$AAe?$AAr?$AAi?$AAc?$AAa?$AAn?$AA?5?$AAe?$AAn?$AAg?$AAl?$AAi?$AAs@ 1000a5d4     libucrt:get_qualified_locale.obj
 0001:000095f8       ??_C@_1CC@IHCNOMIN@?$AAa?$AAm?$AAe?$AAr?$AAi?$AAc?$AAa?$AAn?$AA?9?$AAe?$AAn?$AAg?$AAl?$AAi?$AAs@ 1000a5f8     libucrt:get_qualified_locale.obj
 0001:0000961c       ??_C@_1BG@GKAGPCGG@?$AAa?$AAu?$AAs?$AAt?$AAr?$AAa?$AAl?$AAi?$AAa?$AAn@ 1000a61c     libucrt:get_qualified_locale.obj
 0001:00009634       ??_C@_1BA@GMENCENF@?$AAb?$AAe?$AAl?$AAg?$AAi?$AAa?$AAn@ 1000a634     libucrt:get_qualified_locale.obj
 0001:00009644       ??_C@_1BC@PJMIIAAN@?$AAc?$AAa?$AAn?$AAa?$AAd?$AAi?$AAa?$AAn@ 1000a644     libucrt:get_qualified_locale.obj
 0001:00009658       ??_C@_17NOIMNFBF@?$AAc?$AAh?$AAh@ 1000a658     libucrt:get_qualified_locale.obj
 0001:00009660       ??_C@_17GGDALCHA@?$AAc?$AAh?$AAi@ 1000a660     libucrt:get_qualified_locale.obj
 0001:00009668       ??_C@_1BA@NPNJKIBL@?$AAc?$AAh?$AAi?$AAn?$AAe?$AAs?$AAe@ 1000a668     libucrt:get_qualified_locale.obj
 0001:00009678       ??_C@_1CC@DINBAMMJ@?$AAc?$AAh?$AAi?$AAn?$AAe?$AAs?$AAe?$AA?9?$AAh?$AAo?$AAn?$AAg?$AAk?$AAo?$AAn@ 1000a678     libucrt:get_qualified_locale.obj
 0001:0000969c       ??_C@_1CG@IOBJPACO@?$AAc?$AAh?$AAi?$AAn?$AAe?$AAs?$AAe?$AA?9?$AAs?$AAi?$AAm?$AAp?$AAl?$AAi?$AAf@ 1000a69c     libucrt:get_qualified_locale.obj
 0001:000096c4       ??_C@_1CE@GAJNDCKG@?$AAc?$AAh?$AAi?$AAn?$AAe?$AAs?$AAe?$AA?9?$AAs?$AAi?$AAn?$AAg?$AAa?$AAp?$AAo@ 1000a6c4     libucrt:get_qualified_locale.obj
 0001:000096e8       ??_C@_1CI@PAJPIOOD@?$AAc?$AAh?$AAi?$AAn?$AAe?$AAs?$AAe?$AA?9?$AAt?$AAr?$AAa?$AAd?$AAi?$AAt?$AAi@ 1000a6e8     libucrt:get_qualified_locale.obj
 0001:00009710       ??_C@_1BM@NILJBMMD@?$AAd?$AAu?$AAt?$AAc?$AAh?$AA?9?$AAb?$AAe?$AAl?$AAg?$AAi?$AAa?$AAn@ 1000a710     libucrt:get_qualified_locale.obj
 0001:0000972c       ??_C@_1CC@OOJPJNEJ@?$AAe?$AAn?$AAg?$AAl?$AAi?$AAs?$AAh?$AA?9?$AAa?$AAm?$AAe?$AAr?$AAi?$AAc?$AAa@ 1000a72c     libucrt:get_qualified_locale.obj
 0001:00009750       ??_C@_1BI@IOLFEEM@?$AAe?$AAn?$AAg?$AAl?$AAi?$AAs?$AAh?$AA?9?$AAa?$AAu?$AAs@ 1000a750     libucrt:get_qualified_locale.obj
 0001:00009768       ??_C@_1BO@HFFNLENJ@?$AAe?$AAn?$AAg?$AAl?$AAi?$AAs?$AAh?$AA?9?$AAb?$AAe?$AAl?$AAi?$AAz?$AAe@ 1000a768     libucrt:get_qualified_locale.obj
 0001:00009788       ??_C@_1BI@HAPKJMPO@?$AAe?$AAn?$AAg?$AAl?$AAi?$AAs?$AAh?$AA?9?$AAc?$AAa?$AAn@ 1000a788     libucrt:get_qualified_locale.obj
 0001:000097a0       ??_C@_1CE@HLNDMIOJ@?$AAe?$AAn?$AAg?$AAl?$AAi?$AAs?$AAh?$AA?9?$AAc?$AAa?$AAr?$AAi?$AAb?$AAb?$AAe@ 1000a7a0     libucrt:get_qualified_locale.obj
 0001:000097c4       ??_C@_1BI@LDHJHHAC@?$AAe?$AAn?$AAg?$AAl?$AAi?$AAs?$AAh?$AA?9?$AAi?$AAr?$AAe@ 1000a7c4     libucrt:get_qualified_locale.obj
 0001:000097dc       ??_C@_1CA@NJMMCFOC@?$AAe?$AAn?$AAg?$AAl?$AAi?$AAs?$AAh?$AA?9?$AAj?$AAa?$AAm?$AAa?$AAi?$AAc?$AAa@ 1000a7dc     libucrt:get_qualified_locale.obj
 0001:000097fc       ??_C@_1BG@BHJEBBGG@?$AAe?$AAn?$AAg?$AAl?$AAi?$AAs?$AAh?$AA?9?$AAn?$AAz@ 1000a7fc     libucrt:get_qualified_locale.obj
 0001:00009814       ??_C@_1CK@FGOEJJCO@?$AAe?$AAn?$AAg?$AAl?$AAi?$AAs?$AAh?$AA?9?$AAs?$AAo?$AAu?$AAt?$AAh?$AA?5?$AAa@ 1000a814     libucrt:get_qualified_locale.obj
 0001:00009840       ??_C@_1DE@PDBJPCJ@?$AAe?$AAn?$AAg?$AAl?$AAi?$AAs?$AAh?$AA?9?$AAt?$AAr?$AAi?$AAn?$AAi?$AAd?$AAa@ 1000a840     libucrt:get_qualified_locale.obj
 0001:00009874       ??_C@_1BG@JGCANDME@?$AAe?$AAn?$AAg?$AAl?$AAi?$AAs?$AAh?$AA?9?$AAu?$AAk@ 1000a874     libucrt:get_qualified_locale.obj
 0001:0000988c       ??_C@_1BG@DINKMLE@?$AAe?$AAn?$AAg?$AAl?$AAi?$AAs?$AAh?$AA?9?$AAu?$AAs@ 1000a88c     libucrt:get_qualified_locale.obj
 0001:000098a4       ??_C@_1BI@NMFDBHJE@?$AAe?$AAn?$AAg?$AAl?$AAi?$AAs?$AAh?$AA?9?$AAu?$AAs?$AAa@ 1000a8a4     libucrt:get_qualified_locale.obj
 0001:000098bc       ??_C@_1BO@OIHKJKII@?$AAf?$AAr?$AAe?$AAn?$AAc?$AAh?$AA?9?$AAb?$AAe?$AAl?$AAg?$AAi?$AAa?$AAn@ 1000a8bc     libucrt:get_qualified_locale.obj
 0001:000098dc       ??_C@_1CA@NKAELJKI@?$AAf?$AAr?$AAe?$AAn?$AAc?$AAh?$AA?9?$AAc?$AAa?$AAn?$AAa?$AAd?$AAi?$AAa?$AAn@ 1000a8dc     libucrt:get_qualified_locale.obj
 0001:000098fc       ??_C@_1CE@MGKCNLGN@?$AAf?$AAr?$AAe?$AAn?$AAc?$AAh?$AA?9?$AAl?$AAu?$AAx?$AAe?$AAm?$AAb?$AAo?$AAu@ 1000a8fc     libucrt:get_qualified_locale.obj
 0001:00009920       ??_C@_1BK@CEGEAILM@?$AAf?$AAr?$AAe?$AAn?$AAc?$AAh?$AA?9?$AAs?$AAw?$AAi?$AAs?$AAs@ 1000a920     libucrt:get_qualified_locale.obj
 0001:0000993c       ??_C@_1CA@PAFKEOCC@?$AAg?$AAe?$AAr?$AAm?$AAa?$AAn?$AA?9?$AAa?$AAu?$AAs?$AAt?$AAr?$AAi?$AAa?$AAn@ 1000a93c     libucrt:get_qualified_locale.obj
 0001:0000995c       ??_C@_1CI@HCFHGOFD@?$AAg?$AAe?$AAr?$AAm?$AAa?$AAn?$AA?9?$AAl?$AAi?$AAc?$AAh?$AAt?$AAe?$AAn?$AAs@ 1000a95c     libucrt:get_qualified_locale.obj
 0001:00009984       ??_C@_1CE@FEDDNPDG@?$AAg?$AAe?$AAr?$AAm?$AAa?$AAn?$AA?9?$AAl?$AAu?$AAx?$AAe?$AAm?$AAb?$AAo?$AAu@ 1000a984     libucrt:get_qualified_locale.obj
 0001:000099a8       ??_C@_1BK@LIMINNMN@?$AAg?$AAe?$AAr?$AAm?$AAa?$AAn?$AA?9?$AAs?$AAw?$AAi?$AAs?$AAs@ 1000a9a8     libucrt:get_qualified_locale.obj
 0001:000099c4       ??_C@_1BM@LGMDBEPD@?$AAi?$AAr?$AAi?$AAs?$AAh?$AA?9?$AAe?$AAn?$AAg?$AAl?$AAi?$AAs?$AAh@ 1000a9c4     libucrt:get_qualified_locale.obj
 0001:000099e0       ??_C@_1BM@NNCFBAEE@?$AAi?$AAt?$AAa?$AAl?$AAi?$AAa?$AAn?$AA?9?$AAs?$AAw?$AAi?$AAs?$AAs@ 1000a9e0     libucrt:get_qualified_locale.obj
 0001:000099fc       ??_C@_1BE@FEDJNPIB@?$AAn?$AAo?$AAr?$AAw?$AAe?$AAg?$AAi?$AAa?$AAn@ 1000a9fc     libucrt:get_qualified_locale.obj
 0001:00009a10       ??_C@_1CC@CILKDEIE@?$AAn?$AAo?$AAr?$AAw?$AAe?$AAg?$AAi?$AAa?$AAn?$AA?9?$AAb?$AAo?$AAk?$AAm?$AAa@ 1000aa10     libucrt:get_qualified_locale.obj
 0001:00009a34       ??_C@_1CE@DHMMHEPL@?$AAn?$AAo?$AAr?$AAw?$AAe?$AAg?$AAi?$AAa?$AAn?$AA?9?$AAn?$AAy?$AAn?$AAo?$AAr@ 1000aa34     libucrt:get_qualified_locale.obj
 0001:00009a58       ??_C@_1CK@OPNMHECD@?$AAp?$AAo?$AAr?$AAt?$AAu?$AAg?$AAu?$AAe?$AAs?$AAe?$AA?9?$AAb?$AAr?$AAa?$AAz@ 1000aa58     libucrt:get_qualified_locale.obj
 0001:00009a84       ??_C@_1CE@KEEHCDB@?$AAs?$AAp?$AAa?$AAn?$AAi?$AAs?$AAh?$AA?9?$AAa?$AAr?$AAg?$AAe?$AAn?$AAt?$AAi@ 1000aa84     libucrt:get_qualified_locale.obj
 0001:00009aa8       ??_C@_1CA@GIAOLHJD@?$AAs?$AAp?$AAa?$AAn?$AAi?$AAs?$AAh?$AA?9?$AAb?$AAo?$AAl?$AAi?$AAv?$AAi?$AAa@ 1000aaa8     libucrt:get_qualified_locale.obj
 0001:00009ac8       ??_C@_1BM@OJNDFNPD@?$AAs?$AAp?$AAa?$AAn?$AAi?$AAs?$AAh?$AA?9?$AAc?$AAh?$AAi?$AAl?$AAe@ 1000aac8     libucrt:get_qualified_locale.obj
 0001:00009ae4       ??_C@_1CC@OCOLPALL@?$AAs?$AAp?$AAa?$AAn?$AAi?$AAs?$AAh?$AA?9?$AAc?$AAo?$AAl?$AAo?$AAm?$AAb?$AAi@ 1000aae4     libucrt:get_qualified_locale.obj
 0001:00009b08       ??_C@_1CG@BPOFMKBB@?$AAs?$AAp?$AAa?$AAn?$AAi?$AAs?$AAh?$AA?9?$AAc?$AAo?$AAs?$AAt?$AAa?$AA?5?$AAr@ 1000ab08     libucrt:get_qualified_locale.obj
 0001:00009b30       ??_C@_1DG@IGOBAPBB@?$AAs?$AAp?$AAa?$AAn?$AAi?$AAs?$AAh?$AA?9?$AAd?$AAo?$AAm?$AAi?$AAn?$AAi?$AAc@ 1000ab30     libucrt:get_qualified_locale.obj
 0001:00009b68       ??_C@_1CA@JHAPGEGI@?$AAs?$AAp?$AAa?$AAn?$AAi?$AAs?$AAh?$AA?9?$AAe?$AAc?$AAu?$AAa?$AAd?$AAo?$AAr@ 1000ab68     libucrt:get_qualified_locale.obj
 0001:00009b88       ??_C@_1CI@LAPALJPP@?$AAs?$AAp?$AAa?$AAn?$AAi?$AAs?$AAh?$AA?9?$AAe?$AAl?$AA?5?$AAs?$AAa?$AAl?$AAv@ 1000ab88     libucrt:get_qualified_locale.obj
 0001:00009bb0       ??_C@_1CE@PDGBOFOM@?$AAs?$AAp?$AAa?$AAn?$AAi?$AAs?$AAh?$AA?9?$AAg?$AAu?$AAa?$AAt?$AAe?$AAm?$AAa@ 1000abb0     libucrt:get_qualified_locale.obj
 0001:00009bd4       ??_C@_1CC@NBEBAODI@?$AAs?$AAp?$AAa?$AAn?$AAi?$AAs?$AAh?$AA?9?$AAh?$AAo?$AAn?$AAd?$AAu?$AAr?$AAa@ 1000abd4     libucrt:get_qualified_locale.obj
 0001:00009bf8       ??_C@_1CA@LLKGHBMF@?$AAs?$AAp?$AAa?$AAn?$AAi?$AAs?$AAh?$AA?9?$AAm?$AAe?$AAx?$AAi?$AAc?$AAa?$AAn@ 1000abf8     libucrt:get_qualified_locale.obj
 0001:00009c18       ??_C@_1BO@LKNDOIGD@?$AAs?$AAp?$AAa?$AAn?$AAi?$AAs?$AAh?$AA?9?$AAm?$AAo?$AAd?$AAe?$AAr?$AAn@ 1000ac18     libucrt:get_qualified_locale.obj
 0001:00009c38       ??_C@_1CE@NMDMOEEB@?$AAs?$AAp?$AAa?$AAn?$AAi?$AAs?$AAh?$AA?9?$AAn?$AAi?$AAc?$AAa?$AAr?$AAa?$AAg@ 1000ac38     libucrt:get_qualified_locale.obj
 0001:00009c5c       ??_C@_1BO@LLCBEJGB@?$AAs?$AAp?$AAa?$AAn?$AAi?$AAs?$AAh?$AA?9?$AAp?$AAa?$AAn?$AAa?$AAm?$AAa@ 1000ac5c     libucrt:get_qualified_locale.obj
 0001:00009c7c       ??_C@_1CC@FKPGGIHO@?$AAs?$AAp?$AAa?$AAn?$AAi?$AAs?$AAh?$AA?9?$AAp?$AAa?$AAr?$AAa?$AAg?$AAu?$AAa@ 1000ac7c     libucrt:get_qualified_locale.obj
 0001:00009ca0       ??_C@_1BK@CDEIHOOP@?$AAs?$AAp?$AAa?$AAn?$AAi?$AAs?$AAh?$AA?9?$AAp?$AAe?$AAr?$AAu@ 1000aca0     libucrt:get_qualified_locale.obj
 0001:00009cbc       ??_C@_1CI@GAHAKKGP@?$AAs?$AAp?$AAa?$AAn?$AAi?$AAs?$AAh?$AA?9?$AAp?$AAu?$AAe?$AAr?$AAt?$AAo?$AA?5@ 1000acbc     libucrt:get_qualified_locale.obj
 0001:00009ce4       ??_C@_1CA@NKJBCAGP@?$AAs?$AAp?$AAa?$AAn?$AAi?$AAs?$AAh?$AA?9?$AAu?$AAr?$AAu?$AAg?$AAu?$AAa?$AAy@ 1000ace4     libucrt:get_qualified_locale.obj
 0001:00009d04       ??_C@_1CE@ODILCONM@?$AAs?$AAp?$AAa?$AAn?$AAi?$AAs?$AAh?$AA?9?$AAv?$AAe?$AAn?$AAe?$AAz?$AAu?$AAe@ 1000ad04     libucrt:get_qualified_locale.obj
 0001:00009d28       ??_C@_1CA@OBNMCGFO@?$AAs?$AAw?$AAe?$AAd?$AAi?$AAs?$AAh?$AA?9?$AAf?$AAi?$AAn?$AAl?$AAa?$AAn?$AAd@ 1000ad28     libucrt:get_qualified_locale.obj
 0001:00009d48       ??_C@_1M@PIPDDPPI@?$AAs?$AAw?$AAi?$AAs?$AAs@ 1000ad48     libucrt:get_qualified_locale.obj
 0001:00009d54       ??_C@_15GMFIMNFM@?$AAu?$AAs@ 1000ad54     libucrt:get_qualified_locale.obj
 0001:00009d5c       ??_C@_17HAEBFAGL@?$AAu?$AAs?$AAa@ 1000ad5c     libucrt:get_qualified_locale.obj
 0001:00009d64       ??_C@_1BA@DPFJEPHB@?$AAa?$AAm?$AAe?$AAr?$AAi?$AAc?$AAa@ 1000ad64     libucrt:get_qualified_locale.obj
 0001:00009d74       ??_C@_1BA@ELOGGFK@?$AAb?$AAr?$AAi?$AAt?$AAa?$AAi?$AAn@ 1000ad74     libucrt:get_qualified_locale.obj
 0001:00009d84       ??_C@_1M@GHBGIGDA@?$AAc?$AAh?$AAi?$AAn?$AAa@ 1000ad84     libucrt:get_qualified_locale.obj
 0001:00009d90       ??_C@_1M@NCHEJOPO@?$AAc?$AAz?$AAe?$AAc?$AAh@ 1000ad90     libucrt:get_qualified_locale.obj
 0001:00009d9c       ??_C@_1BA@BKPAPBLA@?$AAe?$AAn?$AAg?$AAl?$AAa?$AAn?$AAd@ 1000ad9c     libucrt:get_qualified_locale.obj
 0001:00009dac       ??_C@_1BM@HKBCKIPC@?$AAg?$AAr?$AAe?$AAa?$AAt?$AA?5?$AAb?$AAr?$AAi?$AAt?$AAa?$AAi?$AAn@ 1000adac     libucrt:get_qualified_locale.obj
 0001:00009dc8       ??_C@_1BA@PPCHPGJB@?$AAh?$AAo?$AAl?$AAl?$AAa?$AAn?$AAd@ 1000adc8     libucrt:get_qualified_locale.obj
 0001:00009dd8       ??_C@_1BE@JBMPEGDG@?$AAh?$AAo?$AAn?$AAg?$AA?9?$AAk?$AAo?$AAn?$AAg@ 1000add8     libucrt:get_qualified_locale.obj
 0001:00009dec       ??_C@_1BI@KOELBBPJ@?$AAn?$AAe?$AAw?$AA?9?$AAz?$AAe?$AAa?$AAl?$AAa?$AAn?$AAd@ 1000adec     libucrt:get_qualified_locale.obj
 0001:00009e04       ??_C@_15HIEBHAIO@?$AAn?$AAz@ 1000ae04     libucrt:get_qualified_locale.obj
 0001:00009e0c       ??_C@_1BC@CHBCPFPI@?$AAp?$AAr?$AA?5?$AAc?$AAh?$AAi?$AAn?$AAa@ 1000ae0c     libucrt:get_qualified_locale.obj
 0001:00009e20       ??_C@_1BC@JAOIIFKD@?$AAp?$AAr?$AA?9?$AAc?$AAh?$AAi?$AAn?$AAa@ 1000ae20     libucrt:get_qualified_locale.obj
 0001:00009e34       ??_C@_1BI@BEHPPHKC@?$AAp?$AAu?$AAe?$AAr?$AAt?$AAo?$AA?9?$AAr?$AAi?$AAc?$AAo@ 1000ae34     libucrt:get_qualified_locale.obj
 0001:00009e4c       ??_C@_1O@PAEOFKDI@?$AAs?$AAl?$AAo?$AAv?$AAa?$AAk@ 1000ae4c     libucrt:get_qualified_locale.obj
 0001:00009e5c       ??_C@_1BK@FIHMCKAM@?$AAs?$AAo?$AAu?$AAt?$AAh?$AA?5?$AAa?$AAf?$AAr?$AAi?$AAc?$AAa@ 1000ae5c     libucrt:get_qualified_locale.obj
 0001:00009e78       ??_C@_1BI@NAEOODKB@?$AAs?$AAo?$AAu?$AAt?$AAh?$AA?5?$AAk?$AAo?$AAr?$AAe?$AAa@ 1000ae78     libucrt:get_qualified_locale.obj
 0001:00009e90       ??_C@_1BK@FBDGGIFF@?$AAs?$AAo?$AAu?$AAt?$AAh?$AA?9?$AAa?$AAf?$AAr?$AAi?$AAc?$AAa@ 1000ae90     libucrt:get_qualified_locale.obj
 0001:00009eac       ??_C@_1BI@GHLEJDPK@?$AAs?$AAo?$AAu?$AAt?$AAh?$AA?9?$AAk?$AAo?$AAr?$AAe?$AAa@ 1000aeac     libucrt:get_qualified_locale.obj
 0001:00009ec4       ??_C@_1CE@PLHLOMJF@?$AAt?$AAr?$AAi?$AAn?$AAi?$AAd?$AAa?$AAd?$AA?5?$AA?$CG?$AA?5?$AAt?$AAo?$AAb?$AAa@ 1000aec4     libucrt:get_qualified_locale.obj
 0001:00009ee8       ??_C@_1BO@MODIMHHI@?$AAu?$AAn?$AAi?$AAt?$AAe?$AAd?$AA?9?$AAk?$AAi?$AAn?$AAg?$AAd?$AAo?$AAm@ 1000aee8     libucrt:get_qualified_locale.obj
 0001:00009f08       ??_C@_1BM@FFHJONBJ@?$AAu?$AAn?$AAi?$AAt?$AAe?$AAd?$AA?9?$AAs?$AAt?$AAa?$AAt?$AAe?$AAs@ 1000af08     libucrt:get_qualified_locale.obj
 0001:00009f24       ??_C@_19MPDNHKDG@?$AAu?$AAt?$AAf?$AA8@ 1000af24     libucrt:get_qualified_locale.obj
 0001:00009f30       ??_C@_17DNCLJFIF@?$AAA?$AAC?$AAP@ 1000af30     libucrt:get_qualified_locale.obj
 0001:00009f38       ??_C@_1M@FPEIIFAM@?$AAu?$AAt?$AAf?$AA?9?$AA8@ 1000af38     libucrt:get_qualified_locale.obj
 0001:00009f44       ??_C@_17CIKBIHLH@?$AAO?$AAC?$AAP@ 1000af44     libucrt:get_qualified_locale.obj
 0001:00009f4c       ___rglangidNotDefault      1000af4c     libucrt:getqloc_downlevel.obj
 0001:00009f60       ___acrt_log10_table_t      1000af60     libucrt:log10_tables.obj
 0001:0000a370       ___acrt_log10_table_cb     1000b370     libucrt:log10_tables.obj
 0001:0000a780       ___acrt_pow_rcp_t1         1000b780     libucrt:pow_tables.obj
 0001:0000ab90       ___acrt_pow_log2_t1        1000bb90     libucrt:pow_tables.obj
 0001:0000b3a0       ___acrt_pow_rcp_t2         1000c3a0     libucrt:pow_tables.obj
 0001:0000b7b0       ___acrt_pow_log2_t2        1000c7b0     libucrt:pow_tables.obj
 0001:0000bfc0       ___acrt_pow_rcp_t3         1000cfc0     libucrt:pow_tables.obj
 0001:0000c7d0       ___acrt_pow_log2_t3        1000d7d0     libucrt:pow_tables.obj
 0001:0000d7e0       ___acrt_pow_clv            1000e7e0     libucrt:pow_tables.obj
 0001:0000d800       ___acrt_pow_exp2_tbl       1000e800     libucrt:pow_tables.obj
 0001:0000e000       ??_C@_1BA@BALFACEM@?$AAC?$AAO?$AAN?$AAO?$AAU?$AAT?$AA$@ 1000f000     libucrt:initcon.obj
 0001:0000e030       __load_config_used         1000f030     LIBCMT:loadcfg.obj
 0001:0000e0d4       ??_R4exception@std@@6B@    1000f0d4     libcpmt:xthrow.obj
 0001:0000e0e8       ??_R3exception@std@@8      1000f0e8     libcpmt:xthrow.obj
 0001:0000e0f8       ??_R2exception@std@@8      1000f0f8     libcpmt:xthrow.obj
 0001:0000e100       ??_R1A@?0A@EA@exception@std@@8 1000f100     libcpmt:xthrow.obj
 0001:0000e11c       ??_R4bad_alloc@std@@6B@    1000f11c     libcpmt:xthrow.obj
 0001:0000e130       ??_R3bad_alloc@std@@8      1000f130     libcpmt:xthrow.obj
 0001:0000e140       ??_R2bad_alloc@std@@8      1000f140     libcpmt:xthrow.obj
 0001:0000e14c       ??_R1A@?0A@EA@bad_alloc@std@@8 1000f14c     libcpmt:xthrow.obj
 0001:0000e168       ??_R4logic_error@std@@6B@  1000f168     libcpmt:xthrow.obj
 0001:0000e17c       ??_R3logic_error@std@@8    1000f17c     libcpmt:xthrow.obj
 0001:0000e18c       ??_R2logic_error@std@@8    1000f18c     libcpmt:xthrow.obj
 0001:0000e198       ??_R1A@?0A@EA@logic_error@std@@8 1000f198     libcpmt:xthrow.obj
 0001:0000e1b4       ??_R4length_error@std@@6B@ 1000f1b4     libcpmt:xthrow.obj
 0001:0000e1c8       ??_R3length_error@std@@8   1000f1c8     libcpmt:xthrow.obj
 0001:0000e1d8       ??_R2length_error@std@@8   1000f1d8     libcpmt:xthrow.obj
 0001:0000e1e8       ??_R1A@?0A@EA@length_error@std@@8 1000f1e8     libcpmt:xthrow.obj
 0001:0000e204       ??_R4out_of_range@std@@6B@ 1000f204     libcpmt:xthrow.obj
 0001:0000e218       ??_R3out_of_range@std@@8   1000f218     libcpmt:xthrow.obj
 0001:0000e228       ??_R2out_of_range@std@@8   1000f228     libcpmt:xthrow.obj
 0001:0000e238       ??_R1A@?0A@EA@out_of_range@std@@8 1000f238     libcpmt:xthrow.obj
 0001:0000e254       ??_R4runtime_error@std@@6B@ 1000f254     libcpmt:xthrow.obj
 0001:0000e268       ??_R3runtime_error@std@@8  1000f268     libcpmt:xthrow.obj
 0001:0000e278       ??_R2runtime_error@std@@8  1000f278     libcpmt:xthrow.obj
 0001:0000e284       ??_R1A@?0A@EA@runtime_error@std@@8 1000f284     libcpmt:xthrow.obj
 0001:0000e2a0       ??_R4bad_function_call@std@@6B@ 1000f2a0     libcpmt:xthrow.obj
 0001:0000e2b4       ??_R3bad_function_call@std@@8 1000f2b4     libcpmt:xthrow.obj
 0001:0000e2c4       ??_R2bad_function_call@std@@8 1000f2c4     libcpmt:xthrow.obj
 0001:0000e2d0       ??_R1A@?0A@EA@bad_function_call@std@@8 1000f2d0     libcpmt:xthrow.obj
 0001:0000e2ec       ??_R4_Facet_base@std@@6B@  1000f2ec     libcpmt:locale0.obj
 0001:0000e300       ??_R3_Facet_base@std@@8    1000f300     libcpmt:locale0.obj
 0001:0000e310       ??_R2_Facet_base@std@@8    1000f310     libcpmt:locale0.obj
 0001:0000e318       ??_R1A@?0A@EA@_Facet_base@std@@8 1000f318     libcpmt:locale0.obj
 0001:0000e334       ??_R4_Locimp@locale@std@@6B@ 1000f334     libcpmt:locale0.obj
 0001:0000e348       ??_R3_Locimp@locale@std@@8 1000f348     libcpmt:locale0.obj
 0001:0000e358       ??_R2_Locimp@locale@std@@8 1000f358     libcpmt:locale0.obj
 0001:0000e36c       ??_R1A@?0A@EA@_Locimp@locale@std@@8 1000f36c     libcpmt:locale0.obj
 0001:0000e388       ??_R1A@?0A@EA@facet@locale@std@@8 1000f388     libcpmt:locale0.obj
 0001:0000e3a4       ??_R3facet@locale@std@@8   1000f3a4     libcpmt:locale0.obj
 0001:0000e3b4       ??_R2facet@locale@std@@8   1000f3b4     libcpmt:locale0.obj
 0001:0000e3c4       ??_R13?0A@EA@_Crt_new_delete@std@@8 1000f3c4     libcpmt:locale0.obj
 0001:0000e3e0       ??_R3_Crt_new_delete@std@@8 1000f3e0     libcpmt:locale0.obj
 0001:0000e3f0       ??_R2_Crt_new_delete@std@@8 1000f3f0     libcpmt:locale0.obj
 0001:0000e3f8       ??_R1A@?0A@EA@_Crt_new_delete@std@@8 1000f3f8     libcpmt:locale0.obj
 0001:0000e414       ??_R4bad_array_new_length@std@@6B@ 1000f414     libcpmt:locale.obj
 0001:0000e428       ??_R3bad_array_new_length@std@@8 1000f428     libcpmt:locale.obj
 0001:0000e438       ??_R2bad_array_new_length@std@@8 1000f438     libcpmt:locale.obj
 0001:0000e448       ??_R1A@?0A@EA@bad_array_new_length@std@@8 1000f448     libcpmt:locale.obj
 0001:0000e464       ??_R4?$numpunct@_W@std@@6B@ 1000f464     libcpmt:wlocale.obj
 0001:0000e478       ??_R3?$numpunct@_W@std@@8  1000f478     libcpmt:wlocale.obj
 0001:0000e488       ??_R2?$numpunct@_W@std@@8  1000f488     libcpmt:wlocale.obj
 0001:0000e49c       ??_R1A@?0A@EA@?$numpunct@_W@std@@8 1000f49c     libcpmt:wlocale.obj
 0001:0000e4b8       ??_R4type_info@@6B@        1000f4b8     LIBCMT:std_type_info_static.obj
 0001:0000e4cc       ??_R3type_info@@8          1000f4cc     LIBCMT:std_type_info_static.obj
 0001:0000e4dc       ??_R2type_info@@8          1000f4dc     LIBCMT:std_type_info_static.obj
 0001:0000e4e4       ??_R1A@?0A@EA@type_info@@8 1000f4e4     LIBCMT:std_type_info_static.obj
 0001:0000e500       ??_R4bad_exception@std@@6B@ 1000f500     libvcruntime:frame.obj
 0001:0000e514       ??_R3bad_exception@std@@8  1000f514     libvcruntime:frame.obj
 0001:0000e524       ??_R2bad_exception@std@@8  1000f524     libvcruntime:frame.obj
 0001:0000e530       ??_R1A@?0A@EA@bad_exception@std@@8 1000f530     libvcruntime:frame.obj
 0001:0000e550       ___safe_se_handler_table   1000f550     <linker-defined>
 0001:0000e978       ___rtc_iaa                 1000f978     LIBCMT:initsect.obj
 0001:0000e97c       ___rtc_izz                 1000f97c     LIBCMT:initsect.obj
 0001:0000e980       ___rtc_taa                 1000f980     LIBCMT:initsect.obj
 0001:0000e984       ___rtc_tzz                 1000f984     LIBCMT:initsect.obj
 0001:0000ea10       __chkstk                   1000fa10 f   chkstk.obj
 0001:0000ea10       __alloca_probe             1000fa10 f   chkstk.obj
 0001:0000ea40       ??1?$basic_string@_WU?$char_traits@_W@std@@V?$allocator@_W@2@@std@@QAE@XZ 1000fa40 f i fileio.obj
 0001:0000ea40       ?_Tidy_deallocate@?$basic_string@_WU?$char_traits@_W@std@@V?$allocator@_W@2@@std@@AAEXXZ 1000fa40 f i fileio.obj
 0001:0000ea40       ??1PerfLib@@QAE@XZ         1000fa40 f i perfthread.obj
 0001:0000eaa0       ??1?$vector@Umode@@V?$allocator@Umode@@@std@@@std@@QAE@XZ 1000faa0 f i fileio.obj
 0001:0000eb30       ??1columns@@QAE@XZ         1000fb30 f i fileio.obj
 0001:0000ec20       ??1mode@@QAE@XZ            1000fc20 f i fileio.obj
 0001:0000ec40       ?WriteToFile@@YAIPAXABV?$basic_string_view@_WU?$char_traits@_W@std@@@std@@@Z 1000fc40 f   fileio.obj
 0001:0000ec70       ?WriteToFile@@YAIPAX_W@Z   1000fc70 f   fileio.obj
 0001:0000eca0       ?_Destroy@?$vector@Umode@@V?$allocator@Umode@@@std@@@std@@AAEXPAUmode@@0@Z 1000fca0 f i fileio.obj
 0001:0000ecd0       ?deallocate@?$allocator@_W@std@@QAEXQA_WI@Z 1000fcd0 f i fileio.obj
 0001:0000ed10       ??$format_float@N@detail@v7@fmt@@YAHNHUfloat_specs@012@AAV?$buffer@D@012@@Z 1000fd10 f i format.obj
 0001:0000f450       ??$?XH@bigint@detail@v7@fmt@@QAEAAV0123@H@Z 10010450 f i format.obj
 0001:0000f4d0       ??$?X_K@bigint@detail@v7@fmt@@QAEAAV0123@_K@Z 100104d0 f i format.obj
 0001:0000f5b0       ??$_Maklocstr@D@std@@YAPADPBDPADABU_Cvtvec@@@Z 100105b0 f i format.obj
 0001:0000f600       ??$_Maklocstr@_W@std@@YAPA_WPBDPA_WABU_Cvtvec@@@Z 10010600 f i format.obj
 0001:0000f6d0       ??$assign@M$0A@@fp@detail@v7@fmt@@QAE_NM@Z 100106d0 f i format.obj
 0001:0000f730       ??$assign@N$0A@@fp@detail@v7@fmt@@QAE_NN@Z 10010730 f i format.obj
 0001:0000f730       ??$assign@O$0A@@fp@detail@v7@fmt@@QAE_NO@Z 10010730 f i format.obj
 0001:0000f7a0       ??$decimal_point_impl@_W@detail@v7@fmt@@YA_WVlocale_ref@012@@Z 100107a0 f i format.obj
 0001:0000f810       ??$do_throw@Vformat_error@v7@fmt@@@detail@v7@fmt@@YAXABVformat_error@12@@Z 10010810 f i format.obj
 0001:0000f840       ??$fallback_format@N@detail@v7@fmt@@YAXNH_NAAV?$buffer@D@012@AAH@Z 10010840 f i format.obj
 0001:0000f840       ??$fallback_format@O@detail@v7@fmt@@YAXOH_NAAV?$buffer@D@012@AAH@Z 10010840 f i format.obj
 0001:00010160       ??$format_decimal@DI@detail@v7@fmt@@YA?AU?$format_decimal_result@PAD@012@PADIH@Z 10011160 f i format.obj
 0001:000101c0       ??$format_decimal@DIV?$buffer_appender@D@detail@v7@fmt@@$0A@@detail@v7@fmt@@YA?AU?$format_decimal_result@V?$buffer_appender@D@detail@v7@fmt@@@012@V?$buffer_appender@D@012@IH@Z 100111c0 f i format.obj
 0001:00010230       ??$format_decimal@D_K@detail@v7@fmt@@YA?AU?$format_decimal_result@PAD@012@PAD_KH@Z 10011230 f i format.obj
 0001:00010350       ??$format_decimal@D_KV?$buffer_appender@D@detail@v7@fmt@@$0A@@detail@v7@fmt@@YA?AU?$format_decimal_result@V?$buffer_appender@D@detail@v7@fmt@@@012@V?$buffer_appender@D@012@_KH@Z 10011350 f i format.obj
 0001:000103c0       ??$format_float@O@detail@v7@fmt@@YAHOHUfloat_specs@012@AAV?$buffer@D@012@@Z 100113c0 f i format.obj
 0001:00010b00       ??$get@Vlocale@std@@@locale_ref@detail@v7@fmt@@QBE?AVlocale@std@@XZ 10011b00 f i format.obj
 0001:00010bc0       ??$grouping_impl@_W@detail@v7@fmt@@YA?AV?$basic_string@DU?$char_traits@D@std@@V?$allocator@D@2@@std@@Vlocale_ref@012@@Z 10011bc0 f i format.obj
 0001:00010c30       ??$is_endpoint_integer@M@dragonbox@detail@v7@fmt@@YA_NIHH@Z 10011c30 f i format.obj
 0001:00010c70       ??$is_endpoint_integer@N@dragonbox@detail@v7@fmt@@YA_N_KHH@Z 10011c70 f i format.obj
 0001:00010ca0       ??$normalize@$0A@@detail@v7@fmt@@YA?AVfp@012@V3012@@Z 10011ca0 f i format.obj
 0001:00010d00       ??$snprintf_float@N@detail@v7@fmt@@YAHNHUfloat_specs@012@AAV?$buffer@D@012@@Z 10011d00 f i format.obj
 0001:00010f40       ??$snprintf_float@O@detail@v7@fmt@@YAHOHUfloat_specs@012@AAV?$buffer@D@012@@Z 10011f40 f i format.obj
 0001:00011190       ??$thousands_sep_impl@_W@detail@v7@fmt@@YA_WVlocale_ref@012@@Z 10012190 f i format.obj
 0001:00011200       ??$to_decimal@M@dragonbox@detail@v7@fmt@@YA?AU?$decimal_fp@M@0123@M@Z 10012200 f i format.obj
 0001:000115f0       ??$to_decimal@N@dragonbox@detail@v7@fmt@@YA?AU?$decimal_fp@N@0123@N@Z 100125f0 f i format.obj
 0001:00012140       ??$use_facet@V?$numpunct@_W@std@@@std@@YAABV?$numpunct@_W@0@ABVlocale@0@@Z 10013140 f i format.obj
 0001:000123b0       ??$write@DV?$buffer_appender@D@detail@v7@fmt@@I$0A@@detail@v7@fmt@@YA?AV?$buffer_appender@D@012@V3012@I@Z 100133b0 f i format.obj
 0001:00012450       ??$write@DV?$buffer_appender@D@detail@v7@fmt@@_K$0A@@detail@v7@fmt@@YA?AV?$buffer_appender@D@012@V3012@_K@Z 10013450 f i format.obj
 0001:00012510       ??0_Locinfo@std@@QAE@PBD@Z 10013510 f i format.obj
 0001:000125b0       ??0bad_alloc@std@@QAE@ABV01@@Z 100135b0 f i format.obj
 0001:000125e0       ??0bad_array_new_length@std@@QAE@ABV01@@Z 100135e0 f i format.obj
 0001:00012610       ??0bad_array_new_length@std@@QAE@XZ 10013610 f i format.obj
 0001:00012630       ??0exception@std@@QAE@ABV01@@Z 10013630 f i format.obj
 0001:00012660       ??0exception@std@@QAE@QBD@Z 10013660 f i format.obj
 0001:000126a0       ??0format_error@v7@fmt@@QAE@ABV012@@Z 100136a0 f i format.obj
 0001:000126d0       ??0format_error@v7@fmt@@QAE@PBD@Z 100136d0 f i format.obj
 0001:00012720       ??0runtime_error@std@@QAE@ABV01@@Z 10013720 f i format.obj
 0001:00012750       ??0runtime_error@std@@QAE@PBD@Z 10013750 f i format.obj
 0001:000127a0       ??1?$_Tidy_guard@V?$numpunct@_W@std@@@std@@QAE@XZ 100137a0 f i format.obj
 0001:000127d0       ??1?$_Yarn@D@std@@QAE@XZ   100137d0 f i format.obj
 0001:000127d0       ??1?$_Yarn@_W@std@@QAE@XZ  100137d0 f i format.obj
 0001:000127f0       ??1?$basic_memory_buffer@D$0BPE@V?$allocator@D@std@@@v7@fmt@@QAE@XZ 100137f0 f i format.obj
 0001:00012830       ??1?$basic_memory_buffer@I$0CA@V?$allocator@I@std@@@v7@fmt@@QAE@XZ 10013830 f i format.obj
 0001:00012830       ??1bigint@detail@v7@fmt@@QAE@XZ 10013830 f i format.obj
 0001:00012880       ??1?$basic_memory_buffer@_W$0BPE@V?$allocator@_W@std@@@v7@fmt@@QAE@XZ 10013880 f i format.obj
 0001:000128d0       ??1?$basic_string@DU?$char_traits@D@std@@V?$allocator@D@2@@std@@QAE@XZ 100138d0 f i format.obj
 0001:00012920       ??1?$unique_ptr@V_Facet_base@std@@U?$default_delete@V_Facet_base@std@@@2@@std@@QAE@XZ 10013920 f i format.obj
 0001:00012930       ??1_Locinfo@std@@QAE@XZ    10013930 f i format.obj
 0001:00012a00       ??1length_error@std@@UAE@XZ 10013a00 f i libcpmt:xthrow.obj
 0001:00012a00       ??1bad_exception@std@@UAE@XZ 10013a00 f i libvcruntime:frame.obj
 0001:00012a00       ??1out_of_range@std@@UAE@XZ 10013a00 f i libcpmt:xthrow.obj
 0001:00012a00       ??1bad_alloc@std@@UAE@XZ   10013a00 f i format.obj
 0001:00012a00       ??1bad_function_call@std@@UAE@XZ 10013a00 f i libcpmt:xthrow.obj
 0001:00012a00       ??1bad_array_new_length@std@@UAE@XZ 10013a00 f i format.obj
 0001:00012a00       ??1runtime_error@std@@UAE@XZ 10013a00 f i format.obj
 0001:00012a00       ??1format_error@v7@fmt@@UAE@XZ 10013a00 f i format.obj
 0001:00012a20       ??1facet@locale@std@@MAE@XZ 10013a20 f i format.obj
 0001:00012a30       ??1locale@std@@QAE@XZ      10013a30 f i format.obj
 0001:00012a50       ??Ddetail@v7@fmt@@YA?AVfp@012@V3012@0@Z 10013a50 f i format.obj
 0001:00012af0       ??_3bigint@detail@v7@fmt@@QAEAAV0123@H@Z 10013af0 f i format.obj
 0001:00012ba0       ??_G?$numpunct@_W@std@@MAEPAXI@Z 10013ba0 f i format.obj
 0001:00012ba0       ??_E?$numpunct@_W@std@@MAEPAXI@Z 10013ba0 f i format.obj
 0001:00012bf0       ??_G_Facet_base@std@@UAEPAXI@Z 10013bf0 f i format.obj
 0001:00012bf0       ??_E_Facet_base@std@@UAEPAXI@Z 10013bf0 f i format.obj
 0001:00012c20       ??_Eruntime_error@std@@UAEPAXI@Z 10013c20 f i format.obj
 0001:00012c20       ??_Gruntime_error@std@@UAEPAXI@Z 10013c20 f i format.obj
 0001:00012c20       ??_Gbad_alloc@std@@UAEPAXI@Z 10013c20 f i format.obj
 0001:00012c20       ??_Gformat_error@v7@fmt@@UAEPAXI@Z 10013c20 f i format.obj
 0001:00012c20       ??_Ebad_array_new_length@std@@UAEPAXI@Z 10013c20 f i format.obj
 0001:00012c20       ??_Eformat_error@v7@fmt@@UAEPAXI@Z 10013c20 f i format.obj
 0001:00012c20       ??_Gexception@std@@UAEPAXI@Z 10013c20 f i format.obj
 0001:00012c20       ??_Eexception@std@@UAEPAXI@Z 10013c20 f i format.obj
 0001:00012c20       ??_Ebad_alloc@std@@UAEPAXI@Z 10013c20 f i format.obj
 0001:00012c20       ??_Gbad_array_new_length@std@@UAEPAXI@Z 10013c20 f i format.obj
 0001:00012c50       ?_Decref@facet@locale@std@@UAEPAV_Facet_base@3@XZ 10013c50 f i format.obj
 0001:00012c70       ?_Incref@facet@locale@std@@UAEXXZ 10013c70 f i format.obj
 0001:00012c80       ?_Throw_bad_array_new_length@std@@YAXXZ 10013c80 f i format.obj
 0001:00012ca0       ?_Xlen@?$basic_string@_WU?$char_traits@_W@std@@V?$allocator@_W@2@@std@@CAXXZ 10013ca0 f i format.obj
 0001:00012ca0       ?_Xlen@?$basic_string@DU?$char_traits@D@std@@V?$allocator@D@2@@std@@CAXXZ 10013ca0 f i format.obj
 0001:00012cb0       ?add_compare@detail@v7@fmt@@YAHABVbigint@123@00@Z 10013cb0 f i format.obj
 0001:00012e50       ?allocate@?$allocator@D@std@@QAEPADI@Z 10013e50 f i format.obj
 0001:00012e50       ?allocate@?$allocator@E@std@@QAEPAEI@Z 10013e50 f i perfthread.obj
 0001:00012ea0       ?allocate@?$allocator@_W@std@@QAEPA_WI@Z 10013ea0 f i format.obj
 0001:00012f00       ?assign@?$basic_string@DU?$char_traits@D@std@@V?$allocator@D@2@@std@@QAEAAV12@QBDI@Z 10013f00 f i format.obj
 0001:00012ff0       ?assign@?$basic_string@_WU?$char_traits@_W@std@@V?$allocator@_W@2@@std@@QAEAAV12@QB_WI@Z 10013ff0 f i format.obj
 0001:000130f0       ?assign@bigint@detail@v7@fmt@@QAEX_K@Z 100140f0 f i format.obj
 0001:00013150       ?assign_pow10@bigint@detail@v7@fmt@@QAEXH@Z 10014150 f i format.obj
 0001:00013230       ?compare@detail@v7@fmt@@YAHABVbigint@123@0@Z 10014230 f i format.obj
 0001:000132d0       ?compute_mul_parity@?$cache_accessor@M@dragonbox@detail@v7@fmt@@SA_NIAB_KH@Z 100142d0 f i format.obj
 0001:00013310       ?compute_mul_parity@?$cache_accessor@N@dragonbox@detail@v7@fmt@@SA_N_KABUuint128_wrapper@345@H@Z 10014310 f i format.obj
 0001:00013380       ?count_digits@detail@v7@fmt@@YAH_K@Z 10014380 f i format.obj
 0001:000133e0       ?divisible_by_power_of_5@dragonbox@detail@v7@fmt@@YA_N_KH@Z 100143e0 f i format.obj
 0001:00013420       ?divmod_assign@bigint@detail@v7@fmt@@QAEHABV1234@@Z 10014420 f i format.obj
 0001:000135a0       ?do_decimal_point@?$numpunct@_W@std@@MBE_WXZ 100145a0 f i format.obj
 0001:000135b0       ?do_falsename@?$numpunct@_W@std@@MBE?AV?$basic_string@_WU?$char_traits@_W@std@@V?$allocator@_W@2@@2@XZ 100145b0 f i format.obj
 0001:000135f0       ?do_grouping@?$numpunct@_W@std@@MBE?AV?$basic_string@DU?$char_traits@D@std@@V?$allocator@D@2@@2@XZ 100145f0 f i format.obj
 0001:00013630       ?do_thousands_sep@?$numpunct@_W@std@@MBE_WXZ 10014630 f i format.obj
 0001:00013640       ?do_truename@?$numpunct@_W@std@@MBE?AV?$basic_string@_WU?$char_traits@_W@std@@V?$allocator@_W@2@@2@XZ 10014640 f i format.obj
 0001:00013680       ?fmt_snprintf@detail@v7@fmt@@YAHPADIPBDZZ 10014680 f i format.obj
 0001:000136b0       ?get_cached_power@?$cache_accessor@N@dragonbox@detail@v7@fmt@@SA?AUuint128_wrapper@345@H@Z 100146b0 f i format.obj
 0001:000138b0       ?get_cached_power@detail@v7@fmt@@YA?AVfp@123@HAAH@Z 100148b0 f i format.obj
 0001:00013910       ?get_round_direction@detail@v7@fmt@@YA?AW4round_direction@123@_K00@Z 10014910 f i format.obj
 0001:000139c0       ?grow@?$basic_memory_buffer@D$0BPE@V?$allocator@D@std@@@v7@fmt@@MAEXI@Z 100149c0 f i format.obj
 0001:00013a80       ?grow@?$basic_memory_buffer@I$0CA@V?$allocator@I@std@@@v7@fmt@@MAEXI@Z 10014a80 f i format.obj
 0001:00013b50       ?grow@?$basic_memory_buffer@_W$0BPE@V?$allocator@_W@std@@@v7@fmt@@MAEXI@Z 10014b50 f i format.obj
 0001:00013c20       ?on_error@error_handler@detail@v7@fmt@@QAEXPBD@Z 10014c20 f   format.obj
 0001:00013cc0       ?on_start@fixed_handler@detail@v7@fmt@@QAE?AW4result@digits@234@_K00AAH@Z 10014cc0 f i format.obj
 0001:00013d30       ?push_back@?$buffer@D@detail@v7@fmt@@QAEXABD@Z 10014d30 f i format.obj
 0001:00013d60       ?square@bigint@detail@v7@fmt@@QAEXXZ 10014d60 f i format.obj
 0001:00014060       ?try_resize@?$buffer@D@detail@v7@fmt@@QAEXI@Z 10015060 f i format.obj
 0001:00014090       ?umul128@dragonbox@detail@v7@fmt@@YA?AUuint128_wrapper@234@_K0@Z 10015090 f i format.obj
 0001:00014130       ?what@exception@std@@UBEPBDXZ 10015130 f i format.obj
 0001:00014140       ___local_stdio_printf_options 10015140 f i format.obj
 0001:00014150       ??$?0V?$basic_string_view@_WU?$char_traits@_W@std@@@std@@X@?$basic_string@_WU?$char_traits@_W@std@@V?$allocator@_W@2@@std@@QAE@ABV?$basic_string_view@_WU?$char_traits@_W@std@@@1@ABV?$allocator@_W@1@@Z 10015150 f i handles.obj
 0001:00014180       ??$?0V?$value@V?$basic_format_context@V?$buffer_appender@_W@detail@v7@fmt@@_W@v7@fmt@@@detail@v7@fmt@@V0123@V0123@V0123@V0123@@?$arg_data@V?$value@V?$basic_format_context@V?$buffer_appender@_W@detail@v7@fmt@@_W@v7@fmt@@@detail@v7@fmt@@_W$04$0A@@detail@v7@fmt@@QAE@ABV?$value@V?$basic_format_context@V?$buffer_appender@_W@detail@v7@fmt@@_W@v7@fmt@@@123@0000@Z 10015180 f i handles.obj
 0001:000141e0       ??$?RH$0A@@?$arg_formatter_base@V?$buffer_appender@_W@detail@v7@fmt@@_WUerror_handler@234@@detail@v7@fmt@@QAE?AV?$buffer_appender@_W@123@H@Z 100151e0 f i handles.obj
 0001:00014230       ??$copy@PB_WV?$buffer_appender@_W@detail@v7@fmt@@@std@@YA?AV?$buffer_appender@_W@detail@v7@fmt@@PB_W0V1234@@Z 10015230 f i handles.obj
 0001:00014230       ??$copy_str@_WPA_WV?$buffer_appender@_W@detail@v7@fmt@@$0A@@detail@v7@fmt@@YA?AV?$buffer_appender@_W@012@PA_W0V3012@@Z 10015230 f i handles.obj
 0001:00014280       ??$copy_n@PB_WIV?$buffer_appender@_W@detail@v7@fmt@@@std@@YA?AV?$buffer_appender@_W@detail@v7@fmt@@PB_WIV1234@@Z 10015280 f i handles.obj
 0001:000142d0       ??$copy_str@_WPBDV?$buffer_appender@_W@detail@v7@fmt@@$0A@@detail@v7@fmt@@YA?AV?$buffer_appender@_W@012@PBD0V3012@@Z 100152d0 f i handles.obj
 0001:000142d0       ??$copy_str@_WPADV?$buffer_appender@_W@detail@v7@fmt@@$0A@@detail@v7@fmt@@YA?AV?$buffer_appender@_W@012@PAD0V3012@@Z 100152d0 f i handles.obj
 0001:00014320       ??$fill@V?$buffer_appender@_W@detail@v7@fmt@@_W@detail@v7@fmt@@YA?AV?$buffer_appender@_W@012@V3012@IABU?$fill_t@_W@012@@Z 10015320 f i handles.obj
 0001:00014380       ??$fill_n@V?$buffer_appender@_W@detail@v7@fmt@@H_W@std@@YA?AV?$buffer_appender@_W@detail@v7@fmt@@V1234@HAB_W@Z 10015380 f i handles.obj
 0001:000143e0       ??$fill_n@V?$buffer_appender@_W@detail@v7@fmt@@I_W@std@@YA?AV?$buffer_appender@_W@detail@v7@fmt@@V1234@IAB_W@Z 100153e0 f i handles.obj
 0001:00014440       ??$format_decimal@_WI@detail@v7@fmt@@YA?AU?$format_decimal_result@PA_W@012@PA_WIH@Z 10015440 f i handles.obj
 0001:000144d0       ??$format_decimal@_W_K@detail@v7@fmt@@YA?AU?$format_decimal_result@PA_W@012@PA_W_KH@Z 100154d0 f i handles.obj
 0001:00014600       ??$format_uint@$03_WV?$buffer_appender@_W@detail@v7@fmt@@I@detail@v7@fmt@@YA?AV?$buffer_appender@_W@012@V3012@IH_N@Z 10015600 f i handles.obj
 0001:000146c0       ??$get_dynamic_spec@Vprecision_checker@detail@v7@fmt@@V?$basic_format_arg@V?$basic_format_context@V?$buffer_appender@_W@detail@v7@fmt@@_W@v7@fmt@@@34@Uerror_handler@234@@detail@v7@fmt@@YAHV?$basic_format_arg@V?$basic_format_context@V?$buffer_appender@_W@detail@v7@fmt@@_W@v7@fmt@@@12@Uerror_handler@012@@Z 100156c0 f i handles.obj
 0001:00014790       ??$get_dynamic_spec@Vwidth_checker@detail@v7@fmt@@V?$basic_format_arg@V?$basic_format_context@V?$buffer_appender@_W@detail@v7@fmt@@_W@v7@fmt@@@34@Uerror_handler@234@@detail@v7@fmt@@YAHV?$basic_format_arg@V?$basic_format_context@V?$buffer_appender@_W@detail@v7@fmt@@_W@v7@fmt@@@12@Uerror_handler@012@@Z 10015790 f i handles.obj
 0001:00014860       ??$get_id@_W@?$basic_format_args@V?$basic_format_context@V?$buffer_appender@_W@detail@v7@fmt@@_W@v7@fmt@@@v7@fmt@@QBEHV?$basic_string_view@_W@12@@Z 10015860 f i handles.obj
 0001:00014970       ??$handle_int_type_spec@AAU?$int_writer@V?$buffer_appender@_W@detail@v7@fmt@@_WI@detail@v7@fmt@@@detail@v7@fmt@@YAXDAAU?$int_writer@V?$buffer_appender@_W@detail@v7@fmt@@_WI@012@@Z 10015970 f i handles.obj
 0001:00014c00       ??$handle_int_type_spec@AAU?$int_writer@V?$buffer_appender@_W@detail@v7@fmt@@_W_K@detail@v7@fmt@@@detail@v7@fmt@@YAXDAAU?$int_writer@V?$buffer_appender@_W@detail@v7@fmt@@_W_K@012@@Z 10015c00 f i handles.obj
 0001:00015040       ??$is_name_start@_W@detail@v7@fmt@@YA_N_W@Z 10016040 f i handles.obj
 0001:00015080       ??$parse_arg_id@_WAAU?$id_adapter@AAU?$format_handler@V?$buffer_appender@_W@detail@v7@fmt@@_WV?$basic_format_context@V?$buffer_appender@_W@detail@v7@fmt@@_W@34@@detail@v7@fmt@@_W@detail@v7@fmt@@@detail@v7@fmt@@YAPB_WPB_W0AAU?$id_adapter@AAU?$format_handler@V?$buffer_appender@_W@detail@v7@fmt@@_WV?$basic_format_context@V?$buffer_appender@_W@detail@v7@fmt@@_W@34@@detail@v7@fmt@@_W@012@@Z 10016080 f i handles.obj
 0001:00015240       ??$parse_arg_id@_WU?$precision_adapter@AAV?$specs_checker@V?$specs_handler@V?$basic_format_parse_context@_WUerror_handler@detail@v7@fmt@@@v7@fmt@@V?$basic_format_context@V?$buffer_appender@_W@detail@v7@fmt@@_W@23@@detail@v7@fmt@@@detail@v7@fmt@@_W@detail@v7@fmt@@@detail@v7@fmt@@YAPB_WPB_W0$$QAU?$precision_adapter@AAV?$specs_checker@V?$specs_handler@V?$basic_format_parse_context@_WUerror_handler@detail@v7@fmt@@@v7@fmt@@V?$basic_format_context@V?$buffer_appender@_W@detail@v7@fmt@@_W@23@@detail@v7@fmt@@@detail@v7@fmt@@_W@012@@Z 10016240 f i handles.obj
 0001:000154a0       ??$parse_arg_id@_WU?$width_adapter@AAV?$specs_checker@V?$specs_handler@V?$basic_format_parse_context@_WUerror_handler@detail@v7@fmt@@@v7@fmt@@V?$basic_format_context@V?$buffer_appender@_W@detail@v7@fmt@@_W@23@@detail@v7@fmt@@@detail@v7@fmt@@_W@detail@v7@fmt@@@detail@v7@fmt@@YAPB_WPB_W0$$QAU?$width_adapter@AAV?$specs_checker@V?$specs_handler@V?$basic_format_parse_context@_WUerror_handler@detail@v7@fmt@@@v7@fmt@@V?$basic_format_context@V?$buffer_appender@_W@detail@v7@fmt@@_W@23@@detail@v7@fmt@@@detail@v7@fmt@@_W@012@@Z 100164a0 f i handles.obj
 0001:00015700       ??$parse_float_type_spec@Uerror_handler@detail@v7@fmt@@_W@detail@v7@fmt@@YA?AUfloat_specs@012@ABU?$basic_format_specs@_W@12@$$QAUerror_handler@012@@Z 10016700 f i handles.obj
 0001:00015860       ??$parse_format_specs@_WAAV?$specs_checker@V?$specs_handler@V?$basic_format_parse_context@_WUerror_handler@detail@v7@fmt@@@v7@fmt@@V?$basic_format_context@V?$buffer_appender@_W@detail@v7@fmt@@_W@23@@detail@v7@fmt@@@detail@v7@fmt@@@detail@v7@fmt@@YAPB_WPB_W0AAV?$specs_checker@V?$specs_handler@V?$basic_format_parse_context@_WUerror_handler@detail@v7@fmt@@@v7@fmt@@V?$basic_format_context@V?$buffer_appender@_W@detail@v7@fmt@@_W@23@@detail@v7@fmt@@@012@@Z 10016860 f i handles.obj
 0001:00015bf0       ??$parse_format_string@$0A@_WAAU?$format_handler@V?$buffer_appender@_W@detail@v7@fmt@@_WV?$basic_format_context@V?$buffer_appender@_W@detail@v7@fmt@@_W@34@@detail@v7@fmt@@@detail@v7@fmt@@YAXV?$basic_string_view@_W@12@AAU?$format_handler@V?$buffer_appender@_W@detail@v7@fmt@@_WV?$basic_format_context@V?$buffer_appender@_W@detail@v7@fmt@@_W@34@@012@@Z 10016bf0 f i handles.obj
 0001:00015e30       ??$parse_nonnegative_int@_WAAV?$specs_checker@V?$specs_handler@V?$basic_format_parse_context@_WUerror_handler@detail@v7@fmt@@@v7@fmt@@V?$basic_format_context@V?$buffer_appender@_W@detail@v7@fmt@@_W@23@@detail@v7@fmt@@@detail@v7@fmt@@@detail@v7@fmt@@YAHAAPB_WPB_WAAV?$specs_checker@V?$specs_handler@V?$basic_format_parse_context@_WUerror_handler@detail@v7@fmt@@@v7@fmt@@V?$basic_format_context@V?$buffer_appender@_W@detail@v7@fmt@@_W@23@@detail@v7@fmt@@@012@@Z 10016e30 f i handles.obj
 0001:00015ea0       ??$parse_replacement_field@_WAAU?$format_handler@V?$buffer_appender@_W@detail@v7@fmt@@_WV?$basic_format_context@V?$buffer_appender@_W@detail@v7@fmt@@_W@34@@detail@v7@fmt@@@detail@v7@fmt@@YAPB_WPB_W0AAU?$format_handler@V?$buffer_appender@_W@detail@v7@fmt@@_WV?$basic_format_context@V?$buffer_appender@_W@detail@v7@fmt@@_W@34@@012@@Z 10016ea0 f i handles.obj
 0001:000161b0       ??$reserve@_W@detail@v7@fmt@@YA?AV?$buffer_appender@_W@012@V3012@I@Z 100171b0 f i handles.obj
 0001:000161e0       ??$vformat@_W$0A@@detail@v7@fmt@@YA?AV?$basic_string@_WU?$char_traits@_W@std@@V?$allocator@_W@2@@std@@V?$basic_string_view@_W@12@V?$basic_format_args@V?$basic_format_context@V?$buffer_appender@_W@detail@v7@fmt@@_W@v7@fmt@@@12@@Z 100171e0 f i handles.obj
 0001:00016380       ??$visit_format_arg@U?$default_arg_formatter@V?$buffer_appender@_W@detail@v7@fmt@@_W@detail@v7@fmt@@V?$basic_format_context@V?$buffer_appender@_W@detail@v7@fmt@@_W@34@@v7@fmt@@YA?AV?$buffer_appender@_W@detail@01@$$QAU?$default_arg_formatter@V?$buffer_appender@_W@detail@v7@fmt@@_W@301@ABV?$basic_format_arg@V?$basic_format_context@V?$buffer_appender@_W@detail@v7@fmt@@_W@v7@fmt@@@01@@Z 10017380 f i handles.obj
 0001:00016a00       ??$visit_format_arg@V?$arg_formatter@V?$buffer_appender@_W@detail@v7@fmt@@_W@detail@v7@fmt@@V?$basic_format_context@V?$buffer_appender@_W@detail@v7@fmt@@_W@34@@v7@fmt@@YA?AV?$buffer_appender@_W@detail@01@$$QAV?$arg_formatter@V?$buffer_appender@_W@detail@v7@fmt@@_W@301@ABV?$basic_format_arg@V?$basic_format_context@V?$buffer_appender@_W@detail@v7@fmt@@_W@v7@fmt@@@01@@Z 10017a00 f i handles.obj
 0001:00017050       ??$write@_W@?$arg_formatter_base@V?$buffer_appender@_W@detail@v7@fmt@@_WUerror_handler@234@@detail@v7@fmt@@AAEXV?$basic_string_view@_W@23@ABU?$basic_format_specs@_W@23@@Z 10018050 f i handles.obj
 0001:00017140       ??$write@_W@detail@v7@fmt@@YA?AV?$buffer_appender@_W@012@V3012@V?$basic_string_view@_W@12@@Z 10018140 f i handles.obj
 0001:000171c0       ??$write@_WV?$buffer_appender@_W@detail@v7@fmt@@@detail@v7@fmt@@YA?AV?$buffer_appender@_W@012@V3012@_N@Z 100181c0 f i handles.obj
 0001:00017220       ??$write@_WV?$buffer_appender@_W@detail@v7@fmt@@H$0A@@detail@v7@fmt@@YA?AV?$buffer_appender@_W@012@V3012@H@Z 10018220 f i handles.obj
 0001:00017350       ??$write@_WV?$buffer_appender@_W@detail@v7@fmt@@I$0A@@detail@v7@fmt@@YA?AV?$buffer_appender@_W@012@V3012@I@Z 10018350 f i handles.obj
 0001:00017410       ??$write@_WV?$buffer_appender@_W@detail@v7@fmt@@M$0A@@detail@v7@fmt@@YA?AV?$buffer_appender@_W@012@V3012@MU?$basic_format_specs@_W@12@Vlocale_ref@012@@Z 10018410 f i handles.obj
 0001:000177b0       ??$write@_WV?$buffer_appender@_W@detail@v7@fmt@@N$0A@@detail@v7@fmt@@YA?AV?$buffer_appender@_W@012@V3012@NU?$basic_format_specs@_W@12@Vlocale_ref@012@@Z 100187b0 f i handles.obj
 0001:00017b40       ??$write@_WV?$buffer_appender@_W@detail@v7@fmt@@O$0A@@detail@v7@fmt@@YA?AV?$buffer_appender@_W@012@V3012@OU?$basic_format_specs@_W@12@Vlocale_ref@012@@Z 10018b40 f i handles.obj
 0001:00017ed0       ??$write@_WV?$buffer_appender@_W@detail@v7@fmt@@_J$0A@@detail@v7@fmt@@YA?AV?$buffer_appender@_W@012@V3012@_J@Z 10018ed0 f i handles.obj
 0001:00018060       ??$write@_WV?$buffer_appender@_W@detail@v7@fmt@@_K$0A@@detail@v7@fmt@@YA?AV?$buffer_appender@_W@012@V3012@_K@Z 10019060 f i handles.obj
 0001:00018150       ??$write_bytes@_WV?$buffer_appender@_W@detail@v7@fmt@@@detail@v7@fmt@@YA?AV?$buffer_appender@_W@012@V3012@V?$basic_string_view@D@12@ABU?$basic_format_specs@_W@12@@Z 10019150 f i handles.obj
 0001:00018200       ??$write_exponent@_WV?$buffer_appender@_W@detail@v7@fmt@@@detail@v7@fmt@@YA?AV?$buffer_appender@_W@012@HV3012@@Z 10019200 f i handles.obj
 0001:00018350       ??$write_float@V?$buffer_appender@_W@detail@v7@fmt@@U?$decimal_fp@M@dragonbox@234@_W@detail@v7@fmt@@YA?AV?$buffer_appender@_W@012@V3012@ABU?$decimal_fp@M@dragonbox@012@ABU?$basic_format_specs@_W@12@Ufloat_specs@012@_W@Z 10019350 f i handles.obj
 0001:000187c0       ??$write_float@V?$buffer_appender@_W@detail@v7@fmt@@U?$decimal_fp@N@dragonbox@234@_W@detail@v7@fmt@@YA?AV?$buffer_appender@_W@012@V3012@ABU?$decimal_fp@N@dragonbox@012@ABU?$basic_format_specs@_W@12@Ufloat_specs@012@_W@Z 100197c0 f i handles.obj
 0001:00018c80       ??$write_float@V?$buffer_appender@_W@detail@v7@fmt@@Ubig_decimal_fp@234@_W@detail@v7@fmt@@YA?AV?$buffer_appender@_W@012@V3012@ABUbig_decimal_fp@012@ABU?$basic_format_specs@_W@12@Ufloat_specs@012@_W@Z 10019c80 f i handles.obj
 0001:00019070       ??$write_int@H@?$arg_formatter_base@V?$buffer_appender@_W@detail@v7@fmt@@_WUerror_handler@234@@detail@v7@fmt@@AAEXHABU?$basic_format_specs@_W@23@@Z 1001a070 f i handles.obj
 0001:00019100       ??$write_int@V?$buffer_appender@_W@detail@v7@fmt@@_WV<lambda_334078a1c3ce4015ffa40696fa38ce5d>@@@detail@v7@fmt@@YA?AV?$buffer_appender@_W@012@V3012@HV?$basic_string_view@D@12@ABU?$basic_format_specs@_W@12@V<lambda_334078a1c3ce4015ffa40696fa38ce5d>@@@Z 1001a100 f i handles.obj
 0001:000192a0       ??$write_int@V?$buffer_appender@_W@detail@v7@fmt@@_WV<lambda_3aab743e893e055a01d142799317e86e>@@@detail@v7@fmt@@YA?AV?$buffer_appender@_W@012@V3012@HV?$basic_string_view@D@12@ABU?$basic_format_specs@_W@12@V<lambda_3aab743e893e055a01d142799317e86e>@@@Z 1001a2a0 f i handles.obj
 0001:00019400       ??$write_int@V?$buffer_appender@_W@detail@v7@fmt@@_WV<lambda_a336c6cc6882bb19fb924babc4ca8e55>@@@detail@v7@fmt@@YA?AV?$buffer_appender@_W@012@V3012@HV?$basic_string_view@D@12@ABU?$basic_format_specs@_W@12@V<lambda_a336c6cc6882bb19fb924babc4ca8e55>@@@Z 1001a400 f i handles.obj
 0001:000195a0       ??$write_int@V?$buffer_appender@_W@detail@v7@fmt@@_WV<lambda_b9b646e2ea6794a8be864afcdd1db8ed>@@@detail@v7@fmt@@YA?AV?$buffer_appender@_W@012@V3012@HV?$basic_string_view@D@12@ABU?$basic_format_specs@_W@12@V<lambda_b9b646e2ea6794a8be864afcdd1db8ed>@@@Z 1001a5a0 f i handles.obj
 0001:00019700       ??$write_nonfinite@_WV?$buffer_appender@_W@detail@v7@fmt@@@detail@v7@fmt@@YA?AV?$buffer_appender@_W@012@V3012@_NABU?$basic_format_specs@_W@12@ABUfloat_specs@012@@Z 1001a700 f i handles.obj
 0001:0001a250       ??$write_ptr@_WV?$buffer_appender@_W@detail@v7@fmt@@I@detail@v7@fmt@@YA?AV?$buffer_appender@_W@012@V3012@IPBU?$basic_format_specs@_W@12@@Z 1001b250 f i handles.obj
 0001:0001a340       ??$write_significand@V?$buffer_appender@_W@detail@v7@fmt@@I_W$0A@@detail@v7@fmt@@YA?AV?$buffer_appender@_W@012@V3012@IHH_W@Z 1001b340 f i handles.obj
 0001:0001a3d0       ??$write_significand@V?$buffer_appender@_W@detail@v7@fmt@@_K_W$0A@@detail@v7@fmt@@YA?AV?$buffer_appender@_W@012@V3012@_KHH_W@Z 1001b3d0 f i handles.obj
 0001:0001a460       ??$write_significand@V?$buffer_appender@_W@detail@v7@fmt@@_W@detail@v7@fmt@@YA?AV?$buffer_appender@_W@012@V3012@PBDHH_W@Z 1001b460 f i handles.obj
 0001:0001a4e0       ??0?$basic_string@_WU?$char_traits@_W@std@@V?$allocator@_W@2@@std@@QAE@ABV01@@Z 1001b4e0 f i handles.obj
 0001:0001a570       ??1?$scoped_lock@VPerfThread@@@std@@QAE@XZ 1001b570 f i handles.obj
 0001:0001a5a0       ??1?$unique_ptr@$$BY0A@_WU?$default_delete@$$BY0A@_W@std@@@std@@QAE@XZ 1001b5a0 f i handles.obj
 0001:0001a5a0       ??1?$unique_ptr@$$BY0A@DU?$default_delete@$$BY0A@D@std@@@std@@QAE@XZ 1001b5a0 f i handles.obj
 0001:0001a5b0       ??1?$unique_ptr@USYSTEM_HANDLE_INFORMATION@@Uvirtual_deleter@@@std@@QAE@XZ 1001b5b0 f i handles.obj
 0001:0001a5d0       ??1?$unique_ptr@UPluginPanelItem@@Ufree_deleter@@@std@@QAE@XZ 1001b5d0 f i Pclass.obj
 0001:0001a5d0       ??1?$unique_ptr@XUfree_deleter@@@std@@QAE@XZ 1001b5d0 f i handles.obj
 0001:0001a5e0       ??1?$unique_ptr@XUhandle_closer@@@std@@QAE@XZ 1001b5e0 f i handles.obj
 0001:0001a5f0       ??1?$unique_ptr@_WUlocal_deleter@@@std@@QAE@XZ 1001b5f0 f i handles.obj
 0001:0001a600       ??1DebugToken@@QAE@XZ      1001b600 f i handles.obj
 0001:0001a640       ??4?$back_insert_iterator@V?$buffer@_W@detail@v7@fmt@@@std@@QAEAAV01@$$QA_W@Z 1001b640 f i handles.obj
 0001:0001ae80       ??Rwriter@?1???$parse_format_string@$0A@_WAAU?$format_handler@V?$buffer_appender@_W@detail@v7@fmt@@_WV?$basic_format_context@V?$buffer_appender@_W@detail@v7@fmt@@_W@34@@detail@v7@fmt@@@detail@v7@fmt@@YAXV?$basic_string_view@_W@23@AAU?$format_handler@V?$buffer_appender@_W@detail@v7@fmt@@_WV?$basic_format_context@V?$buffer_appender@_W@detail@v7@fmt@@_W@34@@123@@Z@QAEXPB_W2@Z 1001be80 f i handles.obj
 0001:0001b580       ?PrintHandleInfo@@YA_NKPAX_NPAVPerfThread@@@Z 1001c580 f   handles.obj
 0001:0001bab0       ?_Xran@?$basic_string_view@_WU?$char_traits@_W@std@@@std@@CAXXZ 1001cab0 f i handles.obj
 0001:0001bac0       ?append@?$basic_string@_WU?$char_traits@_W@std@@V?$allocator@_W@2@@std@@QAEAAV12@QB_WI@Z 1001cac0 f i handles.obj
 0001:0001bc40       ?compare@?$_WChar_traits@_W@std@@SAHQB_W0I@Z 1001cc40 f i handles.obj
 0001:0001bdc0       ?get@?$basic_format_args@V?$basic_format_context@V?$buffer_appender@_W@detail@v7@fmt@@_W@v7@fmt@@@v7@fmt@@QBE?AV?$basic_format_arg@V?$basic_format_context@V?$buffer_appender@_W@detail@v7@fmt@@_W@v7@fmt@@@23@H@Z 1001cdc0 f i handles.obj
 0001:0001be60       ?get_arg@?$specs_handler@V?$basic_format_parse_context@_WUerror_handler@detail@v7@fmt@@@v7@fmt@@V?$basic_format_context@V?$buffer_appender@_W@detail@v7@fmt@@_W@23@@detail@v7@fmt@@AAE?AV?$basic_format_arg@V?$basic_format_context@V?$buffer_appender@_W@detail@v7@fmt@@_W@v7@fmt@@@34@V?$basic_string_view@_W@34@@Z 1001ce60 f i handles.obj
 0001:0001bee0       ?on_char@char_spec_handler@?$arg_formatter_base@V?$buffer_appender@_W@detail@v7@fmt@@_WUerror_handler@234@@detail@v7@fmt@@QAEXXZ 1001cee0 f i handles.obj
 0001:0001bff0       ?on_dec@?$int_writer@V?$buffer_appender@_W@detail@v7@fmt@@_WI@detail@v7@fmt@@QAEXXZ 1001cff0 f i handles.obj
 0001:0001c050       ?on_dec@?$int_writer@V?$buffer_appender@_W@detail@v7@fmt@@_W_K@detail@v7@fmt@@QAEXXZ 1001d050 f i handles.obj
 0001:0001c0d0       ?on_fill@?$specs_setter@_W@detail@v7@fmt@@QAEXV?$basic_string_view@_W@34@@Z 1001d0d0 f i handles.obj
 0001:0001c1c0       ?on_hex@?$int_writer@V?$buffer_appender@_W@detail@v7@fmt@@_WI@detail@v7@fmt@@QAEXXZ 1001d1c0 f i handles.obj
 0001:0001c340       ?on_num@?$int_writer@V?$buffer_appender@_W@detail@v7@fmt@@_WI@detail@v7@fmt@@QAEXXZ 1001d340 f i handles.obj
 0001:0001c6c0       ?on_num@?$int_writer@V?$buffer_appender@_W@detail@v7@fmt@@_W_K@detail@v7@fmt@@QAEXXZ 1001d6c0 f i handles.obj
 0001:0001ca30       ?on_replacement_field@?$format_handler@V?$buffer_appender@_W@detail@v7@fmt@@_WV?$basic_format_context@V?$buffer_appender@_W@detail@v7@fmt@@_W@34@@detail@v7@fmt@@QAEXHPB_W@Z 1001da30 f i handles.obj
 0001:0001cab0       ?on_text@?$format_handler@V?$buffer_appender@_W@detail@v7@fmt@@_WV?$basic_format_context@V?$buffer_appender@_W@detail@v7@fmt@@_W@34@@detail@v7@fmt@@QAEXPB_W0@Z 1001dab0 f i handles.obj
 0001:0001cbd0       ?write@?$arg_formatter_base@V?$buffer_appender@_W@detail@v7@fmt@@_WUerror_handler@234@@detail@v7@fmt@@IAEXPB_W@Z 1001dbd0 f i handles.obj
 0001:0001cce0       ?write@?$arg_formatter_base@V?$buffer_appender@_W@detail@v7@fmt@@_WUerror_handler@234@@detail@v7@fmt@@IAEX_N@Z 1001dce0 f i handles.obj
 0001:0001ce50       ??0PluginDialogBuilder@@QAE@ABUPluginStartupInfo@@ABU_GUID@@1HPB_WP6GHPAXHH3@Z3_K@Z 1001de50 f i Pcfg.obj
 0001:0001cf50       ??1PluginDialogBuilder@@QAE@XZ 1001df50 f i Pcfg.obj
 0001:0001cfc0       ??1PluginSettings@@QAE@XZ  1001dfc0 f i Pcfg.obj
 0001:0001d000       ??_EPluginCheckBoxBinding@@UAEPAXI@Z 1001e000 f i Pcfg.obj
 0001:0001d000       ??_GPluginCheckBoxBinding@@UAEPAXI@Z 1001e000 f i Pcfg.obj
 0001:0001d000       ??_EPluginEditFieldBinding@@UAEPAXI@Z 1001e000 f i Pclass.obj
 0001:0001d000       ??_GPluginEditFieldBinding@@UAEPAXI@Z 1001e000 f i Pclass.obj
 0001:0001d020       ?AddButtons@PluginDialogBuilder@@QAEXHPBHHH@Z 1001e020 f i Pcfg.obj
 0001:0001d250       ?AddCheckbox@PluginDialogBuilder@@QAEPAUFarDialogItem@@HPAHH_N@Z 1001e250 f i Pcfg.obj
 0001:0001d340       ?AddDialogItem@PluginDialogBuilder@@AAEPAUFarDialogItem@@W4FARDIALOGITEMTYPES@@PB_W@Z 1001e340 f i Pcfg.obj
 0001:0001d460       ?Config@@YAHXZ             1001e460 f   Pcfg.obj
 0001:0001d770       ?ItemWidth@PluginDialogBuilder@@CAHABUFarDialogItem@@@Z 1001e770 f i Pcfg.obj
 0001:0001d7d0       ?Read@options@@QAEXXZ      1001e7d0 f   Pcfg.obj
 0001:0001dad0       ?SaveValue@PluginCheckBoxBinding@@UAEXPBUFarDialogItem@@H@Z 1001ead0 f i Pcfg.obj
 0001:0001db10       ?ShowDialog@PluginDialogBuilder@@QAE_NXZ 1001eb10 f i Pcfg.obj
 0001:0001db40       ?ShowDialogEx@PluginDialogBuilder@@QAEHXZ 1001eb40 f i Pcfg.obj
 0001:0001dd90       ?Write@options@@QBEXXZ     1001ed90 f   Pcfg.obj
 0001:0001dfb0       ??$?H_WU?$char_traits@_W@std@@V?$allocator@_W@1@@std@@YA?AV?$basic_string@_WU?$char_traits@_W@std@@V?$allocator@_W@2@@0@ABV10@$$QAV10@@Z 1001efb0 f i Pclass.obj
 0001:0001e020       ??$_Assign_range@PBUmode@@@?$vector@Umode@@V?$allocator@Umode@@@std@@@std@@AAEXPBUmode@@0Uforward_iterator_tag@1@@Z 1001f020 f i Pclass.obj
 0001:0001e1f0       ??$_Copy_unchecked@PBUmode@@PAU1@@std@@YAPAUmode@@PBU1@0PAU1@@Z 1001f1f0 f i Pclass.obj
 0001:0001e250       ??$_Destroy_range@V?$allocator@V?$basic_string@_WU?$char_traits@_W@std@@V?$allocator@_W@2@@std@@@std@@@std@@YAXPAV?$basic_string@_WU?$char_traits@_W@std@@V?$allocator@_W@2@@0@QAV10@AAV?$allocator@V?$basic_string@_WU?$char_traits@_W@std@@V?$allocator@_W@2@@std@@@0@@Z 1001f250 f i Pclass.obj
 0001:0001e2c0       ??$_Emplace_reallocate@ABI@?$vector@IV?$allocator@I@std@@@std@@QAEPAIQAIABI@Z 1001f2c0 f i Pclass.obj
 0001:0001e2c0       ??$_Emplace_reallocate@I@?$vector@IV?$allocator@I@std@@@std@@QAEPAIQAI$$QAI@Z 1001f2c0 f i Pclass.obj
 0001:0001e390       ??$_Emplace_reallocate@UFarMenuItem@@@?$vector@UFarMenuItem@@V?$allocator@UFarMenuItem@@@std@@@std@@QAEPAUFarMenuItem@@QAU2@$$QAU2@@Z 1001f390 f i Pclass.obj
 0001:0001e470       ??$_Emplace_reallocate@V?$basic_string@_WU?$char_traits@_W@std@@V?$allocator@_W@2@@std@@@?$vector@V?$basic_string@_WU?$char_traits@_W@std@@V?$allocator@_W@2@@std@@V?$allocator@V?$basic_string@_WU?$char_traits@_W@std@@V?$allocator@_W@2@@std@@@2@@std@@QAEPAV?$basic_string@_WU?$char_traits@_W@std@@V?$allocator@_W@2@@1@QAV21@$$QAV21@@Z 1001f470 f i Pclass.obj
 0001:0001e5a0       ??$_Find_last@K@?$_Hash@V?$_Umap_traits@KPAUHWND__@@V?$_Uhash_compare@KU?$hash@K@std@@U?$equal_to@K@2@@std@@V?$allocator@U?$pair@$$CBKPAUHWND__@@@std@@@3@$0A@@std@@@std@@IBE?AU?$_Hash_find_last_result@PAU?$_List_node@U?$pair@$$CBKPAUHWND__@@@std@@PAX@std@@@1@ABKI@Z 1001f5a0 f i Pclass.obj
 0001:0001e610       ??$_Resize_reallocate@U_Value_init_tag@std@@@?$vector@PB_WV?$allocator@PB_W@std@@@std@@AAEXIABU_Value_init_tag@1@@Z 1001f610 f i Pclass.obj
 0001:0001e730       ??$_Try_emplace@ABK$$V@?$_Hash@V?$_Umap_traits@KPAUHWND__@@V?$_Uhash_compare@KU?$hash@K@std@@U?$equal_to@K@2@@std@@V?$allocator@U?$pair@$$CBKPAUHWND__@@@std@@@3@$0A@@std@@@std@@IAE?AU?$pair@PAU?$_List_node@U?$pair@$$CBKPAUHWND__@@@std@@PAX@std@@_N@1@ABK@Z 1001f730 f i Pclass.obj
 0001:0001e930       ??$_Uninitialized_move@PAV?$basic_string@_WU?$char_traits@_W@std@@V?$allocator@_W@2@@std@@V?$allocator@V?$basic_string@_WU?$char_traits@_W@std@@V?$allocator@_W@2@@std@@@2@@std@@YAPAV?$basic_string@_WU?$char_traits@_W@std@@V?$allocator@_W@2@@0@QAV10@0PAV10@AAV?$allocator@V?$basic_string@_WU?$char_traits@_W@std@@V?$allocator@_W@2@@std@@@0@@Z 1001f930 f i Pclass.obj
 0001:0001e9c0       ??$compare_numbers@_J@@YAH_J0@Z 1001f9c0 f i Pclass.obj
 0001:0001e9f0       ??$format@PB_WAAPB_W@@YA?AV?$basic_string@_WU?$char_traits@_W@std@@V?$allocator@_W@2@@std@@$$QAPB_WAAPB_W@Z 1001f9f0 f i Pclass.obj
 0001:0001ea50       ??$make_unique@VPerfThread@@$$V$0A@@std@@YA?AV?$unique_ptr@VPerfThread@@U?$default_delete@VPerfThread@@@std@@@0@XZ 1001fa50 f i Pclass.obj
 0001:0001eac0       ??0?$basic_string@_WU?$char_traits@_W@std@@V?$allocator@_W@2@@std@@QAE@$$QAV01@@Z 1001fac0 f i Pclass.obj
 0001:0001eb10       ??0Plist@@QAE@XZ           1001fb10 f   Pclass.obj
 0001:0001ed00       ??1?$_List_node_emplace_op2@V?$allocator@U?$_List_node@U?$pair@$$CBKPAUHWND__@@@std@@PAX@std@@@std@@@std@@QAE@XZ 1001fd00 f i Pclass.obj
 0001:0001ed00       ??1?$_Alloc_construct_ptr@V?$allocator@U?$_List_node@U?$pair@$$CBKPAUHWND__@@@std@@PAX@std@@@std@@@std@@QAE@XZ 1001fd00 f i Pclass.obj
 0001:0001ed20       ??1?$_Hash@V?$_Umap_traits@KPAUHWND__@@V?$_Uhash_compare@KU?$hash@K@std@@U?$equal_to@K@2@@std@@V?$allocator@U?$pair@$$CBKPAUHWND__@@@std@@@3@$0A@@std@@@std@@QAE@XZ 1001fd20 f i Pclass.obj
 0001:0001edb0       ??1?$_Hash_vec@V?$allocator@V?$_List_unchecked_iterator@V?$_List_val@U?$_List_simple_types@U?$pair@$$CBKPAUHWND__@@@std@@@std@@@std@@@std@@@std@@@std@@QAE@XZ 1001fdb0 f i Pclass.obj
 0001:0001ee00       ??1?$_Uninitialized_backout_al@V?$allocator@Umode@@@std@@@std@@QAE@XZ 1001fe00 f i Pclass.obj
 0001:0001ee30       ??1?$list@U?$pair@$$CBKPAUHWND__@@@std@@V?$allocator@U?$pair@$$CBKPAUHWND__@@@std@@@2@@std@@QAE@XZ 1001fe30 f i Pclass.obj
 0001:0001ee70       ??1?$pair@KV?$basic_string@_WU?$char_traits@_W@std@@V?$allocator@_W@2@@std@@@std@@QAE@XZ 1001fe70 f i Pclass.obj
 0001:0001ee70       ??1?$pair@JV?$basic_string@_WU?$char_traits@_W@std@@V?$allocator@_W@2@@std@@@std@@QAE@XZ 1001fe70 f i Pclass.obj
 0001:0001eed0       ??1?$unique_ptr@VPerfThread@@U?$default_delete@VPerfThread@@@std@@@std@@QAE@XZ 1001fed0 f i Pclass.obj
 0001:0001eef0       ??1?$unique_ptr@VWMIConnection@@U?$default_delete@VWMIConnection@@@std@@@std@@QAE@XZ 1001fef0 f i Pclass.obj
 0001:0001ef10       ??1?$unordered_map@KPAUHWND__@@U?$hash@K@std@@U?$equal_to@K@3@V?$allocator@U?$pair@$$CBKPAUHWND__@@@std@@@3@@std@@QAE@XZ 1001ff10 f i Pclass.obj
 0001:0001ef20       ??1?$vector@IV?$allocator@I@std@@@std@@QAE@XZ 1001ff20 f i Pclass.obj
 0001:0001ef20       ??1?$vector@PAUHINSTANCE__@@V?$allocator@PAUHINSTANCE__@@@std@@@std@@QAE@XZ 1001ff20 f i Plist.obj
 0001:0001ef80       ??1?$vector@UFarMenuItem@@V?$allocator@UFarMenuItem@@@std@@@std@@QAE@XZ 1001ff80 f i Pclass.obj
 0001:0001efe0       ??1?$vector@V?$basic_string@_WU?$char_traits@_W@std@@V?$allocator@_W@2@@std@@V?$allocator@V?$basic_string@_WU?$char_traits@_W@std@@V?$allocator@_W@2@@std@@@2@@std@@QAE@XZ 1001ffe0 f i Pclass.obj
 0001:0001eff0       ??1Plist@@QAE@XZ           1001fff0 f   Pclass.obj
 0001:0001f0d0       ??1ProcessData@@QAE@XZ     100200d0 f i Pclass.obj
 0001:0001f170       ??1StrTok@@QAE@XZ          10020170 f i Pclass.obj
 0001:0001f180       ??4?$basic_string@_WU?$char_traits@_W@std@@V?$allocator@_W@2@@std@@QAEAAV01@$$QAV01@@Z 10020180 f i Pclass.obj
 0001:0001f220       ??4?$basic_string@_WU?$char_traits@_W@std@@V?$allocator@_W@2@@std@@QAEAAV01@QB_W@Z 10020220 f i Pclass.obj
 0001:0001f250       ??4columns@@QAEAAU0@ABU0@@Z 10020250 f i Pclass.obj
 0001:0001f2b0       ?AddEditField@PluginDialogBuilder@@QAEPAUFarDialogItem@@PA_WHHPB_W_N@Z 100202b0 f i Pclass.obj
 0001:0001f390       ?Compare@Plist@@QBEHPBUPluginPanelItem@@0I@Z 10020390 f   Pclass.obj
 0001:0001f560       ?Connect@Plist@@QAE_NPB_W00@Z 10020560 f   Pclass.obj
 0001:0001f7e0       ?ConnectWMI@Plist@@AAE_NXZ 100207e0 f   Pclass.obj
 0001:0001f900       ?DeleteFiles@Plist@@QAEHPAUPluginPanelItem@@I_K@Z 10020900 f   Pclass.obj
 0001:000202a0       ?DurationToText@@YA?AV?$basic_string@_WU?$char_traits@_W@std@@V?$allocator@_W@2@@std@@_K@Z 100212a0 f   Pclass.obj
 0001:000204d0       ?FreeFindData@Plist@@SAXPAUPluginPanelItem@@I@Z 100214d0 f   Pclass.obj
 0001:000205a0       ?GetFiles@Plist@@QAEHPAUPluginPanelItem@@IHPAPB_W_KAAUoptions@@@Z 100215a0 f   Pclass.obj
 0001:00021fe0       ?GetFindData@Plist@@QAEHAAPAUPluginPanelItem@@AAI_K@Z 10022fe0 f   Pclass.obj
 0001:00022c00       ?GetOpenPanelInfo@Plist@@QAEXPAUOpenPanelInfo@@@Z 10023c00 f   Pclass.obj
 0001:00022ed0       ?GetVersionInfo@Plist@@SA_NPB_WAAV?$unique_ptr@$$BY0A@DU?$default_delete@$$BY0A@D@std@@@std@@AAPB_W2@Z 10023ed0 f   Pclass.obj
 0001:00023200       ?InitializePanelModes@Plist@@SAXXZ 10024200 f   Pclass.obj
 0001:00024780       ?PrintOwnerInfo@Plist@@AAEXPAXK@Z 10025780 f   Pclass.obj
 0001:00024bd0       ?PrintVersionInfo@Plist@@CAXPAXPB_W@Z 10025bd0 f   Pclass.obj
 0001:00024dd0       ?ProcessEvent@Plist@@QAEHHPAX@Z 10025dd0 f   Pclass.obj
 0001:00024f70       ?ProcessKey@Plist@@QAEHPBU_INPUT_RECORD@@@Z 10025f70 f   Pclass.obj
 0001:000269a0       ?Reread@Plist@@AAEXXZ      100279a0 f   Pclass.obj
 0001:00026a20       ?SavePanelModes@Plist@@SAXXZ 10027a20 f   Pclass.obj
 0001:00026d20       ?SaveValue@PluginEditFieldBinding@@UAEXPBUFarDialogItem@@H@Z 10027d20 f i Pclass.obj
 0001:00027520       ?_Assign_grow@?$_Hash_vec@V?$allocator@V?$_List_unchecked_iterator@V?$_List_val@U?$_List_simple_types@U?$pair@$$CBKPAUHWND__@@@std@@@std@@@std@@@std@@@std@@@std@@QAEXIV?$_List_unchecked_iterator@V?$_List_val@U?$_List_simple_types@U?$pair@$$CBKPAUHWND__@@@std@@@std@@@std@@@2@@Z 10028520 f i Pclass.obj
 0001:00027610       ?_Change_array@?$vector@IV?$allocator@I@std@@@std@@AAEXQAIII@Z 10028610 f i Pclass.obj
 0001:00027670       ?_Change_array@?$vector@UFarMenuItem@@V?$allocator@UFarMenuItem@@@std@@@std@@AAEXQAUFarMenuItem@@II@Z 10028670 f i Pclass.obj
 0001:000276d0       ?_Change_array@?$vector@V?$basic_string@_WU?$char_traits@_W@std@@V?$allocator@_W@2@@std@@V?$allocator@V?$basic_string@_WU?$char_traits@_W@std@@V?$allocator@_W@2@@std@@@2@@std@@AAEXQAV?$basic_string@_WU?$char_traits@_W@std@@V?$allocator@_W@2@@2@II@Z 100286d0 f i Pclass.obj
 0001:00027760       ?_Clear_and_reserve_geometric@?$vector@Umode@@V?$allocator@Umode@@@std@@@std@@AAEXI@Z 10028760 f i Pclass.obj
 0001:000278a0       ?_Forced_rehash@?$_Hash@V?$_Umap_traits@KPAUHWND__@@V?$_Uhash_compare@KU?$hash@K@std@@U?$equal_to@K@2@@std@@V?$allocator@U?$pair@$$CBKPAUHWND__@@@std@@@3@$0A@@std@@@std@@IAEXI@Z 100288a0 f i Pclass.obj
 0001:00027a00       ?_Reallocate_exactly@?$vector@IV?$allocator@I@std@@@std@@AAEXI@Z 10028a00 f i Pclass.obj
 0001:00027a80       ?_Reallocate_exactly@?$vector@UFarMenuItem@@V?$allocator@UFarMenuItem@@@std@@@std@@AAEXI@Z 10028a80 f i Pclass.obj
 0001:00027ac0       ?_Reallocate_exactly@?$vector@V?$basic_string@_WU?$char_traits@_W@std@@V?$allocator@_W@2@@std@@V?$allocator@V?$basic_string@_WU?$char_traits@_W@std@@V?$allocator@_W@2@@std@@@2@@std@@AAEXI@Z 10028ac0 f i Pclass.obj
 0001:00027b10       ?_Tidy@?$vector@V?$basic_string@_WU?$char_traits@_W@std@@V?$allocator@_W@2@@std@@V?$allocator@V?$basic_string@_WU?$char_traits@_W@std@@V?$allocator@_W@2@@std@@@2@@std@@AAEXXZ 10028b10 f i Pclass.obj
 0001:00027b90       ?_Xlength@?$vector@_WV?$allocator@_W@std@@@std@@CAXXZ 10028b90 f i perfthread.obj
 0001:00027b90       ?_Xlength@?$vector@IV?$allocator@I@std@@@std@@CAXXZ 10028b90 f i Pclass.obj
 0001:00027b90       ?_Xlength@?$vector@V?$basic_string@_WU?$char_traits@_W@std@@V?$allocator@_W@2@@std@@V?$allocator@V?$basic_string@_WU?$char_traits@_W@std@@V?$allocator@_W@2@@std@@@2@@std@@CAXXZ 10028b90 f i Pclass.obj
 0001:00027b90       ?_Xlength@?$vector@UFarMenuItem@@V?$allocator@UFarMenuItem@@@std@@@std@@CAXXZ 10028b90 f i Pclass.obj
 0001:00027b90       ?_Xlength@?$vector@Umode@@V?$allocator@Umode@@@std@@@std@@CAXXZ 10028b90 f i Pclass.obj
 0001:00027b90       ?_Xlength@?$vector@PB_WV?$allocator@PB_W@std@@@std@@CAXXZ 10028b90 f i Pclass.obj
 0001:00027b90       ?_Xlength@?$vector@EV?$allocator@E@std@@@std@@CAXXZ 10028b90 f i perfthread.obj
 0001:00027b90       ?_Xlength@?$vector@UProcessPerfData@@V?$allocator@UProcessPerfData@@@std@@@std@@CAXXZ 10028b90 f i perfthread.obj
 0001:00027b90       ?_Xlength@?$vector@PAUHINSTANCE__@@V?$allocator@PAUHINSTANCE__@@@std@@@std@@CAXXZ 10028b90 f i Plist.obj
 0001:00027ba0       ?_Xran@?$_String_val@U?$_Simple_types@_W@std@@@std@@SAXXZ 10028ba0 f i Pclass.obj
 0001:00027bb0       ?allocate@?$allocator@I@std@@QAEPAII@Z 10028bb0 f i Pclass.obj
 0001:00027bb0       ?allocate@?$allocator@PAUHINSTANCE__@@@std@@QAEPAPAUHINSTANCE__@@I@Z 10028bb0 f i Plist.obj
 0001:00027c10       ?allocate@?$allocator@UFarMenuItem@@@std@@QAEPAUFarMenuItem@@I@Z 10028c10 f i Pclass.obj
 0001:00027c70       ?allocate@?$allocator@V?$basic_string@_WU?$char_traits@_W@std@@V?$allocator@_W@2@@std@@@std@@QAEPAV?$basic_string@_WU?$char_traits@_W@std@@V?$allocator@_W@2@@2@I@Z 10028c70 f i Pclass.obj
 0001:00027cd0       ?append@?$basic_string@_WU?$char_traits@_W@std@@V?$allocator@_W@2@@std@@QAEAAV12@I_W@Z 10028cd0 f i Pclass.obj
 0001:00027e90       ?clear@?$basic_string@_WU?$char_traits@_W@std@@V?$allocator@_W@2@@std@@QAEXXZ 10028e90 f i Pclass.obj
 0001:000281b0       ?insert@?$basic_string@_WU?$char_traits@_W@std@@V?$allocator@_W@2@@std@@QAEAAV12@IQB_WI@Z 100291b0 f i Pclass.obj
 0001:000283e0       ?make@custom_data@@SA@$$QAV?$vector@V?$basic_string@_WU?$char_traits@_W@std@@V?$allocator@_W@2@@std@@V?$allocator@V?$basic_string@_WU?$char_traits@_W@std@@V?$allocator@_W@2@@std@@@2@@std@@@Z 100293e0 f i Pclass.obj
 0001:00029150       ??$_Resize_reallocate@U_Value_init_tag@std@@@?$vector@EV?$allocator@E@std@@@std@@AAEXIABU_Value_init_tag@1@@Z 1002a150 f i perfthread.obj
 0001:00029210       ??0?$vector@UProcessPerfData@@V?$allocator@UProcessPerfData@@@std@@@std@@QAE@IABV?$allocator@UProcessPerfData@@@1@@Z 1002a210 f i perfthread.obj
 0001:000293d0       ??0PerfThread@@QAE@PB_W00@Z 1002a3d0 f   perfthread.obj
 0001:00029bb0       ??1?$_Tidy_guard@V?$vector@UProcessPerfData@@V?$allocator@UProcessPerfData@@@std@@@std@@@std@@QAE@XZ 1002abb0 f i perfthread.obj
 0001:00029bc0       ??1?$_Uninitialized_backout_al@V?$allocator@UProcessPerfData@@@std@@@std@@QAE@XZ 1002abc0 f i perfthread.obj
 0001:00029bf0       ??1?$vector@EV?$allocator@E@std@@@std@@QAE@XZ 1002abf0 f i perfthread.obj
 0001:00029c40       ??1?$vector@UProcessPerfData@@V?$allocator@UProcessPerfData@@@std@@@std@@QAE@XZ 1002ac40 f i perfthread.obj
 0001:00029c50       ??1?$vector@_WV?$allocator@_W@std@@@std@@QAE@XZ 1002ac50 f i perfthread.obj
 0001:00029cb0       ??1PerfThread@@QAE@XZ      1002acb0 f   perfthread.obj
 0001:00029e90       ??1ProcessPerfData@@QAE@XZ 1002ae90 f i perfthread.obj
 0001:0002a010       ?GetProcessData@PerfThread@@QAEPAUProcessPerfData@@KK@Z 1002b010 f   perfthread.obj
 0001:0002a0f0       ?Refresh@PerfThread@@AAEXXZ 1002b0f0 f   perfthread.obj
 0001:0002ac30       ?RefreshWMIData@PerfThread@@AAEXXZ 1002bc30 f   perfthread.obj
 0001:0002b0d0       ?SyncReread@PerfThread@@QAEXXZ 1002c0d0 f   perfthread.obj
 0001:0002b100       ?ThreadProc@PerfThread@@CGKPAX@Z 1002c100 f   perfthread.obj
 0001:0002b1e0       ?_Tidy@?$vector@UProcessPerfData@@V?$allocator@UProcessPerfData@@@std@@@std@@AAEXXZ 1002c1e0 f i perfthread.obj
 0001:0002b270       ?lock@PerfThread@@QAEXXZ   1002c270 f   perfthread.obj
 0001:0002b280       ?unlock@PerfThread@@QAEXXZ 1002c280 f   perfthread.obj
 0001:0002b290       ??$_Resize_reallocate@U_Value_init_tag@std@@@?$vector@PAUHINSTANCE__@@V?$allocator@PAUHINSTANCE__@@@std@@@std@@AAEXIABU_Value_init_tag@1@@Z 1002c290 f i Plist.obj
 0001:0002b4b0       ??0?$basic_string@_WU?$char_traits@_W@std@@V?$allocator@_W@2@@std@@QAE@I_W@Z 1002c4b0 f i Plist.obj
 0001:0002b570       ??0?$vector@UProcessPerfData@@V?$allocator@UProcessPerfData@@@std@@@std@@QAE@ABV01@@Z 1002c570 f i Plist.obj
 0001:0002b7b0       ??1?$function@$$A6AXABUtagVARIANT@@@Z@std@@QAE@XZ 1002c7b0 f i wmi.obj
 0001:0002b7b0       ??1?$function@$$A6A_NPA_WI@Z@std@@QAE@XZ 1002c7b0 f i Plist.obj
 0001:0002b850       ?CreateToken@DebugToken@@SA_NXZ 1002c850 f   Plist.obj
 0001:0002b910       ?Enable@DebugToken@@QAE_NXZ 1002c910 f   Plist.obj
 0001:0002ba60       ?GetInternalProcessData@?$ipc_functions@$00@@SA_NPAXPAULDR_MODULE_64@detail@@AA_K2_N@Z 1002ca60 f i Plist.obj
 0001:0002bbb0       ?GetInternalProcessData@?$ipc_functions@$0A@@@SA_NPAXPAULDR_MODULE_SAME@detail@@AAPBD2_N@Z 1002cbb0 f i Plist.obj
 0001:0002bc90       ?GetList@@YA_NAAPAUPluginPanelItem@@AAIAAVPerfThread@@@Z 1002cc90 f   Plist.obj
 0001:0002c030       ?GetOpenProcessData@?$ipc_functions@$00@@SAXPAXPAV?$basic_string@_WU?$char_traits@_W@std@@V?$allocator@_W@2@@std@@1111@Z 1002d030 f i Plist.obj
 0001:0002c280       ?GetOpenProcessData@?$ipc_functions@$0A@@@SAXPAXPAV?$basic_string@_WU?$char_traits@_W@std@@V?$allocator@_W@2@@std@@1111@Z 1002d280 f i Plist.obj
 0001:0002c490       ?GetOpenProcessData@@YAXPAXPAV?$basic_string@_WU?$char_traits@_W@std@@V?$allocator@_W@2@@std@@1111@Z 1002d490 f   Plist.obj
 0001:0002c530       ?GetPData@@YA_NAAUProcessData@@ABUProcessPerfData@@@Z 1002d530 f   Plist.obj
 0001:0002c6f0       ?KillProcess@@YA_NKPAUHWND__@@@Z 1002d6f0 f   Plist.obj
 0001:0002c860       ?OpenProcessForced@@YAPAXPAVDebugToken@@KKH@Z 1002d860 f   Plist.obj
 0001:0002c8b0       ?PrintModules@?$ipc_functions@$00@@SAXPAX0AAUoptions@@@Z 1002d8b0 f i Plist.obj
 0001:0002cab0       ?PrintModules@?$ipc_functions@$0A@@@SAXPAX0AAUoptions@@@Z 1002dab0 f i Plist.obj
 0001:0002cba0       ?PrintModules@@YAXPAXKAAUoptions@@@Z 1002dba0 f   Plist.obj
 0001:0002cf80       ?PrintNTCurDirAndEnv@@YAXPAX0H@Z 1002df80 f   Plist.obj
 0001:0002d2d0       ?Revert@DebugToken@@QAE_NXZ 1002e2d0 f   Plist.obj
 0001:0002d330       ?_Copy@?$_Func_impl_no_alloc@V<lambda_7407d5cd5d4425cb98b7ee1223d84907>@@_NPA_WI@std@@EBEPAV?$_Func_base@_NPA_WI@2@PAX@Z 1002e330 f i Plist.obj
 0001:0002d330       ?_Move@?$_Func_impl_no_alloc@V<lambda_7407d5cd5d4425cb98b7ee1223d84907>@@_NPA_WI@std@@EAEPAV?$_Func_base@_NPA_WI@2@PAX@Z 1002e330 f i Plist.obj
 0001:0002d350       ?_Copy@?$_Func_impl_no_alloc@V<lambda_ca95615ebb3c7b16132ff39b7c245039>@@_NPA_WI@std@@EBEPAV?$_Func_base@_NPA_WI@2@PAX@Z 1002e350 f i Plist.obj
 0001:0002d350       ?_Move@?$_Func_impl_no_alloc@V<lambda_ca95615ebb3c7b16132ff39b7c245039>@@_NPA_WI@std@@EAEPAV?$_Func_base@_NPA_WI@2@PAX@Z 1002e350 f i Plist.obj
 0001:0002d370       ?_Delete_this@?$_Func_impl_no_alloc@V<lambda_ca95615ebb3c7b16132ff39b7c245039>@@_NPA_WI@std@@EAEX_N@Z 1002e370 f   Plist.obj
 0001:0002d370       ?_Delete_this@?$_Func_impl_no_alloc@V<lambda_7407d5cd5d4425cb98b7ee1223d84907>@@_NPA_WI@std@@EAEX_N@Z 1002e370 f   Plist.obj
 0001:0002d3c0       ?_Do_call@?$_Func_impl_no_alloc@V<lambda_7407d5cd5d4425cb98b7ee1223d84907>@@_NPA_WI@std@@EAE_N$$QAPA_W$$QAI@Z 1002e3c0 f i Plist.obj
 0001:0002d420       ?_Do_call@?$_Func_impl_no_alloc@V<lambda_ca95615ebb3c7b16132ff39b7c245039>@@_NPA_WI@std@@EAE_N$$QAPA_W$$QAI@Z 1002e420 f i Plist.obj
 0001:0002d460       ?_Get@?$_Func_impl_no_alloc@V<lambda_ca95615ebb3c7b16132ff39b7c245039>@@_NPA_WI@std@@EBEPBXXZ 1002e460 f   Plist.obj
 0001:0002d460       ?_Get@?$_Func_impl_no_alloc@V<lambda_7407d5cd5d4425cb98b7ee1223d84907>@@_NPA_WI@std@@EBEPBXXZ 1002e460 f   Plist.obj
 0001:0002d480       ?_Target_type@?$_Func_impl_no_alloc@V<lambda_7407d5cd5d4425cb98b7ee1223d84907>@@_NPA_WI@std@@EBEABVtype_info@@XZ 1002e480 f i Plist.obj
 0001:0002d490       ?_Target_type@?$_Func_impl_no_alloc@V<lambda_ca95615ebb3c7b16132ff39b7c245039>@@_NPA_WI@std@@EBEABVtype_info@@XZ 1002e490 f i Plist.obj
 0001:0002d7b0       ?read_string@?$ipc_functions@$00@@SA?AV?$basic_string@_WU?$char_traits@_W@std@@V?$allocator@_W@2@@std@@PAXABUUNICODE_STRING_64@detail@@@Z 1002e7b0 f i Plist.obj
 0001:0002d8a0       ?read_string@?$ipc_functions@$00@@SA?AV?$basic_string@_WU?$char_traits@_W@std@@V?$allocator@_W@2@@std@@PAX_K@Z 1002e8a0 f i Plist.obj
 0001:0002d910       ?read_string@?$ipc_functions@$0A@@@SA?AV?$basic_string@_WU?$char_traits@_W@std@@V?$allocator@_W@2@@std@@PAXABUUNICODE_STRING_SAME@detail@@@Z 1002e910 f i Plist.obj
 0001:0002d9c0       ?read_string@?$ipc_functions@$0A@@@SA?AV?$basic_string@_WU?$char_traits@_W@std@@V?$allocator@_W@2@@std@@PAXQBX@Z 1002e9c0 f i Plist.obj
 0001:0002da20       ?ConvertDate@@YAXABU_FILETIME@@PA_W1@Z 1002ea20 f   Pmix.obj
 0001:0002dab0       ?GetMsg@@YAPB_WH@Z         1002eab0 f   Pmix.obj
 0001:0002dad0       ?WinError@@YAHPB_W@Z       1002ead0 f   Pmix.obj
 0001:0002dea0       ??0WMIConnection@@QAE@XZ   1002eea0 f   wmi.obj
 0001:0002df00       ??1?$ptr_setter@V?$unique_ptr@UIWbemClassObject@@Ucom_closer@@@std@@@@QAE@XZ 1002ef00 f i wmi.obj
 0001:0002df40       ??1?$unique_ptr@UIWbemLocator@@Ucom_closer@@@std@@QAE@XZ 1002ef40 f i wmi.obj
 0001:0002df40       ??1?$unique_ptr@UIWbemClassObject@@Ucom_closer@@@std@@QAE@XZ 1002ef40 f i wmi.obj
 0001:0002df80       ??1WMIConnection@@QAE@XZ   1002ef80 f   wmi.obj
 0001:0002dfe0       ??1bstr@@QAE@XZ            1002efe0 f i wmi.obj
 0001:0002dff0       ?Connect@WMIConnection@@QAE_NPB_W00@Z 1002eff0 f   wmi.obj
 0001:0002e1f0       ?Disconnect@WMIConnection@@QAEXXZ 1002f1f0 f   wmi.obj
 0001:0002e210       ?ExecMethod@WMIConnection@@AAEHKPB_W0K@Z 1002f210 f   wmi.obj
 0001:0002e4d0       ?GetProcessCommandLine@WMIConnection@@QAE?AV?$basic_string@_WU?$char_traits@_W@std@@V?$allocator@_W@2@@std@@K@Z 1002f4d0 f   wmi.obj
 0001:0002e570       ?GetProcessExecutablePath@WMIConnection@@QAE?AV?$basic_string@_WU?$char_traits@_W@std@@V?$allocator@_W@2@@std@@K@Z 1002f570 f   wmi.obj
 0001:0002e610       ?GetProcessOwner@WMIConnection@@QAE?AV?$basic_string@_WU?$char_traits@_W@std@@V?$allocator@_W@2@@std@@KPAV23@@Z 1002f610 f   wmi.obj
 0001:0002e830       ?GetProcessPriority@WMIConnection@@QAEKK@Z 1002f830 f   wmi.obj
 0001:0002e8b0       ?GetProcessProperty@WMIConnection@@AAE_NKPB_WABV?$function@$$A6AXABUtagVARIANT@@@Z@std@@@Z 1002f8b0 f   wmi.obj
 0001:0002e9c0       ?GetProcessSessionId@WMIConnection@@QAEKK@Z 1002f9c0 f   wmi.obj
 0001:0002ea40       ?GetProcessUserSid@WMIConnection@@QAE?AV?$basic_string@_WU?$char_traits@_W@std@@V?$allocator@_W@2@@std@@K@Z 1002fa40 f   wmi.obj
 0001:0002ecb0       ?SetProcessPriority@WMIConnection@@QAEHKK@Z 1002fcb0 f   wmi.obj
 0001:0002ecd0       ?TerminateProcess@WMIConnection@@QAEHK@Z 1002fcd0 f   wmi.obj
 0001:0002ee40       ?Message@@YAHIPB_WPAPB_WII@Z 1002fe40 f   Proclist.obj
 0001:0002efe0       ?is_wow64_process@@YA_NPAX@Z 1002ffe0 f   Proclist.obj
 0001:0002f010       _ClosePanelW@4             10030010 f   Proclist.obj
 0001:0002f040       _CompareW@4                10030040 f   Proclist.obj
 0001:0002f060       _ConfigureW@4              10030060 f   Proclist.obj
 0001:0002f070       _DeleteFilesW@4            10030070 f   Proclist.obj
 0001:0002f090       _FreeFindDataW@4           10030090 f   Proclist.obj
 0001:0002f0b0       _GetFilesW@4               100300b0 f   Proclist.obj
 0001:0002f0e0       _GetFindDataW@4            100300e0 f   Proclist.obj
 0001:0002f100       _GetGlobalInfoW@4          10030100 f   Proclist.obj
 0001:0002f190       _GetOpenPanelInfoW@4       10030190 f   Proclist.obj
 0001:0002f1a0       _GetPluginInfoW@4          100301a0 f   Proclist.obj
 0001:0002f250       _OpenW@4                   10030250 f   Proclist.obj
 0001:0002f2d0       _ProcessPanelEventW@4      100302d0 f   Proclist.obj
 0001:0002f2f0       _ProcessPanelInputW@4      100302f0 f   Proclist.obj
 0001:0002f310       _SetStartupInfoW@4         10030310 f   Proclist.obj
 0001:0002f790       _CompareStringExWrapper@36 10030790 f   vc_crt_fix_impl.obj
 0001:0002f7e0       _DecodePointerWrapper@4    100307e0 f   vc_crt_fix_impl.obj
 0001:0002f830       _EncodePointerWrapper@4    10030830 f   vc_crt_fix_impl.obj
 0001:0002f880       _GetLogicalProcessorInformationWrapper@8 10030880 f   vc_crt_fix_impl.obj
 0001:0002f8d0       _GetModuleHandleExWWrapper@12 100308d0 f   vc_crt_fix_impl.obj
 0001:0002f920       _GetNumaHighestNodeNumberWrapper@4 10030920 f   vc_crt_fix_impl.obj
 0001:0002f970       _InitializeCriticalSectionExWrapper@12 10030970 f   vc_crt_fix_impl.obj
 0001:0002f9c0       _InitializeSListHeadWrapper@4 100309c0 f   vc_crt_fix_impl.obj
 0001:0002fa10       _InterlockedFlushSListWrapper@4 10030a10 f   vc_crt_fix_impl.obj
 0001:0002fa60       _InterlockedPopEntrySListWrapper@4 10030a60 f   vc_crt_fix_impl.obj
 0001:0002fab0       _InterlockedPushEntrySListWrapper@8 10030ab0 f   vc_crt_fix_impl.obj
 0001:0002fb00       _InterlockedPushListSListExWrapper@16 10030b00 f   vc_crt_fix_impl.obj
 0001:0002fb50       _LCMapStringExWrapper@36   10030b50 f   vc_crt_fix_impl.obj
 0001:0002fba0       _QueryDepthSListWrapper@4  10030ba0 f   vc_crt_fix_impl.obj
 0001:0002fbf0       _RtlFirstEntrySListWrapper@4 10030bf0 f   vc_crt_fix_impl.obj
 0001:0002fc40       _SetThreadStackGuaranteeWrapper@4 10030c40 f   vc_crt_fix_impl.obj
 0001:0002fc83       _ConvertSidToStringSidW@8  10030c83 f   advapi32:ADVAPI32.dll
 0001:0002fc89       _WNetAddConnection2W@16    10030c89 f   mpr:MPR.dll
 0001:0002fc8f       _WNetCancelConnection2W@12 10030c8f f   mpr:MPR.dll
 0001:0002fc95       _GetFileVersionInfoSizeW@8 10030c95 f   version:VERSION.dll
 0001:0002fc9b       _GetFileVersionInfoW@16    10030c9b f   version:VERSION.dll
 0001:0002fca1       _VerQueryValueW@16         10030ca1 f   version:VERSION.dll
 0001:0002fca7       _GetModuleFileNameExW@16   10030ca7 f   psapi:PSAPI.DLL
 0001:0002fcad       _GetModuleInformation@16   10030cad f   psapi:PSAPI.DLL
 0001:0002fcb3       ??0_Init_locks@std@@QAE@XZ 10030cb3 f   libcpmt:xlock.obj
 0001:0002fce0       ??0_Lockit@std@@QAE@H@Z    10030ce0 f   libcpmt:xlock.obj
 0001:0002fd11       ??1_Init_locks@std@@QAE@XZ 10030d11 f   libcpmt:xlock.obj
 0001:0002fd38       ??1_Lockit@std@@QAE@XZ     10030d38 f   libcpmt:xlock.obj
 0001:0002fd57       ??0bad_alloc@std@@QAE@XZ   10030d57 f i libcpmt:xthrow.obj
 0001:0002fd6f       ??0bad_function_call@std@@QAE@ABV01@@Z 10030d6f f i libcpmt:xthrow.obj
 0001:0002fd8a       ??0bad_function_call@std@@QAE@XZ 10030d8a f i libcpmt:xthrow.obj
 0001:0002fd9b       ??0length_error@std@@QAE@ABV01@@Z 10030d9b f i libcpmt:xthrow.obj
 0001:0002fdb6       ??0length_error@std@@QAE@PBD@Z 10030db6 f i libcpmt:xthrow.obj
 0001:0002fdd5       ??0logic_error@std@@QAE@ABV01@@Z 10030dd5 f i libcpmt:xthrow.obj
 0001:0002fdf0       ??0out_of_range@std@@QAE@ABV01@@Z 10030df0 f i libcpmt:xthrow.obj
 0001:0002fe0b       ??0out_of_range@std@@QAE@PBD@Z 10030e0b f i libcpmt:xthrow.obj
 0001:0002fe2a       ??_Ebad_exception@std@@UAEPAXI@Z 10030e2a f i libvcruntime:frame.obj
 0001:0002fe2a       ??_Elogic_error@std@@UAEPAXI@Z 10030e2a f i libcpmt:xthrow.obj
 0001:0002fe2a       ??_Ebad_function_call@std@@UAEPAXI@Z 10030e2a f i libcpmt:xthrow.obj
 0001:0002fe2a       ??_Gbad_exception@std@@UAEPAXI@Z 10030e2a f i libvcruntime:frame.obj
 0001:0002fe2a       ??_Glogic_error@std@@UAEPAXI@Z 10030e2a f i libcpmt:xthrow.obj
 0001:0002fe2a       ??_Glength_error@std@@UAEPAXI@Z 10030e2a f i libcpmt:xthrow.obj
 0001:0002fe2a       ??_Elength_error@std@@UAEPAXI@Z 10030e2a f i libcpmt:xthrow.obj
 0001:0002fe2a       ??_Eout_of_range@std@@UAEPAXI@Z 10030e2a f i libcpmt:xthrow.obj
 0001:0002fe2a       ??_Gout_of_range@std@@UAEPAXI@Z 10030e2a f i libcpmt:xthrow.obj
 0001:0002fe2a       ??_Gbad_function_call@std@@UAEPAXI@Z 10030e2a f i libcpmt:xthrow.obj
 0001:0002fe57       ?_Xbad_alloc@std@@YAXXZ    10030e57 f   libcpmt:xthrow.obj
 0001:0002fe57       ?__scrt_throw_std_bad_alloc@@YAXXZ 10030e57 f   LIBCMT:throw_bad_alloc.obj
 0001:0002fe74       ?_Xbad_function_call@std@@YAXXZ 10030e74 f   libcpmt:xthrow.obj
 0001:0002fe91       ?_Xlength_error@std@@YAXPBD@Z 10030e91 f   libcpmt:xthrow.obj
 0001:0002feb1       ?_Xout_of_range@std@@YAXPBD@Z 10030eb1 f   libcpmt:xthrow.obj
 0001:0002fed1       ?_Xruntime_error@std@@YAXPBD@Z 10030ed1 f   libcpmt:xthrow.obj
 0001:0002fef1       ?what@bad_function_call@std@@UBEPBDXZ 10030ef1 f i libcpmt:xthrow.obj
 0001:0002fef7       ??0_Locimp@locale@std@@AAE@_N@Z 10030ef7 f i libcpmt:locale0.obj
 0001:0002ff38       ??1_Fac_node@std@@QAE@XZ   10030f38 f i libcpmt:locale0.obj
 0001:0002ff69       ??1_Fac_tidy_reg_t@std@@QAE@XZ 10030f69 f i libcpmt:locale0.obj
 0001:0002ff90       ??1_Locimp@locale@std@@MAE@XZ 10030f90 f i libcpmt:locale0.obj
 0001:0002ffbb       ??4?$_Yarn@D@std@@QAEAAV01@PBD@Z 10030fbb f i libcpmt:locale0.obj
 0001:0003000f       ??_G_Locimp@locale@std@@MAEPAXI@Z 1003100f f i libcpmt:locale0.obj
 0001:0003000f       ??_E_Locimp@locale@std@@MAEPAXI@Z 1003100f f i libcpmt:locale0.obj
 0001:00030031       ?_Facet_Register@std@@YAXPAV_Facet_base@1@@Z 10031031 f   libcpmt:locale0.obj
 0001:0003005d       ?_Getgloballocale@locale@std@@CAPAV_Locimp@12@XZ 1003105d f   libcpmt:locale0.obj
 0001:00030063       ?_Init@locale@std@@CAPAV_Locimp@12@_N@Z 10031063 f   libcpmt:locale0.obj
 0001:000300f3       ?_Locimp_dtor@_Locimp@locale@std@@CAXPAV123@@Z 100310f3 f   libcpmt:locale0.obj
 0001:00030163       ?_Locinfo_ctor@_Locinfo@std@@SAXPAV12@PBD@Z 10031163 f   libcpmt:locale0.obj
 0001:000301ae       ?_Locinfo_dtor@_Locinfo@std@@SAXPAV12@@Z 100311ae f   libcpmt:locale0.obj
 0001:000301c8       ?_New_Locimp@_Locimp@locale@std@@CAPAV123@_N@Z 100311c8 f   libcpmt:locale0.obj
 0001:000301eb       ?_Setgloballocale@locale@std@@CAXPAX@Z 100311eb f   libcpmt:locale0.obj
 0001:00030213       __Deletegloballocale       10031213 f   libcpmt:locale0.obj
 0001:00030278       __Getcvt                   10031278 f   libcpmt:xwctomb.obj
 0001:000302eb       __Mbrtowc                  100312eb f   libcpmt:xmbtowc.obj
 0001:00030474       __Mtxdst                   10031474 f   libcpmt:xmtx.obj
 0001:00030482       __Mtxinit                  10031482 f   libcpmt:xmtx.obj
 0001:00030499       __Mtxlock                  10031499 f   libcpmt:xmtx.obj
 0001:000304a7       __Mtxunlock                100314a7 f   libcpmt:xmtx.obj
 0001:000304b5       ??1_Init_atexit@@QAE@XZ    100314b5 f i libcpmt:iosptrs.obj
 0001:00030518       ?_Atexit@@YAXP6AXXZ@Z      10031518 f   libcpmt:iosptrs.obj
 0001:00030801       ___crtInitializeCriticalSectionEx 10031801 f   libcpmt:winapisupp.obj
 0001:00030836       __freea_crt                10031836 f i libcpmt:StlLCMapStringA.obj
 0001:00030854       ??3@YAXPAXI@Z              10031854 f   LIBCMT:delete_scalar_size.obj
 0001:000308a6       ___scrt_acquire_startup_lock 100318a6 f   LIBCMT:utility.obj
 0001:000308d8       ___scrt_dllmain_after_initialize_c 100318d8 f   LIBCMT:utility.obj
 0001:00030903       ___scrt_dllmain_before_initialize_c 10031903 f   LIBCMT:utility.obj
 0001:00030911       ___scrt_dllmain_crt_thread_attach 10031911 f   LIBCMT:utility.obj
 0001:00030930       ___scrt_dllmain_crt_thread_detach 10031930 f   LIBCMT:utility.obj
 0001:0003093d       ___scrt_dllmain_exception_filter 1003193d f   LIBCMT:utility.obj
 0001:00030971       ___scrt_dllmain_uninitialize_c 10031971 f   LIBCMT:utility.obj
 0001:00030994       ___scrt_dllmain_uninitialize_critical 10031994 f   LIBCMT:utility.obj
 0001:000309a1       ___scrt_initialize_crt     100319a1 f   LIBCMT:utility.obj
 0001:000309da       ___scrt_initialize_onexit_tables 100319da f   LIBCMT:utility.obj
 0001:00030a61       ___scrt_is_nonwritable_in_current_image 10031a61 f   LIBCMT:utility.obj
 0001:00030af5       ___scrt_release_startup_lock 10031af5 f   LIBCMT:utility.obj
 0001:00030b12       ___scrt_uninitialize_crt   10031b12 f   LIBCMT:utility.obj
 0001:00030b3a       __onexit                   10031b3a f   LIBCMT:utility.obj
 0001:00030b67       _atexit                    10031b67 f   LIBCMT:utility.obj
 0001:00030b7c       ??2@YAPAXI@Z               10031b7c f   LIBCMT:new_scalar.obj
 0001:00030bb0       __allmul                   10031bb0 f   LIBCMT:llmul.obj
 0001:00030bf0       __allshl                   10031bf0 f   LIBCMT:llshl.obj
 0001:00030c10       __aullshr                  10031c10 f   LIBCMT:ullshr.obj
 0001:00030c2f       ??_Etype_info@@UAEPAXI@Z   10031c2f f i LIBCMT:std_type_info_static.obj
 0001:00030c2f       ??_Gtype_info@@UAEPAXI@Z   10031c2f f i LIBCMT:std_type_info_static.obj
 0001:00030c52       ??_U@YAPAXI@Z              10031c52 f   LIBCMT:new_array.obj
 0001:00030c5b       ??_V@YAXPAX@Z              10031c5b f   LIBCMT:delete_array.obj
 0001:00030c60       ??_M@YGXPAXIIP6EX0@Z@Z     10031c60 f   LIBCMT:ehvecdtr.obj
 0001:00030ce5       ?__ArrayUnwind@@YGXPAXIIP6EX0@Z@Z 10031ce5 f   LIBCMT:ehvecdtr.obj
 0001:00030d80       __aulldiv                  10031d80 f   LIBCMT:ulldiv.obj
 0001:00030df0       __aulldvrm                 10031df0 f   LIBCMT:ulldvrm.obj
 0001:00030e90       __aullrem                  10031e90 f   LIBCMT:ullrem.obj
 0001:00030f10       __ftol2_sse                10031f10     LIBCMT:ftol2.obj
 0001:00030f10       __ftoi2                    10031f10 f   LIBCMT:ftol2.obj
 0001:00030f10       __ftol2_sse_excpt          10031f10     LIBCMT:ftol2.obj
 0001:00030f90       __ftoui2                   10031f90 f   LIBCMT:ftol2.obj
 0001:00031040       __ftol2                    10032040 f   LIBCMT:ftol2.obj
 0001:000310f0       __ftoul2                   100320f0 f   LIBCMT:ftol2.obj
 0001:000311b0       __alldiv                   100321b0 f   LIBCMT:lldiv.obj
 0001:00031595       __DllMainCRTStartup@12     10032595 f   LIBCMT:dll_dllmain.obj
 0001:000315b8       @__security_check_cookie@4 100325b8 f   LIBCMT:secchk.obj
 0001:000315c9       __EH_epilog3               100325c9 f   LIBCMT:ehprolg3.obj
 0001:000315de       __EH_epilog3_GS            100325de f   LIBCMT:ehprolg3.obj
 0001:000315ef       __EH_prolog3               100325ef f   LIBCMT:ehprolg3.obj
 0001:00031623       __EH_prolog3_GS            10032623 f   LIBCMT:ehprolg3.obj
 0001:0003165a       __EH_prolog3_catch         1003265a f   LIBCMT:ehprolg3.obj
 0001:00031691       @_guard_check_icall_nop@4  10032691 f i LIBCMT:guard_support.obj
 0001:000316a0       __alloca_probe_16          100326a0 f   LIBCMT:alloca16.obj
 0001:000316b6       __alloca_probe_8           100326b6     LIBCMT:alloca16.obj
 0001:000316cc       ??3@YAXPAX@Z               100326cc f   LIBCMT:delete_scalar.obj
 0001:000316d1       ___isa_available_init      100326d1 f   LIBCMT:cpu_disp.obj
 0001:000318a1       __get_startup_argv_mode    100328a1 f   LIBCMT:argv_mode.obj
 0001:000318a5       ___scrt_is_ucrt_dll_in_use 100328a5 f   LIBCMT:ucrt_detection.obj
 0001:000318b1       ___scrt_fastfail           100328b1 f   LIBCMT:utility_desktop.obj
 0001:000319cb       __crt_debugger_hook        100329cb f   LIBCMT:utility_desktop.obj
 0001:000319e0       __SEH_prolog4              100329e0 f   LIBCMT:sehprolg4.obj
 0001:00031a26       __SEH_epilog4              10032a26 f   LIBCMT:sehprolg4.obj
 0001:00031a3b       ?__scrt_throw_std_bad_array_new_length@@YAXXZ 10032a3b f   LIBCMT:throw_bad_alloc.obj
 0001:00031aa5       ___security_init_cookie    10032aa5 f   LIBCMT:gs_support.obj
 0001:00031af0       _DllMain@12                10032af0 f   LIBCMT:dll_dllmain_stub.obj
 0001:00031af6       ?__scrt_initialize_type_info@@YAXXZ 10032af6 f   LIBCMT:tncleanup.obj
 0001:00031b02       ?__scrt_uninitialize_type_info@@YAXXZ 10032b02 f   LIBCMT:tncleanup.obj
 0001:00031b0e       ___local_stdio_scanf_options 10032b0e f i LIBCMT:default_local_stdio_options.obj
 0001:00031b14       ___scrt_initialize_default_local_stdio_options 10032b14 f   LIBCMT:default_local_stdio_options.obj
 0001:00031b31       ___scrt_get_dyn_tls_init_callback 10032b31 f   LIBCMT:dyn_tls_init.obj
 0001:00031b37       __RTC_Initialize           10032b37 f   LIBCMT:initsect.obj
 0001:00031b63       __RTC_Terminate            10032b63 f   LIBCMT:initsect.obj
 0001:00031b8f       ___raise_securityfailure   10032b8f f   LIBCMT:gs_report.obj
 0001:00031bb7       ___report_gsfailure        10032bb7 f   LIBCMT:gs_report.obj
 0001:00031cb0       ___report_rangecheckfailure 10032cb0 f   LIBCMT:gs_report.obj
 0001:00031cbc       ___report_securityfailure  10032cbc f   LIBCMT:gs_report.obj
 0001:00031d8a       __get_purecall_handler     10032d8a f   libvcruntime:purevirt.obj
 0001:00031d90       __purecall                 10032d90 f   libvcruntime:purevirt.obj
 0001:00031dac       ___DestructExceptionObject 10032dac f   libvcruntime:ehhelpers.obj
 0001:00031e4d       ?_CallMemberFunction0@@YGXQAX0@Z 10032e4d f i libvcruntime:ehhelpers.obj
 0001:00031eb2       __IsExceptionObjectToBeDestroyed 10032eb2 f   libvcruntime:ehhelpers.obj
 0001:00031ed8       ___AdjustPointer           10032ed8 f   libvcruntime:ehhelpers.obj
 0001:00031efd       ___FrameUnwindFilter       10032efd f   libvcruntime:ehhelpers.obj
 0001:00031f53       ___current_exception       10032f53 f   libvcruntime:ehhelpers.obj
 0001:00031f5c       ___current_exception_context 10032f5c f   libvcruntime:ehhelpers.obj
 0001:00031f65       ___std_terminate           10032f65 f   libvcruntime:ehhelpers.obj
 0001:00031f6a       ___std_exception_copy      10032f6a f   libvcruntime:std_exception.obj
 0001:00031fcd       ___std_exception_destroy   10032fcd f   libvcruntime:std_exception.obj
 0001:00031fec       __CxxThrowException@8      10032fec f   libvcruntime:throw.obj
 0001:00032058       ?GetRangeOfTrysToCheck@__FrameHandler3@@SA?AU?$pair@Viterator@TryBlockMap@__FrameHandler3@@V123@@std@@AAVTryBlockMap@1@HPAXPBU_s_FuncInfo@@H@Z 10033058 f   libvcruntime:trnsctrl.obj
 0001:000320c8       ?_CallCatchBlock2@@YAPAXPAUEHRegistrationNode@@PBU_s_FuncInfo@@PAXHK@Z 100330c8 f   libvcruntime:trnsctrl.obj
 0001:00032126       ?_CallSETranslator@@YAHPAUEHExceptionRecord@@PAUEHRegistrationNode@@PAX2PBU_s_FuncInfo@@H1@Z 10033126 f   libvcruntime:trnsctrl.obj
 0001:0003220c       ?_JumpToContinuation@@YGXPAXPAUEHRegistrationNode@@@Z 1003320c f   libvcruntime:trnsctrl.obj
 0001:0003223c       ?_UnwindNestedFrames@@YGXPAUEHRegistrationNode@@PAUEHExceptionRecord@@@Z 1003323c f   libvcruntime:trnsctrl.obj
 0001:0003228f       __CatchGuardHandler        1003328f f   libvcruntime:trnsctrl.obj
 0001:000322c0       __CreateFrameInfo          100332c0 f   libvcruntime:trnsctrl.obj
 0001:000322e4       __FindAndUnlinkFrame       100332e4 f   libvcruntime:trnsctrl.obj
 0001:0003232c       __TranslatorGuardHandler   1003332c f   libvcruntime:trnsctrl.obj
 0001:000323c9       ___CxxFrameHandler3        100333c9 f   libvcruntime:trnsctrl.obj
 0001:00032400       _memchr                    10033400 f   libvcruntime:memchr.obj
 0001:000324b0       _memcpy                    100334b0 f   libvcruntime:memcpy.obj
 0001:00032a30       _memmove                   10033a30 f   libvcruntime:memmove.obj
 0001:00032fb0       _memset                    10033fb0 f   libvcruntime:memset.obj
 0001:0003310a       _wcschr                    1003410a f   libvcruntime:wcschr.obj
 0001:000331d1       _memcmp                    100341d1 f   libvcruntime:memcmp.obj
 0001:00034175       ___vcrt_initialize         10035175 f   libvcruntime:initialization.obj
 0001:00034194       ___vcrt_thread_attach      10035194 f   libvcruntime:initialization.obj
 0001:0003419f       ___vcrt_thread_detach      1003519f f   libvcruntime:initialization.obj
 0001:000341aa       ___vcrt_uninitialize       100351aa f   libvcruntime:initialization.obj
 0001:000341c1       ___vcrt_uninitialize_critical 100351c1 f   libvcruntime:initialization.obj
 0001:00034210       __except_handler4          10035210 f   libvcruntime:chandler4.obj
 0001:0003436e       ___std_type_info_compare   1003536e f   libvcruntime:std_type_info.obj
 0001:000343aa       ___std_type_info_destroy_list 100353aa f   libvcruntime:std_type_info.obj
 0001:000343cd       ___vcrt_freefls@4          100353cd f   libvcruntime:per_thread_data.obj
 0001:000343e9       ___vcrt_freeptd            100353e9 f   libvcruntime:per_thread_data.obj
 0001:0003441f       ___vcrt_getptd             1003541f f   libvcruntime:per_thread_data.obj
 0001:0003442d       ___vcrt_getptd_noexit      1003542d f   libvcruntime:per_thread_data.obj
 0001:000344bf       ___vcrt_initialize_ptd     100354bf f   libvcruntime:per_thread_data.obj
 0001:000344f2       ___vcrt_uninitialize_ptd   100354f2 f   libvcruntime:per_thread_data.obj
 0001:00034c50       ??$TypeMatchHelper@V__FrameHandler3@@@@YAHPBU_s_HandlerType@@PBU_s_CatchableType@@PBU_s_ThrowInfo@@@Z 10035c50 f i libvcruntime:frame.obj
 0001:00034cde       ??$__InternalCxxFrameHandler@V__FrameHandler3@@@@YA?AW4_EXCEPTION_DISPOSITION@@PAUEHExceptionRecord@@PAUEHRegistrationNode@@PAU_CONTEXT@@PAXPBU_s_FuncInfo@@H1E@Z 10035cde f i libvcruntime:frame.obj
 0001:00034de0       ??0bad_exception@std@@QAE@ABV01@@Z 10035de0 f i libvcruntime:frame.obj
 0001:00034dfb       ??0bad_exception@std@@QAE@XZ 10035dfb f i libvcruntime:frame.obj
 0001:00034e13       ??8type_info@@QBE_NABV0@@Z 10035e13 f i libvcruntime:frame.obj
 0001:0003507a       ?FrameUnwindToEmptyState@__FrameHandler3@@SAXPAUEHRegistrationNode@@PAXPBU_s_FuncInfo@@@Z 1003607a f   libvcruntime:frame.obj
 0001:00035092       ?FrameUnwindToState@__FrameHandler3@@SAXPAUEHRegistrationNode@@PAXPBU_s_FuncInfo@@H@Z 10036092 f   libvcruntime:frame.obj
 0001:00035214       ?_CallMemberFunction1@@YGXQAX00@Z 10036214 f i libvcruntime:frame.obj
 0001:00035224       ?_CallMemberFunction2@@YGXQAX00H@Z 10036224 f i libvcruntime:frame.obj
 0001:00035237       ?getESTypes@__FrameHandler3@@SAPBU_s_ESTypeList@@PBU_s_FuncInfo@@@Z 10036237 f i libvcruntime:frame.obj
 0001:00035250       __CallSettingFrame@12      10036250 f   libvcruntime:lowhelpr.obj
 0001:00035277       __NLG_Return               10036277     libvcruntime:lowhelpr.obj
 0001:0003529c       ___except_validate_context_record 1003629c f   libvcruntime:jbcxrval.obj
 0001:000352cc       ___except_validate_jump_buffer 100362cc f   libvcruntime:jbcxrval.obj
 0001:000352f9       ___vcrt_initialize_locks   100362f9 f   libvcruntime:locks.obj
 0001:00035335       ___vcrt_uninitialize_locks 10036335 f   libvcruntime:locks.obj
 0001:00035370       __local_unwind4            10036370 f   libvcruntime:exsup4.obj
 0001:00035448       __seh_longjmp_unwind4@4    10036448 f   libvcruntime:exsup4.obj
 0001:00035470       @_EH4_CallFilterFunc@8     10036470 f   libvcruntime:exsup4.obj
 0001:00035488       @_EH4_TransferToHandler@8  10036488 f   libvcruntime:exsup4.obj
 0001:000354a4       @_EH4_GlobalUnwind2@8      100364a4 f   libvcruntime:exsup4.obj
 0001:000354c0       @_EH4_LocalUnwind@16       100364c0 f   libvcruntime:exsup4.obj
 0001:000355cc       ___vcrt_FlsAlloc           100365cc f   libvcruntime:winapi_downlevel.obj
 0001:00035607       ___vcrt_FlsFree            10036607 f   libvcruntime:winapi_downlevel.obj
 0001:00035642       ___vcrt_FlsGetValue        10036642 f   libvcruntime:winapi_downlevel.obj
 0001:0003567d       ___vcrt_FlsSetValue        1003667d f   libvcruntime:winapi_downlevel.obj
 0001:000356bb       ___vcrt_InitializeCriticalSectionEx 100366bb f   libvcruntime:winapi_downlevel.obj
 0001:00035702       _unexpected                10036702 f   libvcruntime:unexpected.obj
 0001:0003571f       ?GetCurrentState@__FrameHandler3@@SAHPAUEHRegistrationNode@@PAXPBU_s_FuncInfo@@@Z 1003671f f   libvcruntime:ehstate.obj
 0001:0003573c       ?SetState@__FrameHandler3@@SAXPAUEHRegistrationNode@@PBU_s_FuncInfo@@H@Z 1003673c f   libvcruntime:ehstate.obj
 0001:00035750       __global_unwind2           10036750 f   libvcruntime:exsup.obj
 0001:000357b6       __local_unwind2            100367b6 f   libvcruntime:exsup.obj
 0001:0003583a       __abnormal_termination     1003683a f   libvcruntime:exsup.obj
 0001:00035860       __NLG_Notify1              10036860 f   libvcruntime:exsup.obj
 0001:0003586c       __NLG_Notify               1003686c f   libvcruntime:exsup.obj
 0001:00035883       __NLG_Dispatch2            10036883     libvcruntime:exsup.obj
 0001:00035883       __NLG_Dispatch             10036883     libvcruntime:exsup.obj
 0001:0003588b       __NLG_Call                 1003688b f   libvcruntime:exsup.obj
 0001:0003588d       __NLG_Return2              1003688d     libvcruntime:exsup.obj
 0001:0003588e       ___acrt_call_reportfault   1003688e f   libucrt:invalid_parameter.obj
 0001:000359c7       ___acrt_initialize_invalid_parameter_handler 100369c7 f   libucrt:invalid_parameter.obj
 0001:000359d6       __invalid_parameter        100369d6 f   libucrt:invalid_parameter.obj
 0001:00035a3a       __invalid_parameter_noinfo 10036a3a f   libucrt:invalid_parameter.obj
 0001:00035a4a       __invalid_parameter_noinfo_noreturn 10036a4a f   libucrt:invalid_parameter.obj
 0001:00035a67       __invoke_watson            10036a67 f   libucrt:invalid_parameter.obj
 0001:00035a9b       __dclass                   10036a9b f   libucrt:nan.obj
 0001:00035aac       __ldsign                   10036aac f   libucrt:nanl.obj
 0001:00035aac       __dsign                    10036aac f   libucrt:nan.obj
 0001:00035abc       __ldclass                  10036abc f   libucrt:nanl.obj
 0001:00035acd       __fdclass                  10036acd f   libucrt:nanf.obj
 0001:00035ade       __fdsign                   10036ade f   libucrt:nanf.obj
 0001:00035af0       _calloc                    10036af0 f   libucrt:calloc.obj
 0001:00035afb       _free                      10036afb f   libucrt:free.obj
 0001:00035b16       ___acrt_errno_from_os_error 10036b16 f   libucrt:errno.obj
 0001:00035b59       ___acrt_errno_map_os_error 10036b59 f   libucrt:errno.obj
 0001:00035b7c       ___doserrno                10036b7c f   libucrt:errno.obj
 0001:00035b8f       __errno                    10036b8f f   libucrt:errno.obj
 0001:00035ba2       ___acrt_initialize_stdio   10036ba2 f   libucrt:_file.obj
 0001:00035c6a       ___acrt_uninitialize_stdio 10036c6a f   libucrt:_file.obj
 0001:00035cb6       __lock_file                10036cb6 f   libucrt:_file.obj
 0001:00035cca       __unlock_file              10036cca f   libucrt:_file.obj
 0001:00035cde       __fileno                   10036cde f   libucrt:fileno.obj
 0001:00035f6b       ??$count@D@formatting_buffer@__crt_stdio_output@@QBEIXZ 10036f6b f i libucrt:output.obj
 0001:00035f83       ??$ensure_buffer_is_big_enough@D@formatting_buffer@__crt_stdio_output@@QAE_NI@Z 10036f83 f i libucrt:output.obj
 0001:00036000       ??$is_wide_character_specifier@D@__crt_stdio_output@@YA_N_KDW4length_modifier@0@@Z 10037000 f i libucrt:output.obj
 0001:00036031       ??$scratch_data@D@formatting_buffer@__crt_stdio_output@@QAEPADXZ 10037031 f i libucrt:output.obj
 0001:0003604f       ??$type_case_integer_parse_into_buffer@I@?$output_processor@DV?$string_output_adapter@D@__crt_stdio_output@@V?$format_validation_base@DV?$string_output_adapter@D@__crt_stdio_output@@@2@@__crt_stdio_output@@AAEXII_N@Z 1003704f f i libucrt:output.obj
 0001:000360c2       ??$type_case_integer_parse_into_buffer@_K@?$output_processor@DV?$string_output_adapter@D@__crt_stdio_output@@V?$format_validation_base@DV?$string_output_adapter@D@__crt_stdio_output@@@2@@__crt_stdio_output@@AAEX_KI_N@Z 100370c2 f i libucrt:output.obj
 0001:00036150       ??$write_multiple_characters@V?$string_output_adapter@D@__crt_stdio_output@@D@__crt_stdio_output@@YAXABV?$string_output_adapter@D@0@DHQAH@Z 10037150 f i libucrt:output.obj
 0001:0003617c       ??0?$common_data@D@__crt_stdio_output@@IAE@XZ 1003717c f i libucrt:output.obj
 0001:000361c1       ??0?$output_adapter_data@DV?$string_output_adapter@D@__crt_stdio_output@@@__crt_stdio_output@@IAE@ABV?$string_output_adapter@D@1@_KQBDQAU__crt_locale_pointers@@QAD@Z 100371c1 f i libucrt:output.obj
 0001:000361fd       ??0_LocaleUpdate@@QAE@QAU__crt_locale_pointers@@@Z 100371fd f i libucrt:output.obj
 0001:00036280       ??1_LocaleUpdate@@QAE@XZ   10037280 f i libucrt:output.obj
 0001:00036290       ??1formatting_buffer@__crt_stdio_output@@QAE@XZ 10037290 f i libucrt:output.obj
 0001:000362aa       ??4?$__crt_unique_heap_ptr@DU__crt_internal_free_policy@@@@QAEAAV0@$$QAV0@@Z 100372aa f i libucrt:output.obj
 0001:000362ce       ?crop_zeroes@__crt_stdio_output@@YAXPADQAU__crt_locale_pointers@@@Z 100372ce f i libucrt:output.obj
 0001:0003632e       ?find_next_state@?$output_processor@DV?$string_output_adapter@D@__crt_stdio_output@@V?$format_validation_base@DV?$string_output_adapter@D@__crt_stdio_output@@@2@@__crt_stdio_output@@ABE?AW4state@2@DW432@@Z 1003732e f i libucrt:output.obj
 0001:0003636e       ?force_decimal_point@__crt_stdio_output@@YAXPADQAU__crt_locale_pointers@@@Z 1003736e f i libucrt:output.obj
 0001:000363ca       ?parse_int_from_format_string@?$output_processor@DV?$string_output_adapter@D@__crt_stdio_output@@V?$format_validation_base@DV?$string_output_adapter@D@__crt_stdio_output@@@2@@__crt_stdio_output@@AAE_NQAH@Z 100373ca f i libucrt:output.obj
 0001:0003643e       ?process@?$output_processor@DV?$string_output_adapter@D@__crt_stdio_output@@V?$format_validation_base@DV?$string_output_adapter@D@__crt_stdio_output@@@2@@__crt_stdio_output@@QAEHXZ 1003743e f i libucrt:output.obj
 0001:00036562       ?state_case_flag@?$output_processor@DV?$string_output_adapter@D@__crt_stdio_output@@V?$format_validation_base@DV?$string_output_adapter@D@__crt_stdio_output@@@2@@__crt_stdio_output@@AAE_NXZ 10037562 f i libucrt:output.obj
 0001:0003659f       ?state_case_normal@?$output_processor@DV?$string_output_adapter@D@__crt_stdio_output@@V?$format_validation_base@DV?$string_output_adapter@D@__crt_stdio_output@@@2@@__crt_stdio_output@@AAE_NXZ 1003759f f i libucrt:output.obj
 0001:000365be       ?state_case_normal_common@?$output_processor@DV?$string_output_adapter@D@__crt_stdio_output@@V?$format_validation_base@DV?$string_output_adapter@D@__crt_stdio_output@@@2@@__crt_stdio_output@@AAE_NXZ 100375be f i libucrt:output.obj
 0001:000365e8       ?state_case_normal_tchar@?$output_processor@DV?$string_output_adapter@D@__crt_stdio_output@@V?$format_validation_base@DV?$string_output_adapter@D@__crt_stdio_output@@@2@@__crt_stdio_output@@AAE_ND@Z 100375e8 f i libucrt:output.obj
 0001:0003664c       ?state_case_precision@?$output_processor@DV?$string_output_adapter@D@__crt_stdio_output@@V?$format_validation_base@DV?$string_output_adapter@D@__crt_stdio_output@@@2@@__crt_stdio_output@@AAE_NXZ 1003764c f i libucrt:output.obj
 0001:00036672       ?state_case_size@?$output_processor@DV?$string_output_adapter@D@__crt_stdio_output@@V?$format_validation_base@DV?$string_output_adapter@D@__crt_stdio_output@@@2@@__crt_stdio_output@@AAE_NXZ 10037672 f i libucrt:output.obj
 0001:000367c0       ?state_case_type@?$output_processor@DV?$string_output_adapter@D@__crt_stdio_output@@V?$format_validation_base@DV?$string_output_adapter@D@__crt_stdio_output@@@2@@__crt_stdio_output@@AAE_NXZ 100377c0 f i libucrt:output.obj
 0001:000369f2       ?state_case_width@?$output_processor@DV?$string_output_adapter@D@__crt_stdio_output@@V?$format_validation_base@DV?$string_output_adapter@D@__crt_stdio_output@@@2@@__crt_stdio_output@@AAE_NXZ 100379f2 f i libucrt:output.obj
 0001:00036a1d       ?to_integer_size@__crt_stdio_output@@YAIW4length_modifier@1@@Z 10037a1d f i libucrt:output.obj
 0001:00036a71       ?type_case_Z@?$output_processor@DV?$string_output_adapter@D@__crt_stdio_output@@V?$format_validation_base@DV?$string_output_adapter@D@__crt_stdio_output@@@2@@__crt_stdio_output@@AAE_NXZ 10037a71 f i libucrt:output.obj
 0001:00036acb       ?type_case_a@?$output_processor@DV?$string_output_adapter@D@__crt_stdio_output@@V?$format_validation_base@DV?$string_output_adapter@D@__crt_stdio_output@@@2@@__crt_stdio_output@@AAE_NXZ 10037acb f i libucrt:output.obj
 0001:00036c1a       ?type_case_c_tchar@?$output_processor@DV?$string_output_adapter@D@__crt_stdio_output@@V?$format_validation_base@DV?$string_output_adapter@D@__crt_stdio_output@@@2@@__crt_stdio_output@@AAE_ND@Z 10037c1a f i libucrt:output.obj
 0001:00036caa       ?type_case_integer@?$output_processor@DV?$string_output_adapter@D@__crt_stdio_output@@V?$format_validation_base@DV?$string_output_adapter@D@__crt_stdio_output@@@2@@__crt_stdio_output@@AAE_NI_N@Z 10037caa f i libucrt:output.obj
 0001:00036dfb       ?type_case_n@?$output_processor@DV?$string_output_adapter@D@__crt_stdio_output@@V?$format_validation_base@DV?$string_output_adapter@D@__crt_stdio_output@@@2@@__crt_stdio_output@@AAE_NXZ 10037dfb f i libucrt:output.obj
 0001:00036e6f       ?type_case_o@?$output_processor@DV?$string_output_adapter@D@__crt_stdio_output@@V?$format_validation_base@DV?$string_output_adapter@D@__crt_stdio_output@@@2@@__crt_stdio_output@@AAE_NXZ 10037e6f f i libucrt:output.obj
 0001:00036e8e       ?type_case_p@?$output_processor@DV?$string_output_adapter@D@__crt_stdio_output@@V?$format_validation_base@DV?$string_output_adapter@D@__crt_stdio_output@@@2@@__crt_stdio_output@@AAE_NXZ 10037e8e f i libucrt:output.obj
 0001:00036ea6       ?type_case_s@?$output_processor@DV?$string_output_adapter@D@__crt_stdio_output@@V?$format_validation_base@DV?$string_output_adapter@D@__crt_stdio_output@@@2@@__crt_stdio_output@@AAE_NXZ 10037ea6 f i libucrt:output.obj
 0001:00036f17       ?validate@?$string_output_adapter@D@__crt_stdio_output@@QBE_NXZ 10037f17 f i libucrt:output.obj
 0001:00036f17       ?validate@?$c_string_character_source@_W@__crt_strtox@@QBE_NXZ 10037f17 f i libucrt:strtod.obj
 0001:00036f17       ?validate@?$c_string_character_source@D@__crt_strtox@@QBE_NXZ 10037f17 f i libucrt:strtod.obj
 0001:00036f32       ?validate_and_update_state_at_end_of_format_string@?$format_validation_base@DV?$string_output_adapter@D@__crt_stdio_output@@@__crt_stdio_output@@IBE_NXZ 10037f32 f i libucrt:output.obj
 0001:00036f54       ?write_character@?$string_output_adapter@D@__crt_stdio_output@@QBE_NDQAH@Z 10037f54 f i libucrt:output.obj
 0001:00036f96       ?write_stored_string_tchar@?$output_processor@DV?$string_output_adapter@D@__crt_stdio_output@@V?$format_validation_base@DV?$string_output_adapter@D@__crt_stdio_output@@@2@@__crt_stdio_output@@AAE_ND@Z 10037f96 f i libucrt:output.obj
 0001:0003703d       ?write_string@?$string_output_adapter@D@__crt_stdio_output@@QBEXQBDHQAHAAV__crt_deferred_errno_cache@@@Z 1003803d f i libucrt:output.obj
 0001:000370a4       ___acrt_locale_get_ctype_array_value 100380a4 f i libucrt:output.obj
 0001:000370c6       ___stdio_common_vsnprintf_s 100380c6 f   libucrt:output.obj
 0001:000370ed       _terminate                 100380ed f   libucrt:terminate.obj
 0001:00037129       _localeconv                10038129 f   libucrt:localeconv.obj
 0001:00037151       ___acrt_lowio_create_handle_array 10038151 f   libucrt:osfinfo.obj
 0001:000371cc       ___acrt_lowio_destroy_handle_array 100381cc f   libucrt:osfinfo.obj
 0001:00037201       ___acrt_lowio_ensure_fh_exists 10038201 f   libucrt:osfinfo.obj
 0001:0003729f       ___acrt_lowio_lock_fh      1003829f f   libucrt:osfinfo.obj
 0001:000372c2       ___acrt_lowio_unlock_fh    100382c2 f   libucrt:osfinfo.obj
 0001:000372e5       __free_osfhnd              100382e5 f   libucrt:osfinfo.obj
 0001:00037376       __get_osfhandle            10038376 f   libucrt:osfinfo.obj
 0001:000373e0       __isatty                   100383e0 f   libucrt:isatty.obj
 0001:00037436       _malloc                    10038436 f   libucrt:malloc.obj
 0001:00037441       __dlog                     10038441 f   libucrt:log2d.obj
 0001:00037588       _log2                      10038588 f   libucrt:log2d.obj
 0001:000375b0       _modf                      100385b0 f   libucrt:modf_pentium4.obj
 0001:000375f0       __modf_pentium4            100385f0 f   libucrt:modf_pentium4.obj
 0001:000376f8       _round                     100386f8 f   libucrt:round.obj
 0001:00037749       __isleadbyte_l             10038749 f i libucrt:_wctype.obj
 0001:00037783       _iswdigit                  10038783 f i libucrt:_wctype.obj
 0001:00037796       _wcscspn                   10038796 f   libucrt:wcscspn.obj
 0001:000377ef       _wcsncpy                   100387ef f   libucrt:wcsncpy.obj
 0001:00037832       _wcspbrk                   10038832 f   libucrt:wcspbrk.obj
 0001:00037880       _wcstok                    10038880 f   libucrt:wcstok.obj
 0001:000378b0       __CIlog10                  100388b0 f   libucrt:log10_impl.obj
 0001:000378eb       __CIlog10_default          100388eb f   libucrt:log10_impl.obj
 0001:000378ff       __log10_default            100388ff     libucrt:log10_impl.obj
 0001:000379c0       __CIpow                    100389c0 f   libucrt:pow_impl.obj
 0001:000379fb       __CIpow_default            100389fb f   libucrt:pow_impl.obj
 0001:00037a14       __pow_default              10038a14     libucrt:pow_impl.obj
 0001:00037c10       _ceil                      10038c10 f   libucrt:ceil_pentium4.obj
 0001:00037c50       __ceil_pentium4            10038c50 f   libucrt:ceil_pentium4.obj
 0001:00037d2d       ___acrt_initialize_locks   10038d2d f   libucrt:locks.obj
 0001:00037d6e       ___acrt_lock               10038d6e f   libucrt:locks.obj
 0001:00037d85       ___acrt_uninitialize_locks 10038d85 f   libucrt:locks.obj
 0001:00037db6       ___acrt_unlock             10038db6 f   libucrt:locks.obj
 0001:00037dcd       __lock_locales             10038dcd f   libucrt:locks.obj
 0001:00037ddb       __unlock_locales           10038ddb f   libucrt:locks.obj
 0001:0003803e       _setlocale                 1003903e f   libucrt:setlocale.obj
 0001:00038076       ____lc_codepage_func       10039076 f   libucrt:initctype.obj
 0001:0003809b       ____lc_locale_name_func    1003909b f   libucrt:initctype.obj
 0001:000380c2       ____mb_cur_max_func        100390c2 f   libucrt:initctype.obj
 0001:000380e7       ___acrt_locale_initialize_ctype 100390e7 f   libucrt:initctype.obj
 0001:00038545       ___pctype_func             10039545 f   libucrt:ctype.obj
 0001:00038569       ??$make_c_string_character_source@DPAPAD@__crt_strtox@@YA?AV?$c_string_character_source@D@0@QBDQAPAD@Z 10039569 f i libucrt:strtod.obj
 0001:00038590       ?divide@__crt_strtox@@YA_KAAUbig_integer@1@ABU21@@Z 10039590 f i libucrt:strtod.obj
 0001:00038a28       ?unget@?$c_string_character_source@D@__crt_strtox@@QAEXD@Z 10039a28 f i libucrt:strtod.obj
 0001:00038a51       ?unget@?$c_string_character_source@_W@__crt_strtox@@QAEX_W@Z 10039a51 f i libucrt:strtod.obj
 0001:00038a7f       __ischartype_l             10039a7f f i libucrt:strtod.obj
 0001:00038b60       _strcspn                   10039b60 f   libucrt:strcspn.obj
 0001:00038ba6       _abort                     10039ba6 f   libucrt:abort.obj
 0001:00038bea       _wcsdup                    10039bea f   libucrt:wcsdup.obj
 0001:00038bea       __wcsdup                   10039bea f   libucrt:wcsdup.obj
 0001:00038cfb       ??$__acrt_mbs_to_wcs_cp@U__crt_win32_buffer_internal_dynamic_resizing@@@@YAHQBDAAV?$__crt_win32_buffer@_WU__crt_win32_buffer_internal_dynamic_resizing@@@@I@Z 10039cfb f i libucrt:strftime.obj
 0001:00038d18       ?_deallocate@?$__crt_win32_buffer@_WU__crt_win32_buffer_internal_dynamic_resizing@@@@AAEXXZ 10039d18 f i libucrt:strftime.obj
 0001:00038d18       ?_deallocate@?$__crt_win32_buffer@DU__crt_win32_buffer_internal_dynamic_resizing@@@@AAEXXZ 10039d18 f i libucrt:argv_wildcards.obj
 0001:00038d32       ?allocate@?$__crt_win32_buffer@DU__crt_win32_buffer_no_resizing@@@@QAEHI@Z 10039d32 f i libucrt:strftime.obj
 0001:00038d59       ?allocate@?$__crt_win32_buffer@_WU__crt_win32_buffer_internal_dynamic_resizing@@@@QAEHI@Z 10039d59 f i libucrt:strftime.obj
 0001:00038d98       ?allocate@__crt_win32_buffer_internal_dynamic_resizing@@SAHQAPAXIABV__crt_win32_buffer_empty_debug_info@@@Z 10039d98 f i libucrt:strftime.obj
 0001:00038db7       ?set_to_nullptr@?$__crt_win32_buffer@DU__crt_win32_buffer_no_resizing@@@@QAEXXZ 10039db7 f i libucrt:strftime.obj
 0001:00038dcb       ___strncnt                 10039dcb f   libucrt:strncnt.obj
 0001:00038de7       _wcscpy_s                  10039de7 f   libucrt:wcscpy_s.obj
 0001:00038e4b       _strnlen                   10039e4b f   libucrt:strnlen.obj
 0001:00038f6d       _wcsnlen                   10039f6d f   libucrt:strnlen.obj
 0001:0003911d       __seh_filter_dll           1003a11d f   libucrt:exception_filter.obj
 0001:0003913d       __seh_filter_exe           1003a13d f   libucrt:exception_filter.obj
 0001:0003950b       ___acrt_initialize_thread_local_exit_callback 1003a50b f   libucrt:exit.obj
 0001:0003951a       __cexit                    1003a51a f   libucrt:exit.obj
 0001:00039529       __exit                     1003a529 f   libucrt:exit.obj
 0001:0003953f       __is_c_termination_complete 1003a53f f   libucrt:exit.obj
 0001:000397f3       ___acrt_allocate_buffer_for_argv 1003a7f3 f   libucrt:argv_parsing.obj
 0001:00039842       __configure_narrow_argv    1003a842 f   libucrt:argv_parsing.obj
 0001:0003999f       ??$uninitialize@A6AXAAPAPAD@Z@?$dual_state_global@PAPAD@__crt_state_management@@QAEXA6AXAAPAPAD@Z@Z 1003a99f f i libucrt:environment_initialization.obj
 0001:0003999f       ??$uninitialize@A6AXAAPAPA_W@Z@?$dual_state_global@PAPA_W@__crt_state_management@@QAEXA6AXAAPAPA_W@Z@Z 1003a99f f i libucrt:environment_initialization.obj
 0001:000399fe       ___dcrt_uninitialize_environments_nolock 1003a9fe f   libucrt:environment_initialization.obj
 0001:00039a35       __initialize_narrow_environment 1003aa35 f   libucrt:environment_initialization.obj
 0001:00039af0       ??$__crt_fast_encode_pointer@P6AHXZ@@YAP6AHXZQ6AHXZ@Z 1003aaf0 f i libucrt:onexit.obj
 0001:00039af0       ??$__crt_fast_encode_pointer@PAX@@YAPAXQAX@Z 1003aaf0 f i libucrt:initialization.obj
 0001:00039af0       ??$__crt_fast_encode_pointer@P6GHPA_WKJ@Z@@YAP6GHPA_WKJ@ZQ6GH0KJ@Z@Z 1003aaf0 f i libucrt:winapi_thunks.obj
 0001:00039af0       ??$__crt_fast_encode_pointer@PAP6AXXZ@@YAPAP6AXXZQAP6AXXZ@Z 1003aaf0 f i libucrt:onexit.obj
 0001:00039d12       __crt_atexit               1003ad12 f   libucrt:onexit.obj
 0001:00039d28       __execute_onexit_table     1003ad28 f   libucrt:onexit.obj
 0001:00039d55       __initialize_onexit_table  1003ad55 f   libucrt:onexit.obj
 0001:00039d7e       __register_onexit_function 1003ad7e f   libucrt:onexit.obj
 0001:00039db1       ___acrt_uninitialize_command_line 1003adb1 f   libucrt:argv_data.obj
 0001:00039eaf       ___acrt_initialize         1003aeaf f   libucrt:initialization.obj
 0001:00039ec1       ___acrt_thread_attach      1003aec1 f   libucrt:initialization.obj
 0001:00039ecc       ___acrt_thread_detach      1003aecc f   libucrt:initialization.obj
 0001:00039ed4       ___acrt_uninitialize       1003aed4 f   libucrt:initialization.obj
 0001:00039f04       ___acrt_uninitialize_critical 1003af04 f   libucrt:initialization.obj
 0001:00039f16       ___initialize_lconv_for_unsigned_char 1003af16 f   libucrt:lconv_unsigned_char_initialization.obj
 0001:00039f44       ___acrt_initialize_new_handler 1003af44 f   libucrt:new_handler.obj
 0001:00039f53       __callnewh                 1003af53 f   libucrt:new_handler.obj
 0001:00039f80       __query_new_handler        1003af80 f   libucrt:new_handler.obj
 0001:00039fdc       __initterm                 1003afdc f   libucrt:initterm.obj
 0001:0003a021       __initterm_e               1003b021 f   libucrt:initterm.obj
 0001:0003a04f       _strcpy_s                  1003b04f f   libucrt:strcpy_s.obj
 0001:0003a0a9       ??$is_overflow_condition@K@__crt_strtox@@YA_NIK@Z 1003b0a9 f i libucrt:atox.obj
 0001:0003a0da       ??$parse_integer@KV?$c_string_character_source@D@__crt_strtox@@@__crt_strtox@@YAKQAU__crt_locale_pointers@@V?$c_string_character_source@D@0@H_N@Z 1003b0da f i libucrt:atox.obj
 0001:0003a2ff       ??$parse_integer@KV?$c_string_character_source@_W@__crt_strtox@@@__crt_strtox@@YAKQAU__crt_locale_pointers@@V?$c_string_character_source@_W@0@H_N@Z 1003b2ff f i libucrt:atox.obj
 0001:0003a907       __wtol                     1003b907 f   libucrt:atox.obj
 0001:0003a930       _strncmp                   1003b930 f   libucrt:strncmp.obj
 0001:0003a9a8       _wcsncmp                   1003b9a8 f   libucrt:wcsncmp.obj
 0001:0003ad20       ___acrt_freeptd            1003bd20 f   libucrt:per_thread_data.obj
 0001:0003ad4c       ___acrt_getptd             1003bd4c f   libucrt:per_thread_data.obj
 0001:0003ae09       ___acrt_getptd_head        1003be09 f   libucrt:per_thread_data.obj
 0001:0003aea3       ___acrt_getptd_noexit      1003bea3 f   libucrt:per_thread_data.obj
 0001:0003af58       ___acrt_initialize_ptd     1003bf58 f   libucrt:per_thread_data.obj
 0001:0003af84       ___acrt_uninitialize_ptd   1003bf84 f   libucrt:per_thread_data.obj
 0001:0003b016       __d_int                    1003c016 f   libucrt:_test.obj
 0001:0003b11c       __dtest                    1003c11c f   libucrt:_test.obj
 0001:0003b180       __fdtest                   1003c180 f   libucrt:_test.obj
 0001:0003b1ce       __fperrraise               1003c1ce f   libucrt:_test.obj
 0001:0003b1ef       __ldtest                   1003c1ef f   libucrt:_test.obj
 0001:0003b1fa       __calloc_base              1003c1fa f   libucrt:calloc_base.obj
 0001:0003b257       __free_base                1003c257 f   libucrt:free_base.obj
 0001:0003b5b1       ___acrt_AppPolicyGetProcessTerminationMethodInternal@4 1003c5b1 f   libucrt:winapi_thunks.obj
 0001:0003b5f1       ___acrt_AreFileApisANSI@0  1003c5f1 f   libucrt:winapi_thunks.obj
 0001:0003b610       ___acrt_EnumSystemLocalesEx@16 1003c610 f   libucrt:winapi_thunks.obj
 0001:0003b664       ___acrt_FlsAlloc@4         1003c664 f   libucrt:winapi_thunks.obj
 0001:0003b6a3       ___acrt_FlsFree@4          1003c6a3 f   libucrt:winapi_thunks.obj
 0001:0003b6e2       ___acrt_FlsGetValue@4      1003c6e2 f   libucrt:winapi_thunks.obj
 0001:0003b721       ___acrt_FlsSetValue@8      1003c721 f   libucrt:winapi_thunks.obj
 0001:0003b763       ___acrt_GetLocaleInfoEx@16 1003c763 f   libucrt:winapi_thunks.obj
 0001:0003b7a2       ___acrt_GetUserDefaultLocaleName@8 1003c7a2 f   libucrt:winapi_thunks.obj
 0001:0003b7de       ___acrt_InitializeCriticalSectionEx@12 1003c7de f   libucrt:winapi_thunks.obj
 0001:0003b829       ___acrt_IsValidLocaleName@4 1003c829 f   libucrt:winapi_thunks.obj
 0001:0003b861       ___acrt_LCIDToLocaleName@16 1003c861 f   libucrt:winapi_thunks.obj
 0001:0003b8a0       ___acrt_LCMapStringEx@36   1003c8a0 f   libucrt:winapi_thunks.obj
 0001:0003b8fd       ___acrt_LocaleNameToLCID@8 1003c8fd f   libucrt:winapi_thunks.obj
 0001:0003b92e       ___acrt_can_use_vista_locale_apis 1003c92e f   libucrt:winapi_thunks.obj
 0001:0003b939       ___acrt_eagerly_load_locale_apis 1003c939 f   libucrt:winapi_thunks.obj
 0001:0003b970       ___acrt_initialize_winapi_thunks 1003c970 f   libucrt:winapi_thunks.obj
 0001:0003b99b       ___acrt_uninitialize_winapi_thunks 1003c99b f   libucrt:winapi_thunks.obj
 0001:0003b9d1       __fcloseall                1003c9d1 f   libucrt:closeall.obj
 0001:0003bc59       ___acrt_stdio_flush_nolock 1003cc59 f   libucrt:fflush.obj
 0001:0003bcbe       __fflush_nolock            1003ccbe f   libucrt:fflush.obj
 0001:0003bd06       __flushall                 1003cd06 f   libucrt:fflush.obj
 0001:0003bd0f       ___acrt_stdio_free_buffer_nolock 1003cd0f f   libucrt:_freebuf.obj
 0001:0003beb9       ___acrt_initialize_lowio   1003ceb9 f   libucrt:ioinit.obj
 0001:0003bf19       ___acrt_uninitialize_lowio 1003cf19 f   libucrt:ioinit.obj
 0001:0003c6be       __write                    1003d6be f   libucrt:write.obj
 0001:0003c7b0       __write_nolock             1003d7b0 f   libucrt:write.obj
 0001:0003c992       __malloc_base              1003d992 f   libucrt:malloc_base.obj
 0001:0003c9e0       _strtol                    1003d9e0 f   libucrt:strtox.obj
 0001:0003ca0a       __mbtowc_l                 1003da0a f   libucrt:mbtowc.obj
 0001:0003cb4c       _mbtowc                    1003db4c f   libucrt:mbtowc.obj
 0001:0003cb66       __wctomb_s_l               1003db66 f   libucrt:wctomb.obj
 0001:0003ccc1       _wctomb_s                  1003dcc1 f   libucrt:wctomb.obj
 0001:0003ccde       ___acrt_update_locale_info 1003dcde f   libucrt:locale_update.obj
 0001:0003cd0b       ___acrt_update_multibyte_info 1003dd0b f   libucrt:locale_update.obj
 0001:0003cd38       ?__acrt_fp_classify@@YA?AW4__acrt_fp_class@@ABN@Z 1003dd38 f i libucrt:cvt.obj
 0001:0003d583       ___acrt_fp_format          1003e583 f   libucrt:cvt.obj
 0001:0003d6be       __get_printf_count_output  1003e6be f   libucrt:printf_count_output.obj
 0001:0003d7d6       ??0_expandlocale_locale_name_cache@@QAE@QA_WIQAU__crt_qualified_locale_data@@@Z 1003e7d6 f i libucrt:wsetlocale.obj
 0001:0003d820       ??1_expandlocale_locale_name_cache@@QAE@XZ 1003e820 f i libucrt:wsetlocale.obj
 0001:0003d9b8       ?commit_locale_name@_expandlocale_locale_name_cache@@QAEXQB_WI@Z 1003e9b8 f i libucrt:wsetlocale.obj
 0001:0003d9fc       ?commit_locale_name_cache_already_updated@_expandlocale_locale_name_cache@@QAEXQB_WI@Z 1003e9fc f i libucrt:wsetlocale.obj
 0001:0003da31       ___acrt_copy_locale_name   1003ea31 f   libucrt:wsetlocale.obj
 0001:0003da91       ___acrt_set_locale_changed 1003ea91 f   libucrt:wsetlocale.obj
 0001:0003da9c       ___acrt_uninitialize_locale 1003ea9c f   libucrt:wsetlocale.obj
 0001:0003dac3       ___lc_lctowcs              1003eac3 f   libucrt:wsetlocale.obj
 0001:0003db33       ___lc_wcstolc              1003eb33 f   libucrt:wsetlocale.obj
 0001:0003e078       __wcscats                  1003f078 f   libucrt:wsetlocale.obj
 0001:0003e0b9       __wsetlocale               1003f0b9 f   libucrt:wsetlocale.obj
 0001:0003ef61       __mbstowcs_s_l             1003ff61 f   libucrt:mbstowcs.obj
 0001:0003f041       _mbstowcs_s                10040041 f   libucrt:mbstowcs.obj
 0001:0003f114       _strncpy_s                 10040114 f   libucrt:strncpy_s.obj
 0001:0003f11f       __query_app_type           1004011f f   libucrt:report_runtime_error.obj
 0001:0003f125       __dunscale                 10040125 f   libucrt:_unscale.obj
 0001:0003f1bb       ___acrt_initialize_sse2    100401bb f   libucrt:mathfcns.obj
 0001:0003f1cb       __modf_default             100401cb f   libucrt:modf.obj
 0001:0003f2d1       ___libm_error_support      100402d1 f   libucrt:libm_error.obj
 0001:0003f4c5       _iswctype                  100404c5 f   libucrt:iswctype.obj
 0001:0003f52e       ___acrt_wcstok_s_novalidation 1004052e f   libucrt:wcstok_s.obj
 0001:0003f610       __CIlog10_pentium4         10040610 f   libucrt:log10_pentium4.obj
 0001:0003f628       __log10_pentium4           10040628     libucrt:log10_pentium4.obj
 0001:0003f8c0       __fFEXP                    100408c0 f   libucrt:87tran.obj
 0001:0003f917       __rtinfpopse               10040917     libucrt:87tran.obj
 0001:0003f919       __rtinfnpopse              10040919     libucrt:87tran.obj
 0001:0003f929       __fFLN                     10040929     libucrt:87tran.obj
 0001:0003f9de       __rtinfpop                 100409de     libucrt:87tran.obj
 0001:0003f9e0       __rtinfnpop                100409e0     libucrt:87tran.obj
 0001:0003f9f0       __rtforexpinf              100409f0 f   libucrt:87tran.obj
 0001:0003f9fd       __ffexpm1                  100409fd     libucrt:87tran.obj
 0001:0003fab0       __trandisp1                10040ab0 f   libucrt:87disp.obj
 0001:0003fb25       __trandisp2                10040b25 f   libucrt:87disp.obj
 0001:0003fbbf       __rttospopde               10040bbf     libucrt:87disp.obj
 0001:0003fbc4       __rttospop                 10040bc4     libucrt:87disp.obj
 0001:0003fbd0       __rtnospop                 10040bd0 f   libucrt:87disp.obj
 0001:0003fbe0       __rttosnpop                10040be0 f   libucrt:87disp.obj
 0001:0003fbe1       __rtnospopde               10040be1     libucrt:87disp.obj
 0001:0003fbe8       __rtzeropop                10040be8     libucrt:87disp.obj
 0001:0003fbea       __rtzeronpop               10040bea     libucrt:87disp.obj
 0001:0003fbf0       __rtzerospop               10040bf0 f   libucrt:87disp.obj
 0001:0003fbfd       __rtonepop                 10040bfd     libucrt:87disp.obj
 0001:0003fc00       __rtonenpop                10040c00 f   libucrt:87disp.obj
 0001:0003fc10       __tosnan1                  10040c10 f   libucrt:87disp.obj
 0001:0003fc40       __nosnan2                  10040c40 f   libucrt:87disp.obj
 0001:0003fc50       __tosnan2                  10040c50 f   libucrt:87disp.obj
 0001:0003fc80       __nan2                     10040c80 f   libucrt:87disp.obj
 0001:0003fcc0       __rtindfpop                10040cc0 f   libucrt:87disp.obj
 0001:0003fcc2       __rtindfnpop               10040cc2     libucrt:87disp.obj
 0001:0003fcd3       __rttosnpopde              10040cd3     libucrt:87disp.obj
 0001:0003fce0       __rtatan2inf               10040ce0 f   libucrt:87disp.obj
 0001:0003fcfd       __rtchsifneg               10040cfd     libucrt:87disp.obj
 0001:0003fd10       __twoToTOS                 10040d10 f   libucrt:common.obj
 0001:0003fd25       __load_CW                  10040d25 f   libucrt:common.obj
 0001:0003fd3c       __convertTOStoQNaN         10040d3c f   libucrt:common.obj
 0001:0003fd55       __fload_withFB             10040d55 f   libucrt:common.obj
 0001:0003fd98       __checkTOS_withFB          10040d98 f   libucrt:common.obj
 0001:0003fdae       __fast_exit                10040dae f   libucrt:common.obj
 0001:0003fdbb       __math_exit                10040dbb f   libucrt:common.obj
 0001:0003fde5       __check_overflow_exit      10040de5 f   libucrt:common.obj
 0001:0003fdf9       __check_range_exit         10040df9 f   libucrt:common.obj
 0001:0003fea0       __startTwoArgErrorHandling 10040ea0 f   libucrt:genexcep.obj
 0001:0003feb7       __startOneArgErrorHandling 10040eb7 f   libucrt:genexcep.obj
 0001:0003ff00       __CIpow_pentium4           10040f00 f   libucrt:pow_pentium4.obj
 0001:0003ff19       __pow_pentium4             10040f19     libucrt:pow_pentium4.obj
 0001:00040a20       __d_inttype                10041a20 f   libucrt:powhlp.obj
 0001:00040a88       __powhlp                   10041a88 f   libucrt:powhlp.obj
 0001:00040bb3       __ceil_default             10041bb3 f   libucrt:ceil.obj
 0001:00040f11       __wcstombs_s_l             10041f11 f   libucrt:wcstombs.obj
 0001:000410bb       ___acrt_GetLocaleInfoA     100420bb f   libucrt:getlocaleinfoa.obj
 0001:0004126b       ___acrt_GetStringTypeA     1004226b f   libucrt:getstringtypea.obj
 0001:00041558       ___acrt_LCMapStringA       10042558 f   libucrt:lcmapstringa.obj
 0001:000415a1       __errcode                  100425a1 f   libucrt:fpexcept.obj
 0001:000415d5       __except1                  100425d5 f   libucrt:fpexcept.obj
 0001:000416a3       __handle_exc               100426a3 f   libucrt:fpexcept.obj
 0001:0004188e       __raise_exc                1004288e f   libucrt:fpexcept.obj
 0001:000418b1       __raise_exc_ex             100428b1 f   libucrt:fpexcept.obj
 0001:00041ba7       __set_errno_from_matherr   10042ba7 f   libucrt:fpexcept.obj
 0001:00041bd6       __umatherr                 10042bd6 f   libucrt:fpexcept.obj
 0001:00041c76       __decomp                   10042c76 f   libucrt:util.obj
 0001:00041d48       __set_exp                  10042d48 f   libucrt:util.obj
 0001:00041d75       __sptype                   10042d75 f   libucrt:util.obj
 0001:00041dd3       __clrfp                    10042dd3 f   libucrt:fpctrl.obj
 0001:00041de4       __ctrlfp                   10042de4 f   libucrt:fpctrl.obj
 0001:00041e0e       __set_statfp               10042e0e f   libucrt:fpctrl.obj
 0001:00041e67       __statfp                   10042e67 f   libucrt:fpctrl.obj
 0001:00041e77       __copysign                 10042e77 f   libucrt:ieeemisc.obj
 0001:00041e9a       __fpclass                  10042e9a f   libucrt:ieeemisc.obj
 0001:00041f3e       __realloc_base             10042f3e f   libucrt:realloc_base.obj
 0001:00041fa7       __isctype_l                10042fa7 f   libucrt:isctype.obj
 0001:00042140       ___acrt_get_sigabrt_handler 10043140 f   libucrt:signal.obj
 0001:00042167       ___acrt_initialize_signal_handlers 10043167 f   libucrt:signal.obj
 0001:00042185       ___fpecode                 10043185 f   libucrt:signal.obj
 0001:0004218e       _raise                     1004318e f   libucrt:signal.obj
 0001:00042389       ___acrt_MultiByteToWideChar 10043389 f   libucrt:multibytetowidechar.obj
 0001:00042405       ___acrt_WideCharToMultiByte 10043405 f   libucrt:widechartomultibyte.obj
 0001:000424b2       ___ascii_wcsicmp           100434b2 f   libucrt:wcsicmp.obj
 0001:000424ef       __towlower_internal        100434ef f i libucrt:wcsicmp.obj
 0001:0004252e       __wcsicmp                  1004352e f   libucrt:wcsicmp.obj
 0001:00042577       __wcsicmp_l                10043577 f   libucrt:wcsicmp.obj
 0001:0004262f       ___acrt_initialize_timeset 1004362f f   libucrt:timeset.obj
 0001:0004265a       ___acrt_get_process_end_policy 1004365a f   libucrt:win_policies.obj
 0001:00042c69       ?__acrt_get_utf8_acp_compatibility_codepage@@YAIXZ 10043c69 f i libucrt:argv_wildcards.obj
 0001:00042ca8       ?allocate@?$__crt_win32_buffer@DU__crt_win32_buffer_internal_dynamic_resizing@@@@QAEHI@Z 10043ca8 f i libucrt:argv_wildcards.obj
 0001:00042d6b       ___acrt_expand_narrow_argv_wildcards 10043d6b f   libucrt:argv_wildcards.obj
 0001:00042e3d       ___acrt_GetModuleFileNameA 10043e3d f   libucrt:getmodulefilenamea.obj
 0001:000433fc       ___acrt_initialize_multibyte 100443fc f   libucrt:mbctype.obj
 0001:00043444       ___acrt_update_thread_multibyte_data 10044444 f   libucrt:mbctype.obj
 0001:00043457       __setmbcp_nolock           10044457 f   libucrt:mbctype.obj
 0001:000436a1       __ismbblead                100446a1 f   libucrt:ismbbyte.obj
 0001:000436b9       ___acrt_initialize_command_line 100446b9 f   libucrt:argv_data.obj
 0001:00043709       ___dcrt_get_narrow_environment_from_os 10044709 f   libucrt:get_environment_from_os.obj
 0001:0004378d       __recalloc_base            1004478d f   libucrt:recalloc.obj
 0001:000437fa       ___acrt_initialize_heap    100447fa f   libucrt:heap_handle.obj
 0001:0004380b       ___acrt_uninitialize_heap  1004480b f   libucrt:heap_handle.obj
 0001:00043815       ___acrt_execute_initializers 10044815 f   libucrt:shared_initialization.obj
 0001:0004387d       ___acrt_execute_uninitializers 1004487d f   libucrt:shared_initialization.obj
 0001:000438ae       ___acrt_has_user_matherr   100448ae f   libucrt:matherr.obj
 0001:000438c6       ___acrt_initialize_user_matherr 100448c6 f   libucrt:matherr.obj
 0001:000438d5       ___acrt_invoke_user_matherr 100448d5 f   libucrt:matherr.obj
 0001:00043907       ___acrt_add_locale_ref     10044907 f   libucrt:locale_refcounting.obj
 0001:00043984       ___acrt_free_locale        10044984 f   libucrt:locale_refcounting.obj
 0001:00043acc       ___acrt_locale_add_lc_time_reference 10044acc f   libucrt:locale_refcounting.obj
 0001:00043af5       ___acrt_locale_free_lc_time_if_unreferenced 10044af5 f   libucrt:locale_refcounting.obj
 0001:00043b26       ___acrt_locale_release_lc_time_reference 10044b26 f   libucrt:locale_refcounting.obj
 0001:00043b4f       ___acrt_release_locale_ref 10044b4f f   libucrt:locale_refcounting.obj
 0001:00043bd0       ___acrt_update_thread_locale_data 10044bd0 f   libucrt:locale_refcounting.obj
 0001:00043c51       __updatetlocinfoEx_nolock  10044c51 f   libucrt:locale_refcounting.obj
 0001:00043ca1       _fegetexceptflag           10044ca1 f   libucrt:fegetexceptflag.obj
 0001:00043cd2       _fesetexceptflag           10044cd2 f   libucrt:fesetexceptflag.obj
 0001:00044038       ___acrt_fenv_get_control   10045038 f   libucrt:_fenvutils.obj
 0001:000440b8       ___acrt_fenv_get_fp_status_word_from_exception_mask 100450b8 f   libucrt:_fenvutils.obj
 0001:000440d2       ___acrt_fenv_get_status    100450d2 f   libucrt:_fenvutils.obj
 0001:0004418a       ___acrt_fenv_set_control   1004518a f   libucrt:_fenvutils.obj
 0001:000441f2       ___acrt_fenv_set_status    100451f2 f   libucrt:_fenvutils.obj
 0001:000442e9       __query_new_mode           100452e9 f   libucrt:new_mode.obj
 0001:00044340       ___acrt_DownlevelLCIDToLocaleName 10045340 f   libucrt:lcidtoname_downlevel.obj
 0001:000443ea       ___acrt_DownlevelLocaleNameToLCID 100453ea f   libucrt:lcidtoname_downlevel.obj
 0001:00044416       __fclose_nolock            10045416 f   libucrt:fclose.obj
 0001:0004448d       _fclose                    1004548d f   libucrt:fclose.obj
 0001:000445b3       __commit                   100455b3 f   libucrt:commit.obj
 0001:000446ac       __lseeki64_nolock          100456ac f   libucrt:lseek.obj
 0001:000446f3       ?__mbrtowc_utf8@__crt_mbstring@@YAIPA_WPBDIPAU_Mbstatet@@@Z 100456f3 f   libucrt:mbrtowc.obj
 0001:00044733       ?__mbsrtowcs_utf8@__crt_mbstring@@YAIPA_WPAPBDIPAU_Mbstatet@@@Z 10045733 f   libucrt:mbrtowc.obj
 0001:0004482e       __putwch_nolock            1004582e f   libucrt:putwch.obj
 0001:00044860       ?__c32rtomb_utf8@__crt_mbstring@@YAIPAD_UPAU_Mbstatet@@@Z 10045860 f   libucrt:c32rtomb.obj
 0001:0004490b       ?return_illegal_sequence@__crt_mbstring@@YAIPAU_Mbstatet@@@Z 1004590b f i libucrt:c32rtomb.obj
 0001:0004492a       _c32rtomb                  1004592a f   libucrt:c32rtomb.obj
 0001:00044935       ___acrt_fp_strflt_to_string 10045935 f   libucrt:_fptostr.obj
 0001:000449f5       ___acrt_fltout             100459f5 f   libucrt:cfout.obj
 0001:00045d3f       ___acrt_locale_free_monetary 10046d3f f   libucrt:initmon.obj
 0001:00045e3d       ___acrt_locale_initialize_monetary 10046e3d f   libucrt:initmon.obj
 0001:000461f4       ___acrt_locale_free_numeric 100471f4 f   libucrt:initnum.obj
 0001:0004625d       ___acrt_locale_initialize_numeric 1004725d f   libucrt:initnum.obj
 0001:00046720       ___acrt_locale_free_time   10047720 f   libucrt:inittime.obj
 0001:00046804       ___acrt_locale_initialize_time 10047804 f   libucrt:inittime.obj
 0001:0004687f       _wcscat_s                  1004787f f   libucrt:wcscat_s.obj
 0001:000469db       _wcsncat_s                 100479db f   libucrt:wcsncat_s.obj
 0001:00046ab1       _wcsncpy_s                 10047ab1 f   libucrt:wcsncpy_s.obj
 0001:000471b8       ___acrt_get_qualified_locale 100481b8 f   libucrt:get_qualified_locale.obj
 0001:00047b19       ___acrt_get_qualified_locale_downlevel 10048b19 f   libucrt:getqloc_downlevel.obj
 0001:00047d0e       __dnorm                    10048d0e f   libucrt:_norm.obj
 0001:00047ea3       __frnd                     10048ea3 f   libucrt:frnd.obj
 0001:00047eb7       ___acrt_GetStringTypeW     10048eb7 f   libucrt:getstringtypew.obj
 0001:00047ed0       __87except                 10048ed0 f   libucrt:87except.obj
 0001:00047fda       ?__wcsrtombs_utf8@__crt_mbstring@@YAIPADPAPB_WIPAU_Mbstatet@@@Z 10048fda f   libucrt:wcrtomb.obj
 0001:000480d8       __towlower_l               100490d8 f   libucrt:towlower.obj
 0001:000481c0       _qsort                     100491c0 f   libucrt:qsort.obj
 0001:00048610       _strpbrk                   10049610 f   libucrt:strpbrk.obj
 0001:00048650       __mbsdec                   10049650 f   libucrt:mbsdec.obj
 0001:00048667       __mbsdec_l                 10049667 f   libucrt:mbsdec.obj
 0001:00048703       __msize_base               10049703 f   libucrt:msize.obj
 0001:00048736       _fetestexcept              10049736 f   libucrt:fetestexcept.obj
 0001:00048756       ___ascii_wcsnicmp          10049756 f   libucrt:wcsnicmp.obj
 0001:000487a5       __wcsnicmp                 100497a5 f   libucrt:wcsnicmp.obj
 0001:000487f1       __wcsnicmp_l               100497f1 f   libucrt:wcsnicmp.obj
 0001:00048950       __close                    10049950 f   libucrt:close.obj
 0001:000489dd       __close_nolock             100499dd f   libucrt:close.obj
 0001:00048a79       ?__acrt_stdio_free_stream@@YAXV__crt_stdio_stream@@@Z 10049a79 f   libucrt:stream.obj
 0001:00048ab4       ?__mbrtoc32_utf8@__crt_mbstring@@YAIPA_UPBDIPAU_Mbstatet@@@Z 10049ab4 f   libucrt:mbrtoc32.obj
 0001:00048c7a       ___dcrt_lowio_ensure_console_output_initialized 10049c7a f   libucrt:initcon.obj
 0001:00048c99       ___dcrt_terminate_console_output 10049c99 f   libucrt:initcon.obj
 0001:00048cb0       ___dcrt_write_console      10049cb0 f   libucrt:initcon.obj
 0001:00048d05       _fegetenv                  10049d05 f   libucrt:fegetenv.obj
 0001:00048d22       _fesetenv                  10049d22 f   libucrt:fesetenv.obj
 0001:00048d6d       _feholdexcept              10049d6d f   libucrt:feholdexcept.obj
 0001:00048edf       __itow_s                   10049edf f   libucrt:xtoa.obj
 0001:00048f12       ?__c16rtomb_utf8@__crt_mbstring@@YAIPAD_SPAU_Mbstatet@@@Z 10049f12 f   libucrt:c16rtomb.obj
 0001:00048fac       ___acrt_LCMapStringW       10049fac f   libucrt:lcmapstringw.obj
 0001:00048fed       __clearfp                  10049fed f   libucrt:ieee87.obj
 0001:000490d0       ___ascii_strnicmp          1004a0d0 f   libucrt:_strnicm.obj
 0001:00049131       _IsProcessorFeaturePresent@4 1004a131 f   kernel32:KERNEL32.dll
 0001:00049140       __FindPESection            1004a140 f   LIBCMT:pesect.obj
 0001:00049190       __IsNonwritableInCurrentImage 1004a190 f   LIBCMT:pesect.obj
 0001:00049250       __ValidateImageBase        1004a250 f   LIBCMT:pesect.obj
 0001:00049290       __alldvrm                  1004a290 f   LIBCMT:lldvrm.obj
 0001:00049370       _strrchr                   1004a370 f   libvcruntime:strrchr.obj
 0001:000494b0       _strchr                    1004a4b0 f   libvcruntime:strchr.obj
 0001:0004951e       ___from_strstr_to_strchr   1004a51e     libvcruntime:strchr.obj
 0001:000495db       __filter_x86_sse2_floating_point_exception 1004a5db f   LIBCMT:x86_exception_filter.obj
 0001:000495db       __filter_x86_sse2_floating_point_exception_default 1004a5db f   LIBCMT:x86_exception_filter.obj
 0001:0004aa18       __TI3?AVbad_array_new_length@std@@ 1004ba18     format.obj
 0001:0004aa28       __CTA3?AVbad_array_new_length@std@@ 1004ba28     format.obj
 0001:0004aa38       __CT??_R0?AVbad_array_new_length@std@@@8??0bad_array_new_length@std@@QAE@ABV01@@Z12 1004ba38     format.obj
 0001:0004aa54       __CT??_R0?AVbad_alloc@std@@@8??0bad_alloc@std@@QAE@ABV01@@Z12 1004ba54     format.obj
 0001:0004aa70       __CT??_R0?AVexception@std@@@8??0exception@std@@QAE@ABV01@@Z12 1004ba70     format.obj
 0001:0004aa8c       __CT??_R0?AVruntime_error@std@@@8??0runtime_error@std@@QAE@ABV01@@Z12 1004ba8c     format.obj
 0001:0004aaa8       __TI2?AVruntime_error@std@@ 1004baa8     format.obj
 0001:0004aab8       __CTA2?AVruntime_error@std@@ 1004bab8     format.obj
 0001:0004aac4       __TI3?AVformat_error@v7@fmt@@ 1004bac4     format.obj
 0001:0004aad4       __CTA3?AVformat_error@v7@fmt@@ 1004bad4     format.obj
 0001:0004aae4       __CT??_R0?AVformat_error@v7@fmt@@@8??0format_error@v7@fmt@@QAE@ABV012@@Z12 1004bae4     format.obj
 0001:0004bcc8       __TI2?AVbad_alloc@std@@    1004ccc8     libcpmt:xthrow.obj
 0001:0004bcd8       __CTA2?AVbad_alloc@std@@   1004ccd8     libcpmt:xthrow.obj
 0001:0004bce4       __CT??_R0?AVlogic_error@std@@@8??0logic_error@std@@QAE@ABV01@@Z12 1004cce4     libcpmt:xthrow.obj
 0001:0004bd00       __TI3?AVlength_error@std@@ 1004cd00     libcpmt:xthrow.obj
 0001:0004bd10       __CTA3?AVlength_error@std@@ 1004cd10     libcpmt:xthrow.obj
 0001:0004bd20       __CT??_R0?AVlength_error@std@@@8??0length_error@std@@QAE@ABV01@@Z12 1004cd20     libcpmt:xthrow.obj
 0001:0004bd3c       __TI3?AVout_of_range@std@@ 1004cd3c     libcpmt:xthrow.obj
 0001:0004bd4c       __CTA3?AVout_of_range@std@@ 1004cd4c     libcpmt:xthrow.obj
 0001:0004bd5c       __CT??_R0?AVout_of_range@std@@@8??0out_of_range@std@@QAE@ABV01@@Z12 1004cd5c     libcpmt:xthrow.obj
 0001:0004bd78       __TI2?AVbad_function_call@std@@ 1004cd78     libcpmt:xthrow.obj
 0001:0004bd88       __CTA2?AVbad_function_call@std@@ 1004cd88     libcpmt:xthrow.obj
 0001:0004bd94       __CT??_R0?AVbad_function_call@std@@@8??0bad_function_call@std@@QAE@ABV01@@Z12 1004cd94     libcpmt:xthrow.obj
 0001:0004bfac       __TI2?AVbad_exception@std@@ 1004cfac     libvcruntime:frame.obj
 0001:0004bfbc       __CTA2?AVbad_exception@std@@ 1004cfbc     libvcruntime:frame.obj
 0001:0004bfc8       __CT??_R0?AVbad_exception@std@@@8??0bad_exception@std@@QAE@ABV01@@Z12 1004cfc8     libvcruntime:frame.obj
 0002:00000000       ?instantiate_format_float@v7@fmt@@3P6AHNHUfloat_specs@detail@12@AAV?$buffer@D@412@@ZA 1004e000     format.obj
 0002:00000008       ?dragonbox_pow10_significands_128@?$basic_data@X@detail@v7@fmt@@2QBUuint128_wrapper@234@B 1004e008     format.obj
 0002:000001dc       ?pNtQueryInformationProcess@@3P6GJPAXW4_PROCESSINFOCLASS@@0KPAK@ZA 1004e1dc     Proclist.obj
 0002:000001e0       ?pNtQueryInformationThread@@3P6GJPAXK0KPAK@ZA 1004e1e0     Proclist.obj
 0002:000001e4       ?pNtQueryObject@@3P6GJPAXK0K0@ZA 1004e1e4     Proclist.obj
 0002:000001e8       ?pNtQuerySystemInformation@@3P6GJKPAXKPAK@ZA 1004e1e8     Proclist.obj
 0002:000001ec       ?pNtQueryInformationFile@@3P6GJPAX00KK@ZA 1004e1ec     Proclist.obj
 0002:000001f0       ?pNtWow64QueryInformationProcess64@@3P6GJPAXW4_PROCESSINFOCLASS@@0KPAK@ZA 1004e1f0     Proclist.obj
 0002:000001f4       ?pNtWow64ReadVirtualMemory64@@3P6GJPAX_K01PA_K@ZA 1004e1f4     Proclist.obj
 0002:000001f8       ?pIsValidSid@@3P6GHPAX@ZA  1004e1f8     Proclist.obj
 0002:000001fc       ?pGetSidIdentifierAuthority@@3P6GPAU_SID_IDENTIFIER_AUTHORITY@@PAX@ZA 1004e1fc     Proclist.obj
 0002:00000200       ?pGetSidSubAuthorityCount@@3P6GPAEPAX@ZA 1004e200     Proclist.obj
 0002:00000204       ?pGetSidSubAuthority@@3P6GPAKPAXK@ZA 1004e204     Proclist.obj
 0002:00000208       ?pIsWow64Process@@3P6GHPAXPAH@ZA 1004e208     Proclist.obj
 0002:0000020c       ?pGetGuiResources@@3P6GKPAXK@ZA 1004e20c     Proclist.obj
 0002:00000210       ?pCoSetProxyBlanket@@3P6GJPAUIUnknown@@KKPA_WKKPAXK@ZA 1004e210     Proclist.obj
 0002:00000214       ?pEnumProcessModulesEx@@3P6GHPAXPAPAUHINSTANCE__@@KPAKK@ZA 1004e214     Proclist.obj
 0002:00000228       ___scrt_native_dllmain_reason 1004e228     LIBCMT:utility.obj
 0002:0000022c       ___do_unsigned_char_lconv_initialization 1004e22c     LIBCMT:lconv_unsigned_char.obj
 0002:00000230       __fltused                  1004e230     LIBCMT:fltused.obj
 0002:00000240       ___security_cookie_complement 1004e240     LIBCMT:gs_cookie.obj
 0002:00000244       ___security_cookie         1004e244     LIBCMT:gs_cookie.obj
 0002:00000250       ___isa_enabled             1004e250     LIBCMT:cpu_disp.obj
 0002:00000270       __NLG_Destination          1004e270     libvcruntime:exsup.obj
 0002:00000288       __iob                      1004e288     libucrt:_file.obj
 0002:00000330       ___acrt_lconv_c            1004e330     libucrt:localeconv.obj
 0002:00000380       ___acrt_lconv              1004e380     libucrt:localeconv.obj
 0002:00000384       ___acrt_lconv_static_decimal 1004e384     libucrt:localeconv.obj
 0002:00000388       ___acrt_lconv_static_W_decimal 1004e388     libucrt:localeconv.obj
 0002:00000390       __pctype                   1004e390     libucrt:ctype.obj
 0002:00000394       __pwctype                  1004e394     libucrt:ctype.obj
 0002:000003a0       ___abort_behavior          1004e3a0     libucrt:abort.obj
 0002:000003b8       ___acrt_initial_locale_data 1004e3b8     libucrt:nlsdata.obj
 0002:00000470       ___acrt_initial_locale_pointers 1004e470     libucrt:nlsdata.obj
 0002:00000478       ___acrt_wide_c_locale_string 1004e478     libucrt:nlsdata.obj
 0002:0000047c       ___mb_cur_max              1004e47c     libucrt:nlsdata.obj
 0002:00000490       ___globallocalestatus      1004e490     libucrt:glstatus.obj
 0002:00000520       ___acrt_initial_multibyte_data 1004e520     libucrt:mbctype.obj
 0002:00000a40       __lookuptrailbytes         1004ea40     libucrt:read.obj
 0002:00000b50       ??_R0?AVbad_array_new_length@std@@@8 1004eb50     format.obj
 0002:00000b78       ??_R0?AVbad_alloc@std@@@8  1004eb78     format.obj
 0002:00000b94       ??_R0?AVexception@std@@@8  1004eb94     format.obj
 0002:00000bb0       ??_R0?AVruntime_error@std@@@8 1004ebb0     format.obj
 0002:00000bd0       ??_R0?AVformat_error@v7@fmt@@@8 1004ebd0     format.obj
 0002:00000bf4       ??_R0?AV<lambda_7407d5cd5d4425cb98b7ee1223d84907>@@@8 1004ebf4     Plist.obj
 0002:00000c2c       ??_R0?AV<lambda_ca95615ebb3c7b16132ff39b7c245039>@@@8 1004ec2c     Plist.obj
 0002:00000d0c       ??_R0?AVlogic_error@std@@@8 1004ed0c     libcpmt:xthrow.obj
 0002:00000d2c       ??_R0?AVlength_error@std@@@8 1004ed2c     libcpmt:xthrow.obj
 0002:00000d4c       ??_R0?AVout_of_range@std@@@8 1004ed4c     libcpmt:xthrow.obj
 0002:00000d6c       ??_R0?AVbad_function_call@std@@@8 1004ed6c     libcpmt:xthrow.obj
 0002:00000d90       ??_R0?AV_Facet_base@std@@@8 1004ed90     libcpmt:locale0.obj
 0002:00000db0       ??_R0?AV_Locimp@locale@std@@@8 1004edb0     libcpmt:locale0.obj
 0002:00000dd4       ??_R0?AVfacet@locale@std@@@8 1004edd4     libcpmt:locale0.obj
 0002:00000df4       ??_R0?AU_Crt_new_delete@std@@@8 1004edf4     libcpmt:locale0.obj
 0002:00000e18       ??_R0?AV?$numpunct@_W@std@@@8 1004ee18     libcpmt:wlocale.obj
 0002:00000e38       ??_R0?AVtype_info@@@8      1004ee38     LIBCMT:std_type_info_static.obj
 0002:00000e50       ??_R0?AVbad_exception@std@@@8 1004ee50     libvcruntime:frame.obj
 0002:00000e70       ?m_PanelModesDataLocal@Plist@@0V?$vector@Umode@@V?$allocator@Umode@@@std@@@std@@A 1004ee70     fileio.obj
 0002:00000e7c       ?m_PanelModesDataRemote@Plist@@0V?$vector@Umode@@V?$allocator@Umode@@@std@@@std@@A 1004ee7c     fileio.obj
 0002:00000e88       ?_OptionsStorage@?1??__local_stdio_printf_options@@9@4_KA 1004ee88     format.obj
 0002:00000e90       ?id@?$numpunct@_W@std@@2V0locale@2@A 1004ee90     format.obj
 0002:00000e94       ?id@?$numpunct@D@std@@2V0locale@2@A 1004ee94     format.obj
 0002:00000e98       ?_Psave@?$_Facetptr@V?$numpunct@_W@std@@@std@@2PBVfacet@locale@2@B 1004ee98     format.obj
 0002:00000eb8       ?specs@?1???$write@_WV?$buffer_appender@_W@detail@v7@fmt@@M$0A@@detail@v7@fmt@@YA?AV?$buffer_appender@_W@123@V4123@M@Z@4U?$basic_format_specs@_W@23@B 1004eeb8     handles.obj
 0002:00000ed4       ??_B?1???$write@_WV?$buffer_appender@_W@detail@v7@fmt@@M$0A@@detail@v7@fmt@@YA?AV?$buffer_appender@_W@012@V3012@M@Z@51 1004eed4     handles.obj
 0002:00000ed8       ?specs@?1???$write@_WV?$buffer_appender@_W@detail@v7@fmt@@N$0A@@detail@v7@fmt@@YA?AV?$buffer_appender@_W@123@V4123@N@Z@4U?$basic_format_specs@_W@23@B 1004eed8     handles.obj
 0002:00000ef4       ??_B?1???$write@_WV?$buffer_appender@_W@detail@v7@fmt@@N$0A@@detail@v7@fmt@@YA?AV?$buffer_appender@_W@012@V3012@N@Z@51 1004eef4     handles.obj
 0002:00000ef8       ?specs@?1???$write@_WV?$buffer_appender@_W@detail@v7@fmt@@O$0A@@detail@v7@fmt@@YA?AV?$buffer_appender@_W@123@V4123@O@Z@4U?$basic_format_specs@_W@23@B 1004eef8     handles.obj
 0002:00000f14       ??_B?1???$write@_WV?$buffer_appender@_W@detail@v7@fmt@@O$0A@@detail@v7@fmt@@YA?AV?$buffer_appender@_W@012@V3012@O@Z@51 1004ef14     handles.obj
 0002:00001b38       ?PsInfo@@3UPluginStartupInfo@@A 1004fb38     Proclist.obj
 0002:00001bc4       ?Opt@@3Uoptions@@A         1004fbc4     Proclist.obj
 0002:00001be8       ?FSF@@3UFarStandardFunctions@@A 1004fbe8     Proclist.obj
 0002:00001cbc       ?Ptr@?1???R<lambda_1af49d8e19f959e583a46d83b89ae789>@@QBE@XZ@4PAXA 1004fcbc     vc_crt_fix_impl.obj
 0002:00001e38       ?_Id_cnt@id@locale@std@@0HA 1004fe38     libcpmt:locale0.obj
 0002:00001e3c       ?_Clocptr@_Locimp@locale@std@@0PAV123@A 1004fe3c     libcpmt:locale0.obj
 0002:00001e40       ?id@?$ctype@G@std@@2V0locale@2@A 1004fe40     libcpmt:locale0.obj
 0002:00001e44       ?id@?$codecvt@_WDU_Mbstatet@@@std@@2V0locale@2@A 1004fe44     libcpmt:locale0.obj
 0002:00001e48       ?id@?$codecvt@GDU_Mbstatet@@@std@@2V0locale@2@A 1004fe48     libcpmt:locale0.obj
 0002:00001e4c       ?id@?$ctype@_W@std@@2V0locale@2@A 1004fe4c     libcpmt:locale0.obj
 0002:00001e50       ?id@?$ctype@D@std@@2V0locale@2@A 1004fe50     libcpmt:locale0.obj
 0002:00001e6c       ?id@?$num_get@DV?$istreambuf_iterator@DU?$char_traits@D@std@@@std@@@std@@2V0locale@2@A 1004fe6c     libcpmt:locale.obj
 0002:00001e70       ?id@?$num_put@DV?$ostreambuf_iterator@DU?$char_traits@D@std@@@std@@@std@@2V0locale@2@A 1004fe70     libcpmt:locale.obj
 0002:00001e74       ?id@?$codecvt@DDU_Mbstatet@@@std@@2V0locale@2@A 1004fe74     libcpmt:locale.obj
 0002:00001e78       ?_Ptr_cin@std@@3PAV?$basic_istream@DU?$char_traits@D@std@@@1@A 1004fe78     libcpmt:iosptrs.obj
 0002:00001e7c       ?_Ptr_cout@std@@3PAV?$basic_ostream@DU?$char_traits@D@std@@@1@A 1004fe7c     libcpmt:iosptrs.obj
 0002:00001e80       ?_Ptr_cerr@std@@3PAV?$basic_ostream@DU?$char_traits@D@std@@@1@A 1004fe80     libcpmt:iosptrs.obj
 0002:00001e84       ?_Ptr_clog@std@@3PAV?$basic_ostream@DU?$char_traits@D@std@@@1@A 1004fe84     libcpmt:iosptrs.obj
 0002:00001e88       ?_Ptr_wcin@std@@3PAV?$basic_istream@_WU?$char_traits@_W@std@@@1@A 1004fe88     libcpmt:iosptrs.obj
 0002:00001e8c       ?_Ptr_wcout@std@@3PAV?$basic_ostream@_WU?$char_traits@_W@std@@@1@A 1004fe8c     libcpmt:iosptrs.obj
 0002:00001e90       ?_Ptr_wcerr@std@@3PAV?$basic_ostream@_WU?$char_traits@_W@std@@@1@A 1004fe90     libcpmt:iosptrs.obj
 0002:00001e94       ?_Ptr_wclog@std@@3PAV?$basic_ostream@_WU?$char_traits@_W@std@@@1@A 1004fe94     libcpmt:iosptrs.obj
 0002:00001ec8       ___KERNEL32Functions       1004fec8     libcpmt:winapisupp.obj
 0002:00001f68       ?id@?$time_put@_WV?$ostreambuf_iterator@_WU?$char_traits@_W@std@@@std@@@std@@2V0locale@2@A 1004ff68     libcpmt:wlocale.obj
 0002:00001f6c       ?id@?$num_get@_WV?$istreambuf_iterator@_WU?$char_traits@_W@std@@@std@@@std@@2V0locale@2@A 1004ff6c     libcpmt:wlocale.obj
 0002:00001f70       ?id@?$num_put@_WV?$ostreambuf_iterator@_WU?$char_traits@_W@std@@@std@@@std@@2V0locale@2@A 1004ff70     libcpmt:wlocale.obj
 0002:00001f74       ?id@?$collate@_W@std@@2V0locale@2@A 1004ff74     libcpmt:wlocale.obj
 0002:00001f78       ?id@?$messages@_W@std@@2V0locale@2@A 1004ff78     libcpmt:wlocale.obj
 0002:00001f7c       ?id@?$money_get@_WV?$istreambuf_iterator@_WU?$char_traits@_W@std@@@std@@@std@@2V0locale@2@A 1004ff7c     libcpmt:wlocale.obj
 0002:00001f80       ?id@?$money_put@_WV?$ostreambuf_iterator@_WU?$char_traits@_W@std@@@std@@@std@@2V0locale@2@A 1004ff80     libcpmt:wlocale.obj
 0002:00001f84       ?id@?$moneypunct@_W$0A@@std@@2V0locale@2@A 1004ff84     libcpmt:wlocale.obj
 0002:00001f88       ?id@?$moneypunct@_W$00@std@@2V0locale@2@A 1004ff88     libcpmt:wlocale.obj
 0002:00001f8c       ?id@?$time_get@_WV?$istreambuf_iterator@_WU?$char_traits@_W@std@@@std@@@std@@2V0locale@2@A 1004ff8c     libcpmt:wlocale.obj
 0002:00001f90       ?id@?$num_get@GV?$istreambuf_iterator@GU?$char_traits@G@std@@@std@@@std@@2V0locale@2@A 1004ff90     libcpmt:wlocale.obj
 0002:00001f94       ?id@?$num_put@GV?$ostreambuf_iterator@GU?$char_traits@G@std@@@std@@@std@@2V0locale@2@A 1004ff94     libcpmt:wlocale.obj
 0002:00001f98       ?id@?$numpunct@G@std@@2V0locale@2@A 1004ff98     libcpmt:wlocale.obj
 0002:00001f9c       ?id@?$collate@G@std@@2V0locale@2@A 1004ff9c     libcpmt:wlocale.obj
 0002:00001fa0       ?id@?$messages@G@std@@2V0locale@2@A 1004ffa0     libcpmt:wlocale.obj
 0002:00001fa4       ?id@?$money_get@GV?$istreambuf_iterator@GU?$char_traits@G@std@@@std@@@std@@2V0locale@2@A 1004ffa4     libcpmt:wlocale.obj
 0002:00001fa8       ?id@?$money_put@GV?$ostreambuf_iterator@GU?$char_traits@G@std@@@std@@@std@@2V0locale@2@A 1004ffa8     libcpmt:wlocale.obj
 0002:00001fac       ?id@?$moneypunct@G$0A@@std@@2V0locale@2@A 1004ffac     libcpmt:wlocale.obj
 0002:00001fb0       ?id@?$moneypunct@G$00@std@@2V0locale@2@A 1004ffb0     libcpmt:wlocale.obj
 0002:00001fb4       ?id@?$time_get@GV?$istreambuf_iterator@GU?$char_traits@G@std@@@std@@@std@@2V0locale@2@A 1004ffb4     libcpmt:wlocale.obj
 0002:00001fb8       ?id@?$time_put@GV?$ostreambuf_iterator@GU?$char_traits@G@std@@@std@@@std@@2V0locale@2@A 1004ffb8     libcpmt:wlocale.obj
 0002:00001fbc       ?id@?$collate@D@std@@2V0locale@2@A 1004ffbc     libcpmt:xlocale.obj
 0002:00001fc0       ?id@?$messages@D@std@@2V0locale@2@A 1004ffc0     libcpmt:xlocale.obj
 0002:00001fc4       ?id@?$money_get@DV?$istreambuf_iterator@DU?$char_traits@D@std@@@std@@@std@@2V0locale@2@A 1004ffc4     libcpmt:xlocale.obj
 0002:00001fc8       ?id@?$money_put@DV?$ostreambuf_iterator@DU?$char_traits@D@std@@@std@@@std@@2V0locale@2@A 1004ffc8     libcpmt:xlocale.obj
 0002:00001fcc       ?id@?$moneypunct@D$0A@@std@@2V0locale@2@A 1004ffcc     libcpmt:xlocale.obj
 0002:00001fd0       ?id@?$moneypunct@D$00@std@@2V0locale@2@A 1004ffd0     libcpmt:xlocale.obj
 0002:00001fd4       ?id@?$time_get@DV?$istreambuf_iterator@DU?$char_traits@D@std@@@std@@@std@@2V0locale@2@A 1004ffd4     libcpmt:xlocale.obj
 0002:00001fd8       ?id@?$time_put@DV?$ostreambuf_iterator@DU?$char_traits@D@std@@@std@@@std@@2V0locale@2@A 1004ffd8     libcpmt:xlocale.obj
 0002:00001fdc       ___scrt_current_native_startup_state 1004ffdc     LIBCMT:utility.obj
 0002:00001fe0       ___scrt_native_startup_lock 1004ffe0     LIBCMT:utility.obj
 0002:00002004       ___isa_available           10050004     LIBCMT:cpu_disp.obj
 0002:00002008       ___favor                   10050008     LIBCMT:cpu_disp.obj
 0002:0000200c       ___scrt_debugger_hook_flag 1005000c     LIBCMT:utility_desktop.obj
 0002:00002010       ?__type_info_root_node@@3U__type_info_node@@A 10050010     LIBCMT:tncleanup.obj
 0002:00002018       ?_OptionsStorage@?1??__local_stdio_scanf_options@@9@4_KA 10050018     LIBCMT:default_local_stdio_options.obj
 0002:0000233c       ?__WinRTOutOfMemoryExceptionCallback@@3P6GPAXXZA 1005033c     libvcruntime:ehhelpers.obj
 0002:00002340       ___pPurecall               10050340     libvcruntime:purevirt_data.obj
 0002:00002388       ?pArgList@UnDecorator@@0PAVReplicator@@A 10050388     libvcruntime:undname.obj
 0002:0000238c       ?pZNameList@UnDecorator@@0PAVReplicator@@A 1005038c     libvcruntime:undname.obj
 0002:00002390       ?pTemplateArgList@UnDecorator@@0PAVReplicator@@A 10050390     libvcruntime:undname.obj
 0002:00002394       ?gName@UnDecorator@@0PBDB  10050394     libvcruntime:undname.obj
 0002:00002398       ?name@UnDecorator@@0PBDB   10050398     libvcruntime:undname.obj
 0002:0000239c       ?disableFlags@UnDecorator@@0KA 1005039c     libvcruntime:undname.obj
 0002:000023a0       ?fExplicitTemplateParams@UnDecorator@@0_NA 100503a0     libvcruntime:undname.obj
 0002:000023a1       ?fGetTemplateArgumentList@UnDecorator@@0_NA 100503a1     libvcruntime:undname.obj
 0002:000023a4       ?m_pGetParameter@UnDecorator@@0P6APADJ@ZA 100503a4     libvcruntime:undname.obj
 0002:000023a8       ?m_CHPENameOffset@UnDecorator@@0KA 100503a8     libvcruntime:undname.obj
 0002:000023ac       ?m_recursionLevel@UnDecorator@@0KA 100503ac     libvcruntime:undname.obj
 0002:000023e8       __nstream                  100503e8     libucrt:_file.obj
 0002:000023ec       ___piob                    100503ec     libucrt:_file.obj
 0002:000023f0       ___acrt_lconv_static_null  100503f0     libucrt:localeconv.obj
 0002:000023f4       ___acrt_lconv_static_W_null 100503f4     libucrt:localeconv.obj
 0002:00002554       ?c_exit_complete@?1???R<lambda_6e4b09c48022b2350581041d5f6b0c4c>@@QBE@XZ@4_NA 10050554     libucrt:exit.obj
 0002:00002660       __environ_table            10050660     libucrt:environment_initialization.obj
 0002:00002664       __wenviron_table           10050664     libucrt:environment_initialization.obj
 0002:00002668       ___dcrt_initial_wide_environment 10050668     libucrt:environment_initialization.obj
 0002:0000266c       ___dcrt_initial_narrow_environment 1005066c     libucrt:environment_initialization.obj
 0002:00002670       ___acrt_atexit_table       10050670     libucrt:onexit.obj
 0002:0000267c       ___acrt_at_quick_exit_table 1005067c     libucrt:onexit.obj
 0002:00002770       ___pioinfo                 10050770     libucrt:ioinit.obj
 0002:00002970       __nhandle                  10050970     libucrt:ioinit.obj
 0002:00002974       ___acrt_stdout_buffer      10050974     libucrt:_sftbuf.obj
 0002:00002978       ___acrt_stderr_buffer      10050978     libucrt:_sftbuf.obj
 0002:00002988       ___acrt_locale_changed_data 10050988     libucrt:wsetlocale.obj
 0002:0000298c       ___acrt_current_locale_data 1005098c     libucrt:nlsdata.obj
 0002:00002998       ___fastflag                10050998     libucrt:fp_flags.obj
 0002:000029ac       ?_timezone@@3V?$dual_state_global@J@__crt_state_management@@A 100509ac     libucrt:timeset.obj
 0002:000029b0       ?_daylight@@3V?$dual_state_global@H@__crt_state_management@@A 100509b0     libucrt:timeset.obj
 0002:000029b4       ?_dstbias@@3V?$dual_state_global@J@__crt_state_management@@A 100509b4     libucrt:timeset.obj
 0002:00002a74       __mbctype                  10050a74     libucrt:mbctype.obj
 0002:00002a78       __mbcasemap                10050a78     libucrt:mbctype.obj
 0002:00002a7c       ___acrt_current_multibyte_data 10050a7c     libucrt:mbctype.obj
 0002:00002a88       __pgmptr                   10050a88     libucrt:argv_data.obj
 0002:00002a8c       ___argc                    10050a8c     libucrt:argv_data.obj
 0002:00002a90       ___argv                    10050a90     libucrt:argv_data.obj
 0002:00002a94       ___wargv                   10050a94     libucrt:argv_data.obj
 0002:00002a98       __acmdln                   10050a98     libucrt:argv_data.obj
 0002:00002a9c       __wcmdln                   10050a9c     libucrt:argv_data.obj
 0002:00002aa0       ___acrt_heap               10050aa0     libucrt:heap_handle.obj
 0002:00002abc       ___dyn_tls_init_callback   10050abc     <common>
 0002:00002ac0       ___scrt_ucrt_dll_is_in_use 10050ac0     <common>
 0002:00002ac4       __pmatherr                 10050ac4     <common>
 0002:00002ac8       ___use_sse2_mathfcns       10050ac8     <common>
 0003:00000000       __imp__OpenThreadToken@16  10051000     advapi32:ADVAPI32.dll
 0003:00000004       __imp__LookupPrivilegeValueW@12 10051004     advapi32:ADVAPI32.dll
 0003:00000008       __imp__DuplicateTokenEx@24 10051008     advapi32:ADVAPI32.dll
 0003:0000000c       __imp__AdjustTokenPrivileges@24 1005100c     advapi32:ADVAPI32.dll
 0003:00000010       __imp__OpenProcessToken@12 10051010     advapi32:ADVAPI32.dll
 0003:00000014       __imp__SetThreadToken@8    10051014     advapi32:ADVAPI32.dll
 0003:00000018       __imp__RegQueryValueExW@24 10051018     advapi32:ADVAPI32.dll
 0003:0000001c       __imp__RegConnectRegistryW@12 1005101c     advapi32:ADVAPI32.dll
 0003:00000020       __imp__RegCloseKey@4       10051020     advapi32:ADVAPI32.dll
 0003:00000024       __imp__ConvertSidToStringSidW@8 10051024     advapi32:ADVAPI32.dll
 0003:00000028       __imp__GetUserNameW@8      10051028     advapi32:ADVAPI32.dll
 0003:0000002c       __imp__LookupAccountNameW@28 1005102c     advapi32:ADVAPI32.dll
 0003:00000030       \177ADVAPI32_NULL_THUNK_DATA 10051030     advapi32:ADVAPI32.dll
 0003:00000034       __imp__lstrlenW@4          10051034     kernel32:KERNEL32.dll
 0003:00000038       __imp__CreateFileW@28      10051038     kernel32:KERNEL32.dll
 0003:0000003c       __imp__SetLastError@4      1005103c     kernel32:KERNEL32.dll
 0003:00000040       __imp__SetEvent@4          10051040     kernel32:KERNEL32.dll
 0003:00000044       __imp__GetCurrentThreadId@0 10051044     kernel32:KERNEL32.dll
 0003:00000048       __imp__SetPriorityClass@8  10051048     kernel32:KERNEL32.dll
 0003:0000004c       __imp__GetPriorityClass@4  1005104c     kernel32:KERNEL32.dll
 0003:00000050       __imp__GetSystemTimeAsFileTime@4 10051050     kernel32:KERNEL32.dll
 0003:00000054       __imp__GetLocalTime@4      10051054     kernel32:KERNEL32.dll
 0003:00000058       __imp__GetTickCount@0      10051058     kernel32:KERNEL32.dll
 0003:0000005c       __imp__lstrcmpW@8          1005105c     kernel32:KERNEL32.dll
 0003:00000060       __imp__lstrcpynW@12        10051060     kernel32:KERNEL32.dll
 0003:00000064       __imp__SystemTimeToTzSpecificLocalTime@12 10051064     kernel32:KERNEL32.dll
 0003:00000068       __imp__FileTimeToSystemTime@8 10051068     kernel32:KERNEL32.dll
 0003:0000006c       __imp__ResetEvent@4        1005106c     kernel32:KERNEL32.dll
 0003:00000070       __imp__ReleaseMutex@4      10051070     kernel32:KERNEL32.dll
 0003:00000074       __imp__CreateMutexW@12     10051074     kernel32:KERNEL32.dll
 0003:00000078       __imp__CreateEventW@16     10051078     kernel32:KERNEL32.dll
 0003:0000007c       __imp__WaitForMultipleObjects@16 1005107c     kernel32:KERNEL32.dll
 0003:00000080       __imp__GetProcessTimes@20  10051080     kernel32:KERNEL32.dll
 0003:00000084       __imp__GetLastError@0      10051084     kernel32:KERNEL32.dll
 0003:00000088       __imp__TerminateProcess@8  10051088     kernel32:KERNEL32.dll
 0003:0000008c       __imp__GetCurrentThread@0  1005108c     kernel32:KERNEL32.dll
 0003:00000090       __imp__OpenProcess@12      10051090     kernel32:KERNEL32.dll
 0003:00000094       __imp__ReadProcessMemory@20 10051094     kernel32:KERNEL32.dll
 0003:00000098       __imp__FileTimeToLocalFileTime@8 10051098     kernel32:KERNEL32.dll
 0003:0000009c       __imp__GetModuleHandleW@4  1005109c     kernel32:KERNEL32.dll
 0003:000000a0       __imp__LocalFree@4         100510a0     kernel32:KERNEL32.dll
 0003:000000a4       __imp__GetDateFormatW@24   100510a4     kernel32:KERNEL32.dll
 0003:000000a8       __imp__GetTimeFormatW@24   100510a8     kernel32:KERNEL32.dll
 0003:000000ac       __imp__GetProcAddress@8    100510ac     kernel32:KERNEL32.dll
 0003:000000b0       __imp__InitializeCriticalSection@4 100510b0     kernel32:KERNEL32.dll
 0003:000000b4       __imp__EnterCriticalSection@4 100510b4     kernel32:KERNEL32.dll
 0003:000000b8       __imp__LeaveCriticalSection@4 100510b8     kernel32:KERNEL32.dll
 0003:000000bc       __imp__DeleteCriticalSection@4 100510bc     kernel32:KERNEL32.dll
 0003:000000c0       __imp__GetThreadTimes@20   100510c0     kernel32:KERNEL32.dll
 0003:000000c4       __imp__VirtualQuery@12     100510c4     kernel32:KERNEL32.dll
 0003:000000c8       __imp__GetModuleFileNameW@12 100510c8     kernel32:KERNEL32.dll
 0003:000000cc       __imp__LoadLibraryW@4      100510cc     kernel32:KERNEL32.dll
 0003:000000d0       __imp__CompareStringW@24   100510d0     kernel32:KERNEL32.dll
 0003:000000d4       __imp__LCMapStringW@24     100510d4     kernel32:KERNEL32.dll
 0003:000000d8       __imp__FlushFileBuffers@4  100510d8     kernel32:KERNEL32.dll
 0003:000000dc       __imp__GetProcessHeap@0    100510dc     kernel32:KERNEL32.dll
 0003:000000e0       __imp__FreeEnvironmentStringsW@4 100510e0     kernel32:KERNEL32.dll
 0003:000000e4       __imp__GetEnvironmentStringsW@0 100510e4     kernel32:KERNEL32.dll
 0003:000000e8       __imp__GetCommandLineW@0   100510e8     kernel32:KERNEL32.dll
 0003:000000ec       __imp__GetCommandLineA@0   100510ec     kernel32:KERNEL32.dll
 0003:000000f0       __imp__GetOEMCP@0          100510f0     kernel32:KERNEL32.dll
 0003:000000f4       __imp__GetACP@0            100510f4     kernel32:KERNEL32.dll
 0003:000000f8       __imp__IsValidCodePage@4   100510f8     kernel32:KERNEL32.dll
 0003:000000fc       __imp__FindNextFileW@8     100510fc     kernel32:KERNEL32.dll
 0003:00000100       __imp__VirtualFree@12      10051100     kernel32:KERNEL32.dll
 0003:00000104       __imp__VirtualAlloc@16     10051104     kernel32:KERNEL32.dll
 0003:00000108       __imp__TerminateThread@8   10051108     kernel32:KERNEL32.dll
 0003:0000010c       __imp__CreateThread@24     1005110c     kernel32:KERNEL32.dll
 0003:00000110       __imp__GetCurrentProcessId@0 10051110     kernel32:KERNEL32.dll
 0003:00000114       __imp__GetCurrentProcess@0 10051114     kernel32:KERNEL32.dll
 0003:00000118       __imp__WaitForSingleObject@8 10051118     kernel32:KERNEL32.dll
 0003:0000011c       __imp__DuplicateHandle@28  1005111c     kernel32:KERNEL32.dll
 0003:00000120       __imp__WriteFile@20        10051120     kernel32:KERNEL32.dll
 0003:00000124       __imp__CloseHandle@4       10051124     kernel32:KERNEL32.dll
 0003:00000128       __imp__GetFileType@4       10051128     kernel32:KERNEL32.dll
 0003:0000012c       __imp__WriteConsoleW@20    1005112c     kernel32:KERNEL32.dll
 0003:00000130       __imp__FormatMessageW@28   10051130     kernel32:KERNEL32.dll
 0003:00000134       __imp__FindFirstFileExW@24 10051134     kernel32:KERNEL32.dll
 0003:00000138       __imp__FindClose@4         10051138     kernel32:KERNEL32.dll
 0003:0000013c       __imp__HeapReAlloc@16      1005113c     kernel32:KERNEL32.dll
 0003:00000140       __imp__GetConsoleMode@8    10051140     kernel32:KERNEL32.dll
 0003:00000144       __imp__GetConsoleCP@0      10051144     kernel32:KERNEL32.dll
 0003:00000148       __imp__SetFilePointerEx@20 10051148     kernel32:KERNEL32.dll
 0003:0000014c       __imp__GetStdHandle@4      1005114c     kernel32:KERNEL32.dll
 0003:00000150       __imp__EnumSystemLocalesW@8 10051150     kernel32:KERNEL32.dll
 0003:00000154       __imp__GetUserDefaultLCID@0 10051154     kernel32:KERNEL32.dll
 0003:00000158       __imp__IsValidLocale@8     10051158     kernel32:KERNEL32.dll
 0003:0000015c       __imp__HeapFree@12         1005115c     kernel32:KERNEL32.dll
 0003:00000160       __imp__HeapAlloc@12        10051160     kernel32:KERNEL32.dll
 0003:00000164       __imp__ExitProcess@4       10051164     kernel32:KERNEL32.dll
 0003:00000168       __imp__SetStdHandle@8      10051168     kernel32:KERNEL32.dll
 0003:0000016c       __imp__LoadLibraryExW@12   1005116c     kernel32:KERNEL32.dll
 0003:00000170       __imp__WideCharToMultiByte@32 10051170     kernel32:KERNEL32.dll
 0003:00000174       __imp__MultiByteToWideChar@24 10051174     kernel32:KERNEL32.dll
 0003:00000178       __imp__InitializeCriticalSectionAndSpinCount@8 10051178     kernel32:KERNEL32.dll
 0003:0000017c       __imp__TlsAlloc@0          1005117c     kernel32:KERNEL32.dll
 0003:00000180       __imp__TlsGetValue@4       10051180     kernel32:KERNEL32.dll
 0003:00000184       __imp__TlsSetValue@8       10051184     kernel32:KERNEL32.dll
 0003:00000188       __imp__TlsFree@4           10051188     kernel32:KERNEL32.dll
 0003:0000018c       __imp__GetStringTypeW@16   1005118c     kernel32:KERNEL32.dll
 0003:00000190       __imp__GetLocaleInfoW@16   10051190     kernel32:KERNEL32.dll
 0003:00000194       __imp__GetCPInfo@8         10051194     kernel32:KERNEL32.dll
 0003:00000198       __imp__IsProcessorFeaturePresent@4 10051198     kernel32:KERNEL32.dll
 0003:0000019c       __imp__IsDebuggerPresent@0 1005119c     kernel32:KERNEL32.dll
 0003:000001a0       __imp__UnhandledExceptionFilter@4 100511a0     kernel32:KERNEL32.dll
 0003:000001a4       __imp__SetUnhandledExceptionFilter@4 100511a4     kernel32:KERNEL32.dll
 0003:000001a8       __imp__GetStartupInfoW@4   100511a8     kernel32:KERNEL32.dll
 0003:000001ac       __imp__QueryPerformanceCounter@4 100511ac     kernel32:KERNEL32.dll
 0003:000001b0       __imp__RaiseException@16   100511b0     kernel32:KERNEL32.dll
 0003:000001b4       __imp__RtlUnwind@16        100511b4     kernel32:KERNEL32.dll
 0003:000001b8       __imp__FreeLibrary@4       100511b8     kernel32:KERNEL32.dll
 0003:000001bc       __imp__HeapSize@12         100511bc     kernel32:KERNEL32.dll
 0003:000001c0       \177KERNEL32_NULL_THUNK_DATA 100511c0     kernel32:KERNEL32.dll
 0003:000001c4       __imp__WNetAddConnection2W@16 100511c4     mpr:MPR.dll
 0003:000001c8       __imp__WNetCancelConnection2W@12 100511c8     mpr:MPR.dll
 0003:000001cc       \177MPR_NULL_THUNK_DATA    100511cc     mpr:MPR.dll
 0003:000001d0       __imp__VariantClear@4      100511d0     oleaut32:OLEAUT32.dll
 0003:000001d4       __imp__SysAllocString@4    100511d4     oleaut32:OLEAUT32.dll
 0003:000001d8       __imp__SysFreeString@4     100511d8     oleaut32:OLEAUT32.dll
 0003:000001dc       \177OLEAUT32_NULL_THUNK_DATA 100511dc     oleaut32:OLEAUT32.dll
 0003:000001e0       __imp__GetModuleInformation@16 100511e0     psapi:PSAPI.DLL
 0003:000001e4       __imp__GetModuleFileNameExW@16 100511e4     psapi:PSAPI.DLL
 0003:000001e8       \177PSAPI_NULL_THUNK_DATA  100511e8     psapi:PSAPI.DLL
 0003:000001ec       __imp__EnumWindows@8       100511ec     user32:USER32.dll
 0003:000001f0       __imp__SetForegroundWindow@4 100511f0     user32:USER32.dll
 0003:000001f4       __imp__ShowWindowAsync@8   100511f4     user32:USER32.dll
 0003:000001f8       __imp__IsWindowVisible@4   100511f8     user32:USER32.dll
 0003:000001fc       __imp__GetWindowTextW@12   100511fc     user32:USER32.dll
 0003:00000200       __imp__IsIconic@4          10051200     user32:USER32.dll
 0003:00000204       __imp__GetWindowLongW@8    10051204     user32:USER32.dll
 0003:00000208       __imp__GetAncestor@8       10051208     user32:USER32.dll
 0003:0000020c       __imp__GetLastActivePopup@4 1005120c     user32:USER32.dll
 0003:00000210       __imp__GetWindowThreadProcessId@8 10051210     user32:USER32.dll
 0003:00000214       __imp__GetParent@4         10051214     user32:USER32.dll
 0003:00000218       __imp__CharUpperBuffW@8    10051218     user32:USER32.dll
 0003:0000021c       \177USER32_NULL_THUNK_DATA 1005121c     user32:USER32.dll
 0003:00000220       __imp__GetFileVersionInfoW@16 10051220     version:VERSION.dll
 0003:00000224       __imp__VerQueryValueW@16   10051224     version:VERSION.dll
 0003:00000228       __imp__GetFileVersionInfoSizeW@8 10051228     version:VERSION.dll
 0003:0000022c       \177VERSION_NULL_THUNK_DATA 1005122c     version:VERSION.dll
 0003:00000230       __imp__CoInitialize@4      10051230     ole32:ole32.dll
 0003:00000234       __imp__CoCreateInstance@20 10051234     ole32:ole32.dll
 0003:00000238       __imp__CoUninitialize@0    10051238     ole32:ole32.dll
 0003:0000023c       \177ole32_NULL_THUNK_DATA  1005123c     ole32:ole32.dll
 0003:00000240       ___guard_check_icall_fptr  10051240     LIBCMT:guard_support.obj
 0003:00000244       __IMPORT_DESCRIPTOR_KERNEL32 10051244     kernel32:KERNEL32.dll
 0003:00000258       __IMPORT_DESCRIPTOR_USER32 10051258     user32:USER32.dll
 0003:0000026c       __IMPORT_DESCRIPTOR_ADVAPI32 1005126c     advapi32:ADVAPI32.dll
 0003:00000280       __IMPORT_DESCRIPTOR_ole32  10051280     ole32:ole32.dll
 0003:00000294       __IMPORT_DESCRIPTOR_MPR    10051294     mpr:MPR.dll
 0003:000002a8       __IMPORT_DESCRIPTOR_VERSION 100512a8     version:VERSION.dll
 0003:000002bc       __IMPORT_DESCRIPTOR_OLEAUT32 100512bc     oleaut32:OLEAUT32.dll
 0003:000002d0       __IMPORT_DESCRIPTOR_PSAPI  100512d0     psapi:PSAPI.DLL
 0003:000002e4       __NULL_IMPORT_DESCRIPTOR   100512e4     kernel32:KERNEL32.dll

 entry point at        0001:00031595

 Static symbols

 0001:00000004       ?initlocks$initializer$@std@@3P6AXXZA 10001004     libcpmt:xlock.obj
 0001:00000008       ?initlocks$initializer$@std@@3P6AXXZA 10001008     libcpmt:iosptrs.obj
 0001:0000000c       ?init_atexit$initializer$@@3P6AXXZA 1000100c     libcpmt:iosptrs.obj
 0001:00000010       ?_Fac_tidy_reg$initializer$@std@@3P6AXXZA 10001010     libcpmt:locale0.obj
 0001:00000014       ?classic_locale$initializer$@std@@3P6AXXZA 10001014     libcpmt:locale0.obj
 0001:00000018       ??m_PanelModesDataLocal$initializer$@Plist@@0P6AXXZA@@3P6AXXZA 10001018     fileio.obj
 0001:0000001c       ??m_PanelModesDataRemote$initializer$@Plist@@0P6AXXZA@@3P6AXXZA 1000101c     fileio.obj
 0001:00000020       ?hDebugToken$initializer$@@3P6AXXZA 10001020     Plist.obj
 0001:0000002c       ?pinit@@3P6AHXZA           1000102c     libcpmt:winapisupp.obj
 0001:00000030       _pinit                     10001030     LIBCMT:lconv_unsigned_char.obj
 0001:00000fa8       ?constStrTypes@@3QBQB_WB   10001fa8     handles.obj
 0001:00001388       ?StatusCols@?1??InitializePanelModes@Plist@@SAXXZ@4QB_WB 10002388     Pclass.obj
 0001:00001398       ?StatusWidths@?1??InitializePanelModes@Plist@@SAXXZ@4QB_WB 10002398     Pclass.obj
 0001:00001bbc       ?invalid_chars@?1??GetFiles@Plist@@QAEHPAUPluginPanelItem@@IHPAPB_W_KAAUoptions@@@Z@4QB_WB 10002bbc     Pclass.obj
 0001:00001cfc       ?PrClasses@?EH@??ProcessKey@Plist@@QAEHPBU_INPUT_RECORD@@@Z@4QBGB 10002cfc     Pclass.obj
 0001:00001d08       ?Pr@?HF@??ProcessKey@Plist@@QAEHPBU_INPUT_RECORD@@@Z@4QBEB 10002d08     Pclass.obj
 0001:0000252c       ??_7?$_Func_impl_no_alloc@V<lambda_2188c710c02002b0eab1052a0acb7023>@@_NPA_WI@std@@6B@ 1000352c     Plist.obj
 0001:00002718       ??_7?$_Func_impl_no_alloc@V<lambda_8364a2c8b43a2a1256754ccc435293aa>@@XABUtagVARIANT@@@std@@6B@ 10003718     wmi.obj
 0001:00002730       ??_7?$_Func_impl_no_alloc@V<lambda_d3397212bd5e450c6dbd36f327bf5553>@@XABUtagVARIANT@@@std@@6B@ 10003730     wmi.obj
 0001:00002a00       ?kernel32@modules@@3QB_WB  10003a00     vc_crt_fix_impl.obj
 0001:00002a14       ?ntdll@modules@@3QB_WB     10003a14     vc_crt_fix_impl.obj
 0001:00002fe0       _digits                    10003fe0     libcpmt:xstoul.obj
 0001:00003008       _ndigs                     10004008     libcpmt:xstoul.obj
 0001:00003030       _digits                    10004030     libcpmt:xstoull.obj
 0001:00003058       _ndigs                     10004058     libcpmt:xstoull.obj
 0001:00003080       ?LcidToLocaleNameTable@@3QBULcidToLocaleName@@B 10004080     libcpmt:winapinls.obj
 0001:000037a0       ?LocaleNameToIndexTable@@3QBULocaleNameIndex@@B 100047a0     libcpmt:winapinls.obj
 0001:00005140       two32                      10006140     LIBCMT:ftol2.obj
 0001:00005144       two63                      10006144     LIBCMT:ftol2.obj
 0001:00005148       _NaN                       10006148     LIBCMT:ftol2.obj
 0001:00005150       _GS_ExceptionPointers      10006150     LIBCMT:gs_report.obj
 0001:00005178       ?tokenTable@@3QBUStringLiteral@@B 10006178     libvcruntime:undname.obj
 0001:000051f8       ?nameTable@@3QBUStringLiteral@@B 100061f8     libvcruntime:undname.obj
 0001:00005490       ?rttiTable@@3QBUStringLiteral@@B 10006490     libvcruntime:undname.obj
 0001:000054b8       ?IndirectionName@@3QBUStringLiteral@@B 100064b8     libvcruntime:undname.obj
 0001:000054e8       ?PrefixName@@3QBUStringLiteral@@B 100064e8     libvcruntime:undname.obj
 0001:00005b10       ?module_names@?A0x1172487b@@3QBQB_WB 10006b10     libvcruntime:winapi_downlevel.obj
 0001:00005ba4       ?candidate_modules@?1??try_get_FlsAlloc@@YAP6GKP6GXPAX@Z@ZXZ@4QBW4module_id@?A0x1172487b@@B 10006ba4     libvcruntime:winapi_downlevel.obj
 0001:00005bac       ?candidate_modules@?1??try_get_FlsFree@@YAP6GHK@ZXZ@4QBW4module_id@?A0x1172487b@@B 10006bac     libvcruntime:winapi_downlevel.obj
 0001:00005bb4       ?candidate_modules@?1??try_get_FlsGetValue@@YAP6GPAXK@ZXZ@4QBW4module_id@?A0x1172487b@@B 10006bb4     libvcruntime:winapi_downlevel.obj
 0001:00005bbc       ?candidate_modules@?1??try_get_FlsSetValue@@YAP6GHKPAX@ZXZ@4QBW4module_id@?A0x1172487b@@B 10006bbc     libvcruntime:winapi_downlevel.obj
 0001:00005bc4       ?candidate_modules@?1??try_get_InitializeCriticalSectionEx@@YAP6GHPAU_RTL_CRITICAL_SECTION@@KK@ZXZ@4QBW4module_id@?A0x1172487b@@B 10006bc4     libvcruntime:winapi_downlevel.obj
 0001:00005bd0       ?errtable@@3QBUerrentry@?A0x31fdb9ec@@B 10006bd0     libucrt:errno.obj
 0001:00005e50       _Mantissa                  10006e50     libucrt:modf_pentium4.obj
 0001:00005e60       _Bns                       10006e60     libucrt:modf_pentium4.obj
 0001:00005e70       _Sign                      10006e70     libucrt:modf_pentium4.obj
 0001:00005e80       _Zero                      10006e80     libucrt:modf_pentium4.obj
 0001:00005e90       LOG_name                   10006e90     libucrt:log10_impl.obj
 0001:00005ea0       POW_name                   10006ea0     libucrt:pow_impl.obj
 0001:00005eb0       _One                       10006eb0     libucrt:ceil_pentium4.obj
 0001:00005ec0       _Bns                       10006ec0     libucrt:ceil_pentium4.obj
 0001:00005ed0       _Zero                      10006ed0     libucrt:ceil_pentium4.obj
 0001:00005ee0       _S                         10006ee0     libucrt:ceil_pentium4.obj
 0001:00005ef0       _NegZero                   10006ef0     libucrt:ceil_pentium4.obj
 0001:000070f8       ___acrt_initializers       100080f8     libucrt:initialization.obj
 0001:00007178       ?mask@?P@??_d_int@@9@4QBGB 10008178     libucrt:_test.obj
 0001:00007198       ?sub@?P@??_d_int@@9@4QBIB  10008198     libucrt:_test.obj
 0001:000071b8       ?module_names@?A0x391cf84c@@3QBQB_WB 100081b8     libucrt:winapi_thunks.obj
 0001:00007600       ?candidate_modules@?1??try_get_AreFileApisANSI@@YAP6GHXZXZ@4QBW4module_id@?A0x391cf84c@@B 10008600     libucrt:winapi_thunks.obj
 0001:00007614       ?candidate_modules@?1??try_get_CompareStringEx@@YAP6GHPB_WK0H0HPAU_nlsversioninfo@@PAXJ@ZXZ@4QBW4module_id@?A0x391cf84c@@B 10008614     libucrt:winapi_thunks.obj
 0001:0000761c       ?candidate_modules@?1??try_get_EnumSystemLocalesEx@@YAP6GHP6GHPA_WKJ@ZKJPAX@ZXZ@4QBW4module_id@?A0x391cf84c@@B 1000861c     libucrt:winapi_thunks.obj
 0001:00007638       ?candidate_modules@?1??try_get_FlsAlloc@@YAP6GKP6GXPAX@Z@ZXZ@4QBW4module_id@?A0x391cf84c@@B 10008638     libucrt:winapi_thunks.obj
 0001:00007640       ?candidate_modules@?1??try_get_FlsFree@@YAP6GHK@ZXZ@4QBW4module_id@?A0x391cf84c@@B 10008640     libucrt:winapi_thunks.obj
 0001:00007648       ?candidate_modules@?1??try_get_FlsGetValue@@YAP6GPAXK@ZXZ@4QBW4module_id@?A0x391cf84c@@B 10008648     libucrt:winapi_thunks.obj
 0001:00007650       ?candidate_modules@?1??try_get_FlsSetValue@@YAP6GHKPAX@ZXZ@4QBW4module_id@?A0x391cf84c@@B 10008650     libucrt:winapi_thunks.obj
 0001:00007658       ?candidate_modules@?1??try_get_GetDateFormatEx@@YAP6GHPB_WKPBU_SYSTEMTIME@@0PA_WH0@ZXZ@4QBW4module_id@?A0x391cf84c@@B 10008658     libucrt:winapi_thunks.obj
 0001:00007670       ?candidate_modules@?1??try_get_GetLocaleInfoEx@@YAP6GHPB_WKPA_WH@ZXZ@4QBW4module_id@?A0x391cf84c@@B 10008670     libucrt:winapi_thunks.obj
 0001:00007678       ?candidate_modules@?1??try_get_GetTimeFormatEx@@YAP6GHPB_WKPBU_SYSTEMTIME@@0PA_WH@ZXZ@4QBW4module_id@?A0x391cf84c@@B 10008678     libucrt:winapi_thunks.obj
 0001:00007690       ?candidate_modules@?1??try_get_GetUserDefaultLocaleName@@YAP6GHPA_WH@ZXZ@4QBW4module_id@?A0x391cf84c@@B 10008690     libucrt:winapi_thunks.obj
 0001:000076b4       ?candidate_modules@?1??try_get_InitializeCriticalSectionEx@@YAP6GHPAU_RTL_CRITICAL_SECTION@@KK@ZXZ@4QBW4module_id@?A0x391cf84c@@B 100086b4     libucrt:winapi_thunks.obj
 0001:000076bc       ?candidate_modules@?1??try_get_IsValidLocaleName@@YAP6GHPB_W@ZXZ@4QBW4module_id@?A0x391cf84c@@B 100086bc     libucrt:winapi_thunks.obj
 0001:000076d8       ?candidate_modules@?1??try_get_LCMapStringEx@@YAP6GHPB_WK0HPA_WHPAU_nlsversioninfo@@PAXJ@ZXZ@4QBW4module_id@?A0x391cf84c@@B 100086d8     libucrt:winapi_thunks.obj
 0001:000076e0       ?candidate_modules@?1??try_get_LCIDToLocaleName@@YAP6GHKPA_WHK@ZXZ@4QBW4module_id@?A0x391cf84c@@B 100086e0     libucrt:winapi_thunks.obj
 0001:000076fc       ?candidate_modules@?1??try_get_LocaleNameToLCID@@YAP6GKPB_WK@ZXZ@4QBW4module_id@?A0x391cf84c@@B 100086fc     libucrt:winapi_thunks.obj
 0001:00007718       ?candidate_modules@?1??try_get_AppPolicyGetProcessTerminationMethod@@YAP6GJPAXPAW4AppPolicyProcessTerminationMethod@@@ZXZ@4QBW4module_id@?A0x391cf84c@@B 10008718     libucrt:winapi_thunks.obj
 0001:00007748       ?strings@?1??fp_format_nan_or_infinity@@YAHW4__acrt_fp_class@@_NPADI1@Z@4QAY03QBDA 10008748     libucrt:cvt.obj
 0001:000077c0       __first_127char            100087c0     libucrt:wsetlocale.obj
 0001:00007e10       emask                      10008e10     libucrt:log10_pentium4.obj
 0001:00007e20       CC                         10008e20     libucrt:log10_pentium4.obj
 0001:00007e30       Magic                      10008e30     libucrt:log10_pentium4.obj
 0001:00007e40       hi_mask                    10008e40     libucrt:log10_pentium4.obj
 0001:00007e50       LOG10_2                    10008e50     libucrt:log10_pentium4.obj
 0001:00007e60       place_L                    10008e60     libucrt:log10_pentium4.obj
 0001:00007e80       One                        10008e80     libucrt:log10_pentium4.obj
 0001:00007e90       Zero                       10008e90     libucrt:log10_pentium4.obj
 0001:00007ea0       Two52                      10008ea0     libucrt:log10_pentium4.obj
 0001:00007eb0       Infs                       10008eb0     libucrt:log10_pentium4.obj
 0001:00007ec0       NaN                        10008ec0     libucrt:log10_pentium4.obj
 0001:00007ed0       coeff                      10008ed0     libucrt:log10_pentium4.obj
 0001:00007f2e       _log2max                   10008f2e     libucrt:87tran.obj
 0001:00007f38       _smallarg                  10008f38     libucrt:87tran.obj
 0001:00007f42       _half                      10008f42     libucrt:87tran.obj
 0001:00007f8e       One                        10008f8e     libucrt:87disp.obj
 0001:00007f96       Three                      10008f96     libucrt:87disp.obj
 0001:00007f9e       XAMtoTagTab                10008f9e     libucrt:87disp.obj
 0001:00007fb0       One                        10008fb0     libucrt:common.obj
 0001:00007fc4       DblMax                     10008fc4     libucrt:common.obj
 0001:00007fcc       DblMin                     10008fcc     libucrt:common.obj
 0001:00007fd4       IeeeAdjO                   10008fd4     libucrt:common.obj
 0001:00007fdc       IeeeAdjU                   10008fdc     libucrt:common.obj
 0001:00007fe4       _infinity                  10008fe4     libucrt:common.obj
 0001:00007fec       _zero                      10008fec     libucrt:common.obj
 0001:00008000       Shifter                    10009000     libucrt:pow_pentium4.obj
 0001:00008010       SIGMASK                    10009010     libucrt:pow_pentium4.obj
 0001:00008020       ONEMASK                    10009020     libucrt:pow_pentium4.obj
 0001:00008030       ABSVALMASK                 10009030     libucrt:pow_pentium4.obj
 0001:00008040       cev                        10009040     libucrt:pow_pentium4.obj
 0001:00008068       HALFSIG                    10009068     libucrt:pow_pentium4.obj
 0001:00008070       LHN                        10009070     libucrt:pow_pentium4.obj
 0001:00008078       sNaN                       10009078     libucrt:pow_pentium4.obj
 0001:00008080       INF                        10009080     libucrt:pow_pentium4.obj
 0001:00008088       NEG_INF                    10009088     libucrt:pow_pentium4.obj
 0001:00008090       NEG_ZERO                   10009090     libucrt:pow_pentium4.obj
 0001:00008098       NEG_BIG                    10009098     libucrt:pow_pentium4.obj
 0001:000080a0       POS_BIG                    100090a0     libucrt:pow_pentium4.obj
 0001:000080a8       EMIN                       100090a8     libucrt:pow_pentium4.obj
 0001:000080b0       QIND                       100090b0     libucrt:pow_pentium4.obj
 0001:000080c8       ?_names@?1??_get_fname@@9@9 100090c8     libucrt:fpexcept.obj
 0001:00008270       _over                      10009270     libucrt:fpctrl.obj
 0001:0000827c       _under                     1000927c     libucrt:fpctrl.obj
 0001:00008288       ?_mb_locale_names@@3QBQB_WB 10009288     libucrt:mbctype.obj
 0001:00008298       ?LcidToLocaleNameTable@?A0x881e4c05@@3QBULcidToLocaleName@1@B 10009298     libucrt:lcidtoname_downlevel.obj
 0001:000089b8       ?LocaleNameToIndexTable@?A0x881e4c05@@3QBULocaleNameIndex@1@B 100099b8     libucrt:lcidtoname_downlevel.obj
 0001:000090d8       ?large_power_indices@?1??multiply_by_power_of_ten@__crt_strtox@@YA_NAAUbig_integer@2@I@Z@4QBUunpack_index@?1??12@YA_N0I@Z@B 1000a0d8     libucrt:cfout.obj
 0001:0000e990       ??__E?m_PanelModesDataLocal@Plist@@0V?$vector@Umode@@V?$allocator@Umode@@@std@@@std@@A@@YAXXZ 1000f990 f   fileio.obj
 0001:0000e9a0       ??__E?m_PanelModesDataRemote@Plist@@0V?$vector@Umode@@V?$allocator@Umode@@@std@@@std@@A@@YAXXZ 1000f9a0 f   fileio.obj
 0001:0000e9b0       ??__EhDebugToken@@YAXXZ    1000f9b0 f   Plist.obj
 0001:0000e9bc       ??__Einitlocks@std@@YAXXZ  1000f9bc f   libcpmt:xlock.obj
 0001:0000e9d2       ??__E_Fac_tidy_reg@std@@YAXXZ 1000f9d2 f   libcpmt:locale0.obj
 0001:0000e9de       ??__Eclassic_locale@std@@YAXXZ 1000f9de f   libcpmt:locale0.obj
 0001:0000e9ea       ??__Einit_atexit@@YAXXZ    1000f9ea f   libcpmt:iosptrs.obj
 0001:0000e9f6       ??__Einitlocks@std@@YAXXZ  1000f9f6 f   libcpmt:iosptrs.obj
 0001:0000ea10       $$000000                   1000fa10     chkstk.obj
 0001:0000f424       $LN173                     10010424     format.obj
 0001:00010ad4       $LN173                     10011ad4     format.obj
 0001:00014754       $LN65                      10015754     handles.obj
 0001:00014824       $LN65                      10015824     handles.obj
 0001:00014b60       $LN74                      10015b60     handles.obj
 0001:00014b7c       $LN73                      10015b7c     handles.obj
 0001:00014fa0       $LN129                     10015fa0     handles.obj
 0001:00014fbc       $LN128                     10015fbc     handles.obj
 0001:000157c8       $LN17                      100167c8     handles.obj
 0001:000157f4       $LN16                      100167f4     handles.obj
 0001:000169b8       $LN213                     100179b8     handles.obj
 0001:00017010       $LN179                     10018010     handles.obj
 0001:00019810       ??$write_padded@$01V?$buffer_appender@_W@detail@v7@fmt@@_WAAV<lambda_027ab45faa10ea09e5e2379ad3c7eedc>@@@detail@v7@fmt@@YA?AV?$buffer_appender@_W@012@V3012@ABU?$basic_format_specs@_W@12@IIAAV<lambda_027ab45faa10ea09e5e2379ad3c7eedc>@@@Z 1001a810 f   handles.obj
 0001:00019980       ??$write_padded@$01V?$buffer_appender@_W@detail@v7@fmt@@_WAAV<lambda_505f03a48a515f548378184824dbbe0a>@@@detail@v7@fmt@@YA?AV?$buffer_appender@_W@012@V3012@ABU?$basic_format_specs@_W@12@IIAAV<lambda_505f03a48a515f548378184824dbbe0a>@@@Z 1001a980 f   handles.obj
 0001:00019af0       ??$write_padded@$01V?$buffer_appender@_W@detail@v7@fmt@@_WAAV<lambda_5b547783ae206665a849295505a77387>@@@detail@v7@fmt@@YA?AV?$buffer_appender@_W@012@V3012@ABU?$basic_format_specs@_W@12@IIAAV<lambda_5b547783ae206665a849295505a77387>@@@Z 1001aaf0 f   handles.obj
 0001:00019c60       ??$write_padded@$01V?$buffer_appender@_W@detail@v7@fmt@@_WAAV<lambda_71b696d889574de12d2cbaeea34938bc>@@@detail@v7@fmt@@YA?AV?$buffer_appender@_W@012@V3012@ABU?$basic_format_specs@_W@12@IIAAV<lambda_71b696d889574de12d2cbaeea34938bc>@@@Z 1001ac60 f   handles.obj
 0001:00019e00       ??$write_padded@$01V?$buffer_appender@_W@detail@v7@fmt@@_WAAV<lambda_89592713dfb02b411072364cbdf8a484>@@@detail@v7@fmt@@YA?AV?$buffer_appender@_W@012@V3012@ABU?$basic_format_specs@_W@12@IIAAV<lambda_89592713dfb02b411072364cbdf8a484>@@@Z 1001ae00 f   handles.obj
 0001:00019f50       ??$write_padded@$01V?$buffer_appender@_W@detail@v7@fmt@@_WAAV<lambda_8dca9239bd356f73d1514af2dd04f77e>@@@detail@v7@fmt@@YA?AV?$buffer_appender@_W@012@V3012@ABU?$basic_format_specs@_W@12@IIAAV<lambda_8dca9239bd356f73d1514af2dd04f77e>@@@Z 1001af50 f   handles.obj
 0001:0001a0d0       ??$write_padded@$01V?$buffer_appender@_W@detail@v7@fmt@@_WAAV<lambda_dce491d26fa7beaba815b605f915ffb2>@@@detail@v7@fmt@@YA?AV?$buffer_appender@_W@012@V3012@ABU?$basic_format_specs@_W@12@IIAAV<lambda_dce491d26fa7beaba815b605f915ffb2>@@@Z 1001b0d0 f   handles.obj
 0001:0001a680       ??R<lambda_1feef79b45438cc604388562a6d2a9ab>@@QBE?AV?$buffer_appender@_W@detail@v7@fmt@@V1234@@Z 1001b680 f   handles.obj
 0001:0001a780       ??R<lambda_3236c61b710ed012a9db8ba3bd593538>@@QBE?AV?$buffer_appender@_W@detail@v7@fmt@@V1234@@Z 1001b780 f   handles.obj
 0001:0001a8a0       ??R<lambda_8b8037e985e1937db47e9e4f0416094c>@@QBE?AV?$buffer_appender@_W@detail@v7@fmt@@V1234@@Z 1001b8a0 f   handles.obj
 0001:0001a9c0       ??R<lambda_c3630acb37279cf92411e07a2b271fdf>@@QBE?AV?$basic_string@_WU?$char_traits@_W@std@@V?$allocator@_W@2@@std@@XZ 1001b9c0 f   handles.obj
 0001:0001abd0       ??R<lambda_c3b7cd1eef65e127a6d11de5f70a11b6>@@QBE?AV?$buffer_appender@_W@detail@v7@fmt@@V1234@@Z 1001bbd0 f   handles.obj
 0001:0001acd0       ??R<lambda_c3eadada0a0a282345238edea4ea84c6>@@QBE?AV?$buffer_appender@_W@detail@v7@fmt@@V1234@@Z 1001bcd0 f   handles.obj
 0001:0001ad50       ??R<lambda_d7ff147dc01dcbc9a9a648dbdce06a58>@@QBE_NV?$basic_string_view@_WU?$char_traits@_W@std@@@std@@0@Z 1001bd50 f   handles.obj
 0001:0001adc0       ??R<lambda_ff7790e6b4eea15efdcc5db9b294290a>@@QBE?AV?$buffer_appender@_W@detail@v7@fmt@@V1234@@Z 1001bdc0 f   handles.obj
 0001:0001af60       ?GetFileNameThread@test@?4??GetFileName@@YA?AV?$basic_string@_WU?$char_traits@_W@std@@V?$allocator@_W@2@@std@@PAX@Z@SGK0@Z 1001bf60 f   handles.obj
 0001:0001af90       ?GetNameByType@@YA?AV?$basic_string@_WU?$char_traits@_W@std@@V?$allocator@_W@2@@std@@PAXGPAVPerfThread@@@Z 1001bf90 f   handles.obj
 0001:0001b564       $LN450                     1001c564     handles.obj
 0001:0001bc90       ?duplicate_handle@@YA?AV?$unique_ptr@XUhandle_closer@@@std@@PAXK@Z 1001cc90 f   handles.obj
 0001:0001caf0       ?query_object@@YA?AV?$unique_ptr@$$BY0A@DU?$default_delete@$$BY0A@D@std@@@std@@PAXW4OBJECT_INFORMATION_CLASS@@@Z 1001daf0 f   handles.obj
 0001:0001d22c       $LN47                      1001e22c     Pcfg.obj
 0001:0001d23c       $LN46                      1001e23c     Pcfg.obj
 0001:0001d7ac       $LN14                      1001e7ac     Pcfg.obj
 0001:0001d7bc       $LN13                      1001e7bc     Pcfg.obj
 0001:0001dd6c       $LN70                      1001ed6c     Pcfg.obj
 0001:0001dd7c       $LN69                      1001ed7c     Pcfg.obj
 0001:0001fe30       $LN271                     10020e30     Pclass.obj
 0001:0001fe50       ?DumpNTCounters@@YAXPAXAAVPerfThread@@KK@Z 10020e50 f   Pclass.obj
 0001:00020400       ?EnumWndProc@@YGHPAUHWND__@@J@Z 10021400 f   Pclass.obj
 0001:00022b94       $LN766                     10023b94     Pclass.obj
 0001:00022ba8       $LN765                     10023ba8     Pclass.obj
 0001:00022bc0       $LN769                     10023bc0     Pclass.obj
 0001:00022be0       $LN768                     10023be0     Pclass.obj
 0001:00024aa0       ?PrintTitle@@YA?AV?$basic_string@_WU?$char_traits@_W@std@@V?$allocator@_W@2@@std@@H@Z 10025aa0 f   Pclass.obj
 0001:00024ae0       ?PrintTitle@@YA?AV?$basic_string@_WU?$char_traits@_W@std@@V?$allocator@_W@2@@std@@V?$basic_string_view@_WU?$char_traits@_W@std@@@2@@Z 10025ae0 f   Pclass.obj
 0001:00026984       $LN1066                    10027984     Pclass.obj
 0001:00026994       $LN1065                    10027994     Pclass.obj
 0001:00026d50       ?TranslateMode@@YA_NABV?$basic_string@_WU?$char_traits@_W@std@@V?$allocator@_W@2@@std@@AAV12@@Z 10027d50 f   Pclass.obj
 0001:000274e0       $LN480                     100284e0     Pclass.obj
 0001:000274e8       $LN479                     100284e8     Pclass.obj
 0001:00027500       $LN482                     10028500     Pclass.obj
 0001:00027508       $LN481                     10028508     Pclass.obj
 0001:00027eb0       ?convert_panel_modes@@YAXABV?$vector@Umode@@V?$allocator@Umode@@@std@@@std@@AAV?$array@UPanelMode@@$09@2@@Z 10028eb0 f   Pclass.obj
 0001:00027f50       ?generate_titles@@YAXABV?$basic_string@_WU?$char_traits@_W@std@@V?$allocator@_W@2@@std@@AAUPanelMode@@@Z 10028f50 f   Pclass.obj
 0001:0002814c       $LN86                      1002914c     Pclass.obj
 0001:00028160       $LN85                      10029160     Pclass.obj
 0001:00028178       $LN88                      10029178     Pclass.obj
 0001:00028198       $LN87                      10029198     Pclass.obj
 0001:000285b0       ?ui64toa_width@@YA?AV?$basic_string@_WU?$char_traits@_W@std@@V?$allocator@_W@2@@std@@_KI_N@Z 100295b0 f   Pclass.obj
 0001:00028a80       ?window_ex_style@@YA@PAUHWND__@@@Z 10029a80 f   Pclass.obj
 0001:00028e10       ?window_style@@YA@PAUHWND__@@@Z 10029e10 f   Pclass.obj
 0001:0002b370       ??$print_module@PAX@@YAXQAXPAXKAAUoptions@@ABV?$function@$$A6A_NPA_WI@Z@std@@@Z 1002c370 f   Plist.obj
 0001:0002b7e0       ??R<lambda_dfa89da47ba22f95c142cf8e3e15cf1d>@@QBEXXZ 1002c7e0 f   Plist.obj
 0001:0002b9a0       ?FreeUserData@@YGXQAXQBUFarPanelItemFreeInfo@@@Z 1002c9a0 f   Plist.obj
 0001:0002d310       ?_Copy@?$_Func_impl_no_alloc@V<lambda_2188c710c02002b0eab1052a0acb7023>@@_NPA_WI@std@@EBEPAV?$_Func_base@_NPA_WI@2@PAX@Z 1002e310 f   Plist.obj
 0001:0002d310       ?_Move@?$_Func_impl_no_alloc@V<lambda_2188c710c02002b0eab1052a0acb7023>@@_NPA_WI@std@@EAEPAV?$_Func_base@_NPA_WI@2@PAX@Z 1002e310 f   Plist.obj
 0001:0002d370       ?_Delete_this@?$_Func_impl_no_alloc@V<lambda_2188c710c02002b0eab1052a0acb7023>@@_NPA_WI@std@@EAEX_N@Z 1002e370 f   Plist.obj
 0001:0002d390       ?_Do_call@?$_Func_impl_no_alloc@V<lambda_2188c710c02002b0eab1052a0acb7023>@@_NPA_WI@std@@EAE_N$$QAPA_W$$QAI@Z 1002e390 f   Plist.obj
 0001:0002d460       ?_Get@?$_Func_impl_no_alloc@V<lambda_2188c710c02002b0eab1052a0acb7023>@@_NPA_WI@std@@EBEPBXXZ 1002e460 f   Plist.obj
 0001:0002d460       ?_Get@?$_Func_impl_no_alloc@V<lambda_8364a2c8b43a2a1256754ccc435293aa>@@XABUtagVARIANT@@@std@@EBEPBXXZ 1002e460 f   wmi.obj
 0001:0002d460       ?_Get@?$_Func_impl_no_alloc@V<lambda_d3397212bd5e450c6dbd36f327bf5553>@@XABUtagVARIANT@@@std@@EBEPBXXZ 1002e460 f   wmi.obj
 0001:0002d470       ?_Target_type@?$_Func_impl_no_alloc@V<lambda_2188c710c02002b0eab1052a0acb7023>@@_NPA_WI@std@@EBEABVtype_info@@XZ 1002e470 f   Plist.obj
 0001:0002d4a0       ?is_wow64_itself@@YA_NXZ   1002e4a0 f   Plist.obj
 0001:0002d510       ?print_module_impl@@YAXQAXABV?$basic_string@_WU?$char_traits@_W@std@@V?$allocator@_W@2@@std@@KABUoptions@@ABV?$function@$$A6A_NPA_WI@Z@2@@Z 1002e510 f   Plist.obj
 0001:0002ec00       ?ProcessPath@@YA@K@Z       1002fc00 f   wmi.obj
 0001:0002ecf0       ?_Copy@?$_Func_impl_no_alloc@V<lambda_8364a2c8b43a2a1256754ccc435293aa>@@XABUtagVARIANT@@@std@@EBEPAV?$_Func_base@XABUtagVARIANT@@@2@PAX@Z 1002fcf0 f   wmi.obj
 0001:0002ecf0       ?_Move@?$_Func_impl_no_alloc@V<lambda_8364a2c8b43a2a1256754ccc435293aa>@@XABUtagVARIANT@@@std@@EAEPAV?$_Func_base@XABUtagVARIANT@@@2@PAX@Z 1002fcf0 f   wmi.obj
 0001:0002ed10       ?_Copy@?$_Func_impl_no_alloc@V<lambda_d3397212bd5e450c6dbd36f327bf5553>@@XABUtagVARIANT@@@std@@EBEPAV?$_Func_base@XABUtagVARIANT@@@2@PAX@Z 1002fd10 f   wmi.obj
 0001:0002ed10       ?_Move@?$_Func_impl_no_alloc@V<lambda_d3397212bd5e450c6dbd36f327bf5553>@@XABUtagVARIANT@@@std@@EAEPAV?$_Func_base@XABUtagVARIANT@@@2@PAX@Z 1002fd10 f   wmi.obj
 0001:0002ed30       ?_Delete_this@?$_Func_impl_no_alloc@V<lambda_8364a2c8b43a2a1256754ccc435293aa>@@XABUtagVARIANT@@@std@@EAEX_N@Z 1002fd30 f   wmi.obj
 0001:0002ed30       ?_Delete_this@?$_Func_impl_no_alloc@V<lambda_d3397212bd5e450c6dbd36f327bf5553>@@XABUtagVARIANT@@@std@@EAEX_N@Z 1002fd30 f   wmi.obj
 0001:0002ed50       ?_Do_call@?$_Func_impl_no_alloc@V<lambda_8364a2c8b43a2a1256754ccc435293aa>@@XABUtagVARIANT@@@std@@EAEXABUtagVARIANT@@@Z 1002fd50 f   wmi.obj
 0001:0002ed70       ?_Do_call@?$_Func_impl_no_alloc@V<lambda_d3397212bd5e450c6dbd36f327bf5553>@@XABUtagVARIANT@@@std@@EAEXABUtagVARIANT@@@Z 1002fd70 f   wmi.obj
 0001:0002edb0       ?_Target_type@?$_Func_impl_no_alloc@V<lambda_8364a2c8b43a2a1256754ccc435293aa>@@XABUtagVARIANT@@@std@@EBEABVtype_info@@XZ 1002fdb0 f   wmi.obj
 0001:0002edc0       ?_Target_type@?$_Func_impl_no_alloc@V<lambda_d3397212bd5e450c6dbd36f327bf5553>@@XABUtagVARIANT@@@std@@EBEABVtype_info@@XZ 1002fdc0 f   wmi.obj
 0001:0002edd0       ?fNtQueryInformationFile@@YGJPAX00KK@Z 1002fdd0 f   Proclist.obj
 0001:0002edd0       ?fNtQueryInformationProcess@@YGJPAXW4_PROCESSINFOCLASS@@0KPAK@Z 1002fdd0 f   Proclist.obj
 0001:0002edd0       ?fNtQueryInformationThread@@YGJPAXK0KPAK@Z 1002fdd0 f   Proclist.obj
 0001:0002edd0       ?fNtQueryObject@@YGJPAXK0K0@Z 1002fdd0 f   Proclist.obj
 0001:0002edd0       ?fNtWow64QueryInformationProcess64@@YGJPAXW4_PROCESSINFOCLASS@@0KPAK@Z 1002fdd0 f   Proclist.obj
 0001:0002ede0       ?fNtQuerySystemInformation@@YGJKPAXKPAK@Z 1002fde0 f   Proclist.obj
 0001:0002edf0       ?fNtWow64ReadVirtualMemory64@@YGJPAX_K01PA_K@Z 1002fdf0 f   Proclist.obj
 0001:0002ee00       ?fGetGuiResources@@YGKPAXK@Z 1002fe00 f   Proclist.obj
 0001:0002ee00       ?fGetSidSubAuthority@@YGPAKPAXK@Z 1002fe00 f   Proclist.obj
 0001:0002ee00       ?fIsWow64Process@@YGHPAXPAH@Z 1002fe00 f   Proclist.obj
 0001:0002ee10       ?fGetSidIdentifierAuthority@@YGPAU_SID_IDENTIFIER_AUTHORITY@@PAX@Z 1002fe10 f   Proclist.obj
 0001:0002ee10       ?fGetSidSubAuthorityCount@@YGPAEPAX@Z 1002fe10 f   Proclist.obj
 0001:0002ee10       ?fIsValidSid@@YGHPAX@Z     1002fe10 f   Proclist.obj
 0001:0002ee20       ?fCoSetProxyBlanket@@YGJPAUIUnknown@@KKPA_WKKPAXK@Z 1002fe20 f   Proclist.obj
 0001:0002ee30       ?fEnumProcessModulesEx@@YGHPAXPAPAUHINSTANCE__@@KPAKK@Z 1002fe30 f   Proclist.obj
 0001:0002ee70       ?dynamic_bind@@YAXXZ       1002fe70 f   Proclist.obj
 0001:0002f360       ?CompareStringEx@implementation@?1??CompareStringExWrapper@@YGHPB_WK0H0HPAU_nlsversioninfo@@PAXJ@Z@SGH0K0H0H12J@Z 10030360 f   vc_crt_fix_impl.obj
 0001:0002f390       ?CompareStringEx@implementation@?1??LCMapStringExWrapper@@YGHPB_WK0HPA_WHPAU_nlsversioninfo@@PAXJ@Z@SGH0K0H1H23J@Z 10030390 f   vc_crt_fix_impl.obj
 0001:0002f3c0       ?DecodePointer@implementation@?1??DecodePointerWrapper@@YGPAXPAX@Z@SGPAX0@Z 100303c0 f   vc_crt_fix_impl.obj
 0001:0002f3c0       ?EncodePointer@implementation@?1??EncodePointerWrapper@@YGPAXPAX@Z@SGPAX0@Z 100303c0 f   vc_crt_fix_impl.obj
 0001:0002f3d0       ?GetLogicalProcessorInformation@implementation@?1??GetLogicalProcessorInformationWrapper@@YGHPAU_SYSTEM_LOGICAL_PROCESSOR_INFORMATION@@PAK@Z@SGH01@Z 100303d0 f   vc_crt_fix_impl.obj
 0001:0002f3e0       ?GetModuleHandleExW@implementation@?1??GetModuleHandleExWWrapper@@YGHKPB_WPAPAUHINSTANCE__@@@Z@SGHK01@Z 100303e0 f   vc_crt_fix_impl.obj
 0001:0002f4b0       ?GetNumaHighestNodeNumber@implementation@?1??GetNumaHighestNodeNumberWrapper@@YGHPAK@Z@SGH0@Z 100304b0 f   vc_crt_fix_impl.obj
 0001:0002f4d0       ?InitializeCriticalSectionEx@implementation@?1??InitializeCriticalSectionExWrapper@@YGHPAU_RTL_CRITICAL_SECTION@@KK@Z@SGH0KK@Z 100304d0 f   vc_crt_fix_impl.obj
 0001:0002f4f0       ?InitializeSListHead@implementation@slist@@YGXPAT_SLIST_HEADER@@@Z 100304f0 f   vc_crt_fix_impl.obj
 0001:0002f5b0       ?InterlockedFlushSList@implementation@slist@@YGPAU_SINGLE_LIST_ENTRY@@PAT_SLIST_HEADER@@@Z 100305b0 f   vc_crt_fix_impl.obj
 0001:0002f5e0       ?InterlockedPopEntrySList@implementation@slist@@YGPAU_SINGLE_LIST_ENTRY@@PAT_SLIST_HEADER@@@Z 100305e0 f   vc_crt_fix_impl.obj
 0001:0002f630       ?InterlockedPushEntrySList@implementation@slist@@YGPAU_SINGLE_LIST_ENTRY@@PAT_SLIST_HEADER@@PAU3@@Z 10030630 f   vc_crt_fix_impl.obj
 0001:0002f670       ?InterlockedPushListSListEx@implementation@slist@@YGPAU_SINGLE_LIST_ENTRY@@PAT_SLIST_HEADER@@PAU3@1K@Z 10030670 f   vc_crt_fix_impl.obj
 0001:0002f6b0       ?QueryDepthSList@implementation@slist@@YGGPAT_SLIST_HEADER@@@Z 100306b0 f   vc_crt_fix_impl.obj
 0001:0002f6e0       ?RtlFirstEntrySList@implementation@slist@@YGPAU_SINGLE_LIST_ENTRY@@PAT_SLIST_HEADER@@@Z 100306e0 f   vc_crt_fix_impl.obj
 0001:0002f710       ?SetThreadStackGuarantee@implementation@?1??SetThreadStackGuaranteeWrapper@@YGHPAK@Z@SGH0@Z 10030710 f   vc_crt_fix_impl.obj
 0001:0002f720       ?XorPointer@@YAPAXPAX@Z    10030720 f   vc_crt_fix_impl.obj
 0001:0003024e       _tidy_global               1003124e f   libcpmt:locale0.obj
 0001:0003041d       __Utf8_trailing_byte_count 1003141d f   libcpmt:xmbtowc.obj
 0001:00030547       ?initialize_pointers@@YAHXZ 10031547 f   libcpmt:winapisupp.obj
 0001:00030862       ?find_pe_section@@YAPAU_IMAGE_SECTION_HEADER@@QAEI@Z 10031862 f   LIBCMT:utility.obj
 0001:00030bb0       $$000000                   10031bb0     LIBCMT:llmul.obj
 0001:00030bf0       $$000000                   10031bf0     LIBCMT:llshl.obj
 0001:00030c10       $$000000                   10031c10     LIBCMT:ullshr.obj
 0001:00030d80       $$000000                   10031d80     LIBCMT:ulldiv.obj
 0001:00030df0       $$000000                   10031df0     LIBCMT:ulldvrm.obj
 0001:00030e90       $$000000                   10031e90     LIBCMT:ullrem.obj
 0001:00030f10       $$000000                   10031f10     LIBCMT:ftol2.obj
 0001:000311b0       $$000000                   100321b0     LIBCMT:lldiv.obj
 0001:0003125a       ?dllmain_crt_dispatch@@YGHQAUHINSTANCE__@@KQAX@Z 1003225a f   LIBCMT:dll_dllmain.obj
 0001:000312ad       ?dllmain_crt_process_attach@@YAHQAUHINSTANCE__@@QAX@Z 100322ad f   LIBCMT:dll_dllmain.obj
 0001:000313b4       ?dllmain_crt_process_detach@@YAH_N@Z 100323b4 f   LIBCMT:dll_dllmain.obj
 0001:00031464       ?dllmain_dispatch@@YAHQAUHINSTANCE__@@KQAX@Z 10032464 f   LIBCMT:dll_dllmain.obj
 0001:0003156a       ?dllmain_raw@@YGHQAUHINSTANCE__@@KQAX@Z 1003256a f   LIBCMT:dll_dllmain.obj
 0001:000316a0       $$000000                   100326a0     LIBCMT:alloca16.obj
 0001:000319e0       $$000000                   100329e0     LIBCMT:sehprolg4.obj
 0001:00031a58       ___get_entropy             10032a58 f   LIBCMT:gs_support.obj
 0001:00031e5a       ?_FilterSetCurrentException@@YAKPAU_EXCEPTION_POINTERS@@E@Z 10032e5a f   libvcruntime:ehhelpers.obj
 0001:00032400       $$000000                   10033400     libvcruntime:memchr.obj
 0001:000324b0       $$000000                   100334b0     libvcruntime:memcpy.obj
 0001:00032714       TrailingUpVec              10033714     libvcruntime:memcpy.obj
 0001:000327c0       TrailingDownVec            100337c0     libvcruntime:memcpy.obj
 0001:00032a30       $$000000                   10033a30     libvcruntime:memmove.obj
 0001:00032c94       TrailingUpVec              10033c94     libvcruntime:memmove.obj
 0001:00032d40       TrailingDownVec            10033d40     libvcruntime:memmove.obj
 0001:00032fb0       $$000000                   10033fb0     libvcruntime:memset.obj
 0001:000340f5       $LN1241                    100350f5     libvcruntime:memcmp.obj
 0001:000341d0       _ValidateLocalCookies      100351d0 f   libvcruntime:chandler4.obj
 0001:0003450d       ??$BuildCatchObjectHelperInternal@V__FrameHandler3@@@@YAHPAUEHExceptionRecord@@PAXPBU_s_HandlerType@@PBU_s_CatchableType@@@Z 1003550d f   libvcruntime:frame.obj
 0001:0003464b       ??$BuildCatchObjectInternal@V__FrameHandler3@@@@YAXPAUEHExceptionRecord@@PAXPBU_s_HandlerType@@PBU_s_CatchableType@@@Z 1003564b f   libvcruntime:frame.obj
 0001:000346e4       ??$CatchIt@V__FrameHandler3@@@@YAXPAUEHExceptionRecord@@PAUEHRegistrationNode@@PAU_CONTEXT@@PAXPBU_s_FuncInfo@@PBU_s_HandlerType@@PBU_s_CatchableType@@PBU_s_TryBlockMapEntry@@H1EE@Z 100356e4 f   libvcruntime:frame.obj
 0001:00034764       ??$FindHandler@V__FrameHandler3@@@@YAXPAUEHExceptionRecord@@PAUEHRegistrationNode@@PAU_CONTEXT@@PAXPBU_s_FuncInfo@@EH1@Z 10035764 f   libvcruntime:frame.obj
 0001:00034b1a       ??$FindHandlerForForeignException@V__FrameHandler3@@@@YAXPAUEHExceptionRecord@@PAUEHRegistrationNode@@PAU_CONTEXT@@PAXPBU_s_FuncInfo@@HH1@Z 10035b1a f   libvcruntime:frame.obj
 0001:00034e32       ?CallCatchBlock@@YAPAXPAUEHExceptionRecord@@PAUEHRegistrationNode@@PAU_CONTEXT@@PBU_s_FuncInfo@@PAXHK@Z 10035e32 f   libvcruntime:frame.obj
 0001:00034ff6       ?CallUnexpected@@YAXPBU_s_ESTypeList@@@Z 10035ff6 f   libvcruntime:frame.obj
 0001:00035016       __catch$?CallUnexpected@@YAXPBU_s_ESTypeList@@@Z$0 10036016 f   libvcruntime:frame.obj
 0001:00035030       ?ExFilterRethrow@@YAHPAU_EXCEPTION_POINTERS@@@Z 10036030 f   libvcruntime:frame.obj
 0001:0003517a       ?IsInExceptionSpec@@YAEPAUEHExceptionRecord@@PBU_s_ESTypeList@@@Z 1003617a f   libvcruntime:frame.obj
 0001:00035250       $$000000                   10036250     libvcruntime:lowhelpr.obj
 0001:00035370       $$000000                   10036370     libvcruntime:exsup4.obj
 0001:00035400       __unwind_handler4          10036400 f   libvcruntime:exsup4.obj
 0001:000354d7       ?try_get_first_available_module@@YAPAUHINSTANCE__@@QBW4module_id@?A0x1172487b@@0@Z 100364d7 f   libvcruntime:winapi_downlevel.obj
 0001:00035583       ?try_get_function@@YAPAXW4function_id@?A0x1172487b@@QBDQBW4module_id@2@2@Z 10036583 f   libvcruntime:winapi_downlevel.obj
 0001:00035750       $$000000                   10036750     libvcruntime:exsup.obj
 0001:00035771       __unwind_handler           10036771 f   libvcruntime:exsup.obj
 0001:00035d05       ??$common_vsnprintf_s@D@@YAH_KQADIIQBDQAU__crt_locale_pointers@@1@Z 10036d05 f   libucrt:output.obj
 0001:00035ded       ??$common_vsprintf@Vformat_validation_base@__crt_stdio_output@@D@@YAH_KQADIQBDQAU__crt_locale_pointers@@1@Z 10036ded f   libucrt:output.obj
 0001:00036542       $LN51                      10037542     libucrt:output.obj
 0001:00036a51       $LN20                      10037a51     libucrt:output.obj
 0001:00036a65       $LN17                      10037a65     libucrt:output.obj
 0001:000375b0       $$000000                   100385b0     libucrt:modf_pentium4.obj
 0001:000378b0       $$000000                   100388b0     libucrt:log10_impl.obj
 0001:000379c0       $$000000                   100389c0     libucrt:pow_impl.obj
 0001:00037c10       $$000000                   10038c10     libucrt:ceil_pentium4.obj
 0001:00037de4       ??$?RV<lambda_646e26742ed01d5bc03234f44bb6d3d3>@@AAV<lambda_b37934c380d97b75fd242ea49540127a>@@V<lambda_bbd9d45274666fbb50f81a29ad795c13>@@@?$__crt_seh_guarded_call@PAD@@QAEPAD$$QAV<lambda_646e26742ed01d5bc03234f44bb6d3d3>@@AAV<lambda_b37934c380d97b75fd242ea49540127a>@@$$QAV<lambda_bbd9d45274666fbb50f81a29ad795c13>@@@Z 10038de4 f   libucrt:setlocale.obj
 0001:00037e3f       ??R<lambda_b37934c380d97b75fd242ea49540127a>@@QBEPADXZ 10038e3f f   libucrt:setlocale.obj
 0001:00037fa3       _call_wsetlocale           10038fa3 f   libucrt:setlocale.obj
 0001:00038ad3       _memcpy_s                  10039ad3 f   libucrt:cfout.obj
 0001:00038ad3       _memcpy_s                  10039ad3 f   libucrt:strtod.obj
 0001:00038ad3       _memcpy_s                  10039ad3 f   libucrt:mbctype.obj
 0001:00038b60       $$000000                   10039b60     libucrt:strcspn.obj
 0001:00038c49       ??$__acrt_convert_wcs_mbs_cp@D_WV<lambda_62f6974d9771e494a5ea317cc32e971c>@@U__crt_win32_buffer_internal_dynamic_resizing@@@@YAHQBDAAV?$__crt_win32_buffer@_WU__crt_win32_buffer_internal_dynamic_resizing@@@@ABV<lambda_62f6974d9771e494a5ea317cc32e971c>@@I@Z 10039c49 f   libucrt:strftime.obj
 0001:00039295       ??$?RV<lambda_03b1d95aef87969028cfba75ccab2455>@@AAV<lambda_6e4b09c48022b2350581041d5f6b0c4c>@@V<lambda_22bdf7517842c4b3e53723af5aa32b9e>@@@?$__crt_seh_guarded_call@X@@QAEX$$QAV<lambda_03b1d95aef87969028cfba75ccab2455>@@AAV<lambda_6e4b09c48022b2350581041d5f6b0c4c>@@$$QAV<lambda_22bdf7517842c4b3e53723af5aa32b9e>@@@Z 1003a295 f   libucrt:exit.obj
 0001:000392e2       ??R<lambda_6e4b09c48022b2350581041d5f6b0c4c>@@QBE@XZ 1003a2e2 f   libucrt:exit.obj
 0001:000393bc       ?atexit_exception_filter@@YAHK@Z 1003a3bc f   libucrt:exit.obj
 0001:000393cf       ?common_exit@@YAXHW4_crt_exit_cleanup_mode@@W4_crt_exit_return_mode@@@Z 1003a3cf f   libucrt:exit.obj
 0001:00039433       ?exit_or_terminate_process@@YAXI@Z 1003a433 f   libucrt:exit.obj
 0001:00039475       ?is_managed_app@@YA_NXZ    1003a475 f   libucrt:exit.obj
 0001:000394b8       ?try_cor_exit_process@@YAXI@Z 1003a4b8 f   libucrt:exit.obj
 0001:00039546       ??$common_configure_argv@D@@YAHW4_crt_argv_mode@@@Z 1003a546 f   libucrt:argv_parsing.obj
 0001:0003967c       ??$parse_command_line@D@@YAXPADPAPAD0PAI2@Z 1003a67c f   libucrt:argv_parsing.obj
 0001:0003984d       ??$common_initialize_environment_nolock@D@@YAHXZ 1003a84d f   libucrt:environment_initialization.obj
 0001:000398a0       ??$create_environment@D@@YAQAPADQAD@Z 1003a8a0 f   libucrt:environment_initialization.obj
 0001:00039970       ??$free_environment@D@@YAXQAPAD@Z 1003a970 f   libucrt:environment_initialization.obj
 0001:00039970       ??$free_environment@_W@@YAXQAPA_W@Z 1003a970 f   libucrt:environment_initialization.obj
 0001:000399c8       ??$uninitialize_environment_internal@D@@YAXAAPAPAD@Z 1003a9c8 f   libucrt:environment_initialization.obj
 0001:000399e3       ??$uninitialize_environment_internal@_W@@YAXAAPAPA_W@Z 1003a9e3 f   libucrt:environment_initialization.obj
 0001:00039a3a       ??$?RV<lambda_69a2805e680e0e292e8ba93315fe43a8>@@AAV<lambda_f03950bc5685219e0bcd2087efbe011e>@@V<lambda_03fcd07e894ec930e3f35da366ca99d6>@@@?$__crt_seh_guarded_call@H@@QAEH$$QAV<lambda_69a2805e680e0e292e8ba93315fe43a8>@@AAV<lambda_f03950bc5685219e0bcd2087efbe011e>@@$$QAV<lambda_03fcd07e894ec930e3f35da366ca99d6>@@@Z 1003aa3a f   libucrt:onexit.obj
 0001:00039a95       ??$?RV<lambda_8e746cf0007f6ed984d6f78af1fec997>@@AAV<lambda_22ebabd17bc4fa466a2aca6d8deb888d>@@V<lambda_18ed0c0b38a6dc0daf1e7ac6d6adf05e>@@@?$__crt_seh_guarded_call@H@@QAEH$$QAV<lambda_8e746cf0007f6ed984d6f78af1fec997>@@AAV<lambda_22ebabd17bc4fa466a2aca6d8deb888d>@@$$QAV<lambda_18ed0c0b38a6dc0daf1e7ac6d6adf05e>@@@Z 1003aa95 f   libucrt:onexit.obj
 0001:00039b0f       ??R<lambda_22ebabd17bc4fa466a2aca6d8deb888d>@@QBEHXZ 1003ab0f f   libucrt:onexit.obj
 0001:00039c38       ??R<lambda_f03950bc5685219e0bcd2087efbe011e>@@QBEHXZ 1003ac38 f   libucrt:onexit.obj
 0001:00039db1       _initialize_environment    1003adb1 f   libucrt:initialization.obj
 0001:00039db1       _initialize_global_state_isolation 1003adb1 f   libucrt:initialization.obj
 0001:00039db1       _report_memory_leaks       1003adb1 f   libucrt:initialization.obj
 0001:00039db1       _uninitialize_c            1003adb1 f   libucrt:initialization.obj
 0001:00039db1       _uninitialize_global_state_isolation 1003adb1 f   libucrt:initialization.obj
 0001:00039db4       _initialize_global_variables 1003adb4 f   libucrt:initialization.obj
 0001:00039dc1       _initialize_c              1003adc1 f   libucrt:initialization.obj
 0001:00039ddb       _uninitialize_environment  1003addb f   libucrt:initialization.obj
 0001:00039de3       _initialize_pointers       1003ade3 f   libucrt:initialization.obj
 0001:00039e11       _uninitialize_vcruntime    1003ae11 f   libucrt:initialization.obj
 0001:00039e1a       _uninitialize_allocated_memory 1003ae1a f   libucrt:initialization.obj
 0001:00039e31       _uninitialize_allocated_io_buffers 1003ae31 f   libucrt:initialization.obj
 0001:00039e81       ??R<lambda_af42a3ee9806e9a7305d451646e05244>@@QBEXAAPAU__crt_multibyte_data@@@Z 1003ae81 f   libucrt:initialization.obj
 0001:0003a930       $$000000                   1003b930     libucrt:strncmp.obj
 0001:0003a9e2       ??$?RV<lambda_15ade71b0218206bbe3333a0c9b79046>@@AAV<lambda_da44e0f8b0f19ba52fefafb335991732>@@V<lambda_207f2d024fc103971653565357d6cd41>@@@?$__crt_seh_guarded_call@X@@QAEX$$QAV<lambda_15ade71b0218206bbe3333a0c9b79046>@@AAV<lambda_da44e0f8b0f19ba52fefafb335991732>@@$$QAV<lambda_207f2d024fc103971653565357d6cd41>@@@Z 1003b9e2 f   libucrt:per_thread_data.obj
 0001:0003aa34       ??$?RV<lambda_38edbb1296d33220d7e4dd0ed76b244a>@@AAV<lambda_5ce1d447e08cb34b2473517608e21441>@@V<lambda_fb385d3da700c9147fc39e65dd577a8c>@@@?$__crt_seh_guarded_call@X@@QAEX$$QAV<lambda_38edbb1296d33220d7e4dd0ed76b244a>@@AAV<lambda_5ce1d447e08cb34b2473517608e21441>@@$$QAV<lambda_fb385d3da700c9147fc39e65dd577a8c>@@@Z 1003ba34 f   libucrt:per_thread_data.obj
 0001:0003aa9f       ??$?RV<lambda_6affb1475c98b40b75cdec977db92e3c>@@AAV<lambda_b8d4b9c228a6ecc3f80208dbb4b4a104>@@V<lambda_608742c3c92a14382c1684fc64f96c88>@@@?$__crt_seh_guarded_call@X@@QAEX$$QAV<lambda_6affb1475c98b40b75cdec977db92e3c>@@AAV<lambda_b8d4b9c228a6ecc3f80208dbb4b4a104>@@$$QAV<lambda_608742c3c92a14382c1684fc64f96c88>@@@Z 1003ba9f f   libucrt:per_thread_data.obj
 0001:0003aaf4       ??$?RV<lambda_a7e850c220f1c8d1e6efeecdedd162c6>@@AAV<lambda_46720907175c18b6c9d2717bc0d2d362>@@V<lambda_9048902d66e8d99359bc9897bbb930a8>@@@?$__crt_seh_guarded_call@X@@QAEX$$QAV<lambda_a7e850c220f1c8d1e6efeecdedd162c6>@@AAV<lambda_46720907175c18b6c9d2717bc0d2d362>@@$$QAV<lambda_9048902d66e8d99359bc9897bbb930a8>@@@Z 1003baf4 f   libucrt:per_thread_data.obj
 0001:0003ab4e       ?construct_ptd@@YAXQAU__acrt_ptd@@QAPAU__crt_locale_data@@@Z 1003bb4e f   libucrt:per_thread_data.obj
 0001:0003abe7       ?destroy_fls@@YGXPAX@Z     1003bbe7 f   libucrt:per_thread_data.obj
 0001:0003ac08       ?destroy_ptd@@YAXQAU__acrt_ptd@@@Z 1003bc08 f   libucrt:per_thread_data.obj
 0001:0003acd5       ?replace_current_thread_locale_nolock@@YAXQAU__acrt_ptd@@QAU__crt_locale_data@@@Z 1003bcd5 f   libucrt:per_thread_data.obj
 0001:0003af9e       ?fperrraise_with@@YAXHK@Z  1003bf9e f   libucrt:_test.obj
 0001:0003b291       ?<lambda_invoker_stdcall>@<lambda_29d3c280b90b41c2ae070ffca879996a>@@CGHPA_W@Z 1003c291 f   libucrt:winapi_thunks.obj
 0001:0003b29e       ??$?RV<lambda_6b4b7855443974f2b4b77000ea21c99c>@@AAV<lambda_8f7d3b162ab39427f4fa9995c67a7986>@@V<lambda_cc9a5ba8a5d8428b9634eab82665e5dc>@@@?$__crt_seh_guarded_call@H@@QAEH$$QAV<lambda_6b4b7855443974f2b4b77000ea21c99c>@@AAV<lambda_8f7d3b162ab39427f4fa9995c67a7986>@@$$QAV<lambda_cc9a5ba8a5d8428b9634eab82665e5dc>@@@Z 1003c29e f   libucrt:winapi_thunks.obj
 0001:0003b31a       ??R<lambda_29d3c280b90b41c2ae070ffca879996a>@@QBEHPA_W@Z 1003c31a f   libucrt:winapi_thunks.obj
 0001:0003b349       ?try_get_AreFileApisANSI@@YAP6GHXZXZ 1003c349 f   libucrt:winapi_thunks.obj
 0001:0003b363       ?try_get_CompareStringEx@@YAP6GHPB_WK0H0HPAU_nlsversioninfo@@PAXJ@ZXZ 1003c363 f   libucrt:winapi_thunks.obj
 0001:0003b37d       ?try_get_EnumSystemLocalesEx@@YAP6GHP6GHPA_WKJ@ZKJPAX@ZXZ 1003c37d f   libucrt:winapi_thunks.obj
 0001:0003b397       ?try_get_GetDateFormatEx@@YAP6GHPB_WKPBU_SYSTEMTIME@@0PA_WH0@ZXZ 1003c397 f   libucrt:winapi_thunks.obj
 0001:0003b3b1       ?try_get_GetLocaleInfoEx@@YAP6GHPB_WKPA_WH@ZXZ 1003c3b1 f   libucrt:winapi_thunks.obj
 0001:0003b3cb       ?try_get_GetTimeFormatEx@@YAP6GHPB_WKPBU_SYSTEMTIME@@0PA_WH@ZXZ 1003c3cb f   libucrt:winapi_thunks.obj
 0001:0003b3e5       ?try_get_GetUserDefaultLocaleName@@YAP6GHPA_WH@ZXZ 1003c3e5 f   libucrt:winapi_thunks.obj
 0001:0003b3ff       ?try_get_IsValidLocaleName@@YAP6GHPB_W@ZXZ 1003c3ff f   libucrt:winapi_thunks.obj
 0001:0003b419       ?try_get_LCIDToLocaleName@@YAP6GHKPA_WHK@ZXZ 1003c419 f   libucrt:winapi_thunks.obj
 0001:0003b433       ?try_get_LCMapStringEx@@YAP6GHPB_WK0HPA_WHPAU_nlsversioninfo@@PAXJ@ZXZ 1003c433 f   libucrt:winapi_thunks.obj
 0001:0003b44d       ?try_get_LocaleNameToLCID@@YAP6GKPB_WK@ZXZ 1003c44d f   libucrt:winapi_thunks.obj
 0001:0003b467       ?try_get_first_available_module@@YAPAUHINSTANCE__@@QBW4module_id@?A0x391cf84c@@0@Z 1003c467 f   libucrt:winapi_thunks.obj
 0001:0003b52e       ?try_get_function@@YAPAXW4function_id@?A0x391cf84c@@QBDQBW4module_id@2@2@Z 1003c52e f   libucrt:winapi_thunks.obj
 0001:0003ba7c       ??$?RV<lambda_2866be3712abc81a800a822484c830d8>@@AAV<lambda_39ca0ed439415581b5b15c265174cece>@@V<lambda_2b24c74d71094a6cd0cb82e44167d71b>@@@?$__crt_seh_guarded_call@X@@QAEX$$QAV<lambda_2866be3712abc81a800a822484c830d8>@@AAV<lambda_39ca0ed439415581b5b15c265174cece>@@$$QAV<lambda_2b24c74d71094a6cd0cb82e44167d71b>@@@Z 1003ca7c f   libucrt:fflush.obj
 0001:0003bb08       ??$?RV<lambda_2cc53f568c5a2bb6f192f930a45d44ea>@@AAV<lambda_ab61a845afdef5b7c387490eaf3616ee>@@V<lambda_c2ffc0b7726aa6be21d5f0026187e748>@@@?$__crt_seh_guarded_call@X@@QAEX$$QAV<lambda_2cc53f568c5a2bb6f192f930a45d44ea>@@AAV<lambda_ab61a845afdef5b7c387490eaf3616ee>@@$$QAV<lambda_c2ffc0b7726aa6be21d5f0026187e748>@@@Z 1003cb08 f   libucrt:fflush.obj
 0001:0003bbb4       ?common_flush_all@@YAH_N@Z 1003cbb4 f   libucrt:fflush.obj
 0001:0003bc01       ?common_flush_all_should_try_to_flush_stream@@YA_NV__crt_stdio_stream@@QAH@Z 1003cc01 f   libucrt:fflush.obj
 0001:0003bc34       ?is_stream_flushable_or_commitable@@YA_NJ@Z 1003cc34 f   libucrt:fflush.obj
 0001:0003bd4f       ?initialize_inherited_file_handles_nolock@@YAXXZ 1003cd4f f   libucrt:ioinit.obj
 0001:0003be05       ?initialize_stdio_handles_nolock@@YAXXZ 1003ce05 f   libucrt:ioinit.obj
 0001:0003bf45       ?write_double_translated_ansi_nolock@@YA?AUwrite_result@?A0x17268360@@HQBDI@Z 1003cf45 f   libucrt:write.obj
 0001:0003c2ef       ?write_double_translated_unicode_nolock@@YA?AUwrite_result@?A0x17268360@@QBDI@Z 1003d2ef f   libucrt:write.obj
 0001:0003c357       ?write_requires_double_translation_nolock@@YA_NH@Z 1003d357 f   libucrt:write.obj
 0001:0003c3c8       ?write_text_ansi_nolock@@YA?AUwrite_result@?A0x17268360@@HQBDI@Z 1003d3c8 f   libucrt:write.obj
 0001:0003c4a3       ?write_text_utf16le_nolock@@YA?AUwrite_result@?A0x17268360@@HQBDI@Z 1003d4a3 f   libucrt:write.obj
 0001:0003c58c       ?write_text_utf8_nolock@@YA?AUwrite_result@?A0x17268360@@HQBDI@Z 1003d58c f   libucrt:write.obj
 0001:0003cd9a       ?fp_format_a@@YAHQBNPADIQADIH_NIQAU__crt_locale_pointers@@@Z 1003dd9a f   libucrt:cvt.obj
 0001:0003d0b3       ?fp_format_e@@YAHQBNQADI1IH_NIQAU__crt_locale_pointers@@@Z 1003e0b3 f   libucrt:cvt.obj
 0001:0003d155       ?fp_format_e_internal@@YAHQADIH_NIQAU_strflt@@1QAU__crt_locale_pointers@@@Z 1003e155 f   libucrt:cvt.obj
 0001:0003d29d       ?fp_format_f@@YAHQBNQADI1IHQAU__crt_locale_pointers@@@Z 1003e29d f   libucrt:cvt.obj
 0001:0003d328       ?fp_format_f_internal@@YAHQADIHQAU_strflt@@_NQAU__crt_locale_pointers@@@Z 1003e328 f   libucrt:cvt.obj
 0001:0003d3f9       ?fp_format_g@@YAHQBNQADI1IH_NIQAU__crt_locale_pointers@@@Z 1003e3f9 f   libucrt:cvt.obj
 0001:0003d4ba       ?fp_format_nan_or_infinity@@YAHW4__acrt_fp_class@@_NPADI1@Z 1003e4ba f   libucrt:cvt.obj
 0001:0003d54f       ?shift_bytes@@YAXQADI0H@Z  1003e54f f   libucrt:cvt.obj
 0001:0003d6d3       _no_op_initialize          1003e6d3 f   libucrt:wsetlocale.obj
 0001:0003d6d6       ??$?RV<lambda_135d2772fca65dc1248eeaa1b56e886a>@@AAV<lambda_2a444430fde8c29194d880d93eed5e8f>@@AAV<lambda_8dff2cf36a5417162780cd64fa2883ef>@@@?$__crt_seh_guarded_call@X@@QAEX$$QAV<lambda_135d2772fca65dc1248eeaa1b56e886a>@@AAV<lambda_2a444430fde8c29194d880d93eed5e8f>@@AAV<lambda_8dff2cf36a5417162780cd64fa2883ef>@@@Z 1003e6d6 f   libucrt:wsetlocale.obj
 0001:0003d71b       ??$?RV<lambda_4fdada1b837b2abbf20876fac97688ad>@@AAV<lambda_b57350f2640456a0859d250846f69caf>@@V<lambda_eed5e4f92b5b7d55fa22c48c484aaa54>@@@?$__crt_seh_guarded_call@X@@QAEX$$QAV<lambda_4fdada1b837b2abbf20876fac97688ad>@@AAV<lambda_b57350f2640456a0859d250846f69caf>@@$$QAV<lambda_eed5e4f92b5b7d55fa22c48c484aaa54>@@@Z 1003e71b f   libucrt:wsetlocale.obj
 0001:0003d768       ??$?RV<lambda_e5124f882df8998aaf41531e079ba474>@@AAV<lambda_3e16ef9562a7dcce91392c22ab16ea36>@@V<lambda_e25ca0880e6ef98be67edffd8c599615>@@@?$__crt_seh_guarded_call@X@@QAEX$$QAV<lambda_e5124f882df8998aaf41531e079ba474>@@AAV<lambda_3e16ef9562a7dcce91392c22ab16ea36>@@$$QAV<lambda_e25ca0880e6ef98be67edffd8c599615>@@@Z 1003e768 f   libucrt:wsetlocale.obj
 0001:0003d850       ??R<lambda_2a444430fde8c29194d880d93eed5e8f>@@QBE@XZ 1003e850 f   libucrt:wsetlocale.obj
 0001:0003d8ba       ??R<lambda_b57350f2640456a0859d250846f69caf>@@QBEXXZ 1003e8ba f   libucrt:wsetlocale.obj
 0001:0003dc83       __copytlocinfo_nolock      1003ec83 f   libucrt:wsetlocale.obj
 0001:0003dcb2       __expandlocale             1003ecb2 f   libucrt:wsetlocale.obj
 0001:0003e13c       __wsetlocale_get_all       1003f13c f   libucrt:wsetlocale.obj
 0001:0003e2d7       __wsetlocale_nolock        1003f2d7 f   libucrt:wsetlocale.obj
 0001:0003e5c7       __wsetlocale_set_cat       1003f5c7 f   libucrt:wsetlocale.obj
 0001:0003e98e       _get_default_code_page     1003f98e f   libucrt:wsetlocale.obj
 0001:0003e9bd       _parse_bcp47               1003f9bd f   libucrt:wsetlocale.obj
 0001:0003eba7       _parse_bcp47_code_page     1003fba7 f   libucrt:wsetlocale.obj
 0001:0003ebe6       _parse_bcp47_language      1003fbe6 f   libucrt:wsetlocale.obj
 0001:0003ec58       _parse_bcp47_region        1003fc58 f   libucrt:wsetlocale.obj
 0001:0003ed11       _parse_bcp47_script        1003fd11 f   libucrt:wsetlocale.obj
 0001:0003ed81       _string_is_alpha           1003fd81 f   libucrt:wsetlocale.obj
 0001:0003edbe       ?_mbstowcs_l_helper@@YAIPA_WPBDIPAU__crt_locale_pointers@@@Z 1003fdbe f   libucrt:mbstowcs.obj
 0001:0003f061       ??$common_tcsncpy_s@D@@YAHQADIQBDI@Z 10040061 f   libucrt:strncpy_s.obj
 0001:0003f610       $$000000                   10040610     libucrt:log10_pentium4.obj
 0001:0003f8a0       $$000000                   100408a0     libucrt:87tran.obj
 0001:0003fab0       $$000000                   10040ab0     libucrt:87disp.obj
 0001:0003fd10       $$000000                   10040d10     libucrt:common.obj
 0001:0003fea0       $$000000                   10040ea0     libucrt:genexcep.obj
 0001:0003ff00       $$000000                   10040f00     libucrt:pow_pentium4.obj
 0001:00040c68       ?_wcstombs_l_helper@@YAIPADPB_WIPAU__crt_locale_pointers@@@Z 10041c68 f   libucrt:wcstombs.obj
 0001:00040fdc       ?InternalGetLocaleInfoA@@YAHQAU__crt_locale_pointers@@QB_WKQADH@Z 10041fdc f   libucrt:getlocaleinfoa.obj
 0001:0004136e       ?__acrt_LCMapStringA_stat@@YAHPAU__crt_locale_pointers@@PB_WKPBDHPADHHH@Z 1004236e f   libucrt:lcmapstringa.obj
 0001:00042072       ??$?RV<lambda_cbab9ec6f41b0180b23cc171c22676b0>@@AAV<lambda_44731a7d0e6d81c3e6aa82d741081786>@@V<lambda_4b292cb8dd18144e164572427af410ab>@@@?$__crt_seh_guarded_call@P6AXH@Z@@QAEP6AXH@Z$$QAV<lambda_cbab9ec6f41b0180b23cc171c22676b0>@@AAV<lambda_44731a7d0e6d81c3e6aa82d741081786>@@$$QAV<lambda_4b292cb8dd18144e164572427af410ab>@@@Z 10043072 f   libucrt:signal.obj
 0001:000420d6       ?get_global_action_nolock@@YAPAP6AXH@ZH@Z 100430d6 f   libucrt:signal.obj
 0001:00042118       ?siglookup@@YAPAU__crt_signal_action_t@@HQAU1@@Z 10043118 f   libucrt:signal.obj
 0001:0004268b       ?<lambda_invoker_cdecl>@<lambda_838c7f62c73c983481e27c09e84b0b5d>@@CAHPBX0@Z 1004368b f   libucrt:argv_wildcards.obj
 0001:000426a3       ??$__acrt_convert_wcs_mbs_cp@_WDV<lambda_28bda7af82a03b66c1cb3803a755f95d>@@U__crt_win32_buffer_internal_dynamic_resizing@@@@YAHQB_WAAV?$__crt_win32_buffer@DU__crt_win32_buffer_internal_dynamic_resizing@@@@ABV<lambda_28bda7af82a03b66c1cb3803a755f95d>@@I@Z 100436a3 f   libucrt:argv_wildcards.obj
 0001:00042772       ??$common_expand_argv_wildcards@D@@YAHQAPADQAPAPAD@Z 10043772 f   libucrt:argv_wildcards.obj
 0001:00042961       ??$copy_and_add_argument_to_buffer@D@@YAHQBD0IAAV?$argument_list@D@?A0x5f5c8891@@@Z 10043961 f   libucrt:argv_wildcards.obj
 0001:00042a12       ??$expand_argument_wildcards@D@@YAHQAD0AAV?$argument_list@D@?A0x5f5c8891@@@Z 10043a12 f   libucrt:argv_wildcards.obj
 0001:00042ce4       ?expand_if_necessary@?$argument_list@D@?A0x5f5c8891@@AAEHXZ 10043ce4 f   libucrt:argv_wildcards.obj
 0001:00042d76       ??$__acrt_convert_wcs_mbs_cp@_WDV<lambda_0fec1a7b3f42a53036604e18c2d5e07e>@@U__crt_win32_buffer_no_resizing@@@@YAHQB_WAAV?$__crt_win32_buffer@DU__crt_win32_buffer_no_resizing@@@@ABV<lambda_0fec1a7b3f42a53036604e18c2d5e07e>@@I@Z 10043d76 f   libucrt:getmodulefilenamea.obj
 0001:00042ede       ??$?RV<lambda_ceb1ee4838e85a9d631eb091e2fbe199>@@AAV<lambda_ae742caa10f662c28703da3d2ea5e57e>@@V<lambda_cd08b5d6af4937fe54fc07d0c9bf6b37>@@@?$__crt_seh_guarded_call@X@@QAEX$$QAV<lambda_ceb1ee4838e85a9d631eb091e2fbe199>@@AAV<lambda_ae742caa10f662c28703da3d2ea5e57e>@@$$QAV<lambda_cd08b5d6af4937fe54fc07d0c9bf6b37>@@@Z 10043ede f   libucrt:mbctype.obj
 0001:00042f2b       ??R<lambda_ae742caa10f662c28703da3d2ea5e57e>@@QBEXXZ 10043f2b f   libucrt:mbctype.obj
 0001:00042fae       ?CPtoLocaleName@@YAPB_WH@Z 10043fae f   libucrt:mbctype.obj
 0001:00042fec       ?getSystemCP@@YAHH@Z       10043fec f   libucrt:mbctype.obj
 0001:0004305d       ?setSBCS@@YAXPAU__crt_multibyte_data@@@Z 1004405d f   libucrt:mbctype.obj
 0001:000430c2       ?setSBUpLow@@YAXPAU__crt_multibyte_data@@@Z 100440c2 f   libucrt:mbctype.obj
 0001:00043243       ?setmbcp_internal@@YAHH_NQAU__acrt_ptd@@QAPAU__crt_multibyte_data@@@Z 10044243 f   libucrt:mbctype.obj
 0001:0004335c       ?update_thread_multibyte_data_internal@@YAPAU__crt_multibyte_data@@QAU__acrt_ptd@@QAPAU1@@Z 1004435c f   libucrt:mbctype.obj
 0001:0004364a       ?x_ismbbtype_l@@YAHPAU__crt_locale_pointers@@IHH@Z 1004464a f   libucrt:ismbbyte.obj
 0001:000436d2       ?find_end_of_double_null_terminated_sequence@@YAPB_WQB_W@Z 100446d2 f   libucrt:get_environment_from_os.obj
 0001:00043d2b       ?to_abstract_control@@YA?AW4__acrt_fenv_abstract_control@@W4__acrt_fenv_machine_sse_control@@@Z 10044d2b f   libucrt:_fenvutils.obj
 0001:00043de7       ?to_abstract_control@@YA?AW4__acrt_fenv_abstract_control@@W4__acrt_fenv_machine_x87_control@@@Z 10044de7 f   libucrt:_fenvutils.obj
 0001:00043ea0       ?to_machine_sse_control@@YA?AW4__acrt_fenv_machine_sse_control@@W4__acrt_fenv_abstract_control@@@Z 10044ea0 f   libucrt:_fenvutils.obj
 0001:00043f6d       ?to_machine_x87_control@@YA?AW4__acrt_fenv_machine_x87_control@@W4__acrt_fenv_abstract_control@@@Z 10044f6d f   libucrt:_fenvutils.obj
 0001:000442f0       ?GetTableIndexFromLocaleName@@YAHPB_W@Z 100452f0 f   libucrt:lcidtoname_downlevel.obj
 0001:00044511       ??$?RV<lambda_9e9de3de5fa147e2223d7db92bc10aa6>@@AAV<lambda_38ce7e780aa69e748d6df282ebc68efe>@@V<lambda_8ca6da459f0f6780f1cff60fdc3d00e5>@@@?$__crt_seh_guarded_call@H@@QAEH$$QAV<lambda_9e9de3de5fa147e2223d7db92bc10aa6>@@AAV<lambda_38ce7e780aa69e748d6df282ebc68efe>@@$$QAV<lambda_8ca6da459f0f6780f1cff60fdc3d00e5>@@@Z 10045511 f   libucrt:commit.obj
 0001:00044630       ??$common_lseek_nolock@_J@@YA_JH_JH@Z 10045630 f   libucrt:lseek.obj
 0001:000446c7       ??R<lambda_3d301b9e52f5099be73030e1f0bf487e>@@QBEIPBD@Z 100456c7 f   libucrt:mbrtowc.obj
 0001:0004646c       ?free_crt_array_internal@@YAXQAPBXI@Z 1004746c f   libucrt:inittime.obj
 0001:000464a4       ?initialize_lc_time@@YA_NQAU__crt_lc_time_data@@QAU__crt_locale_data@@@Z 100474a4 f   libucrt:inittime.obj
 0001:000468f4       ??$common_tcsncat_s@_W@@YAHQA_WIQB_WI@Z 100478f4 f   libucrt:wcsncat_s.obj
 0001:000469e6       ??$common_tcsncpy_s@_W@@YAHQA_WIQB_WI@Z 100479e6 f   libucrt:wcsncpy_s.obj
 0001:00046abc       _GetLocaleNameFromDefault  10047abc f   libucrt:get_qualified_locale.obj
 0001:00046b43       _GetLocaleNameFromLangCountry 10047b43 f   libucrt:get_qualified_locale.obj
 0001:00046bdc       _GetLocaleNameFromLanguage 10047bdc f   libucrt:get_qualified_locale.obj
 0001:00046c35       _GetPrimaryLen             10047c35 f   libucrt:get_qualified_locale.obj
 0001:00046c69       _LangCountryEnumProcEx@12  10047c69 f   libucrt:get_qualified_locale.obj
 0001:00046f49       _LanguageEnumProcEx@12     10047f49 f   libucrt:get_qualified_locale.obj
 0001:00047008       _ProcessCodePage           10048008 f   libucrt:get_qualified_locale.obj
 0001:000470fe       _TestDefaultCountry        100480fe f   libucrt:get_qualified_locale.obj
 0001:0004714b       _TranslateName             1004814b f   libucrt:get_qualified_locale.obj
 0001:000473b3       _CountryEnumProc@4         100483b3 f   libucrt:getqloc_downlevel.obj
 0001:0004745a       _GetLcidFromCountry        1004845a f   libucrt:getqloc_downlevel.obj
 0001:000474a5       _GetLcidFromLangCountry    100484a5 f   libucrt:getqloc_downlevel.obj
 0001:00047540       _GetLcidFromLanguage       10048540 f   libucrt:getqloc_downlevel.obj
 0001:0004759f       _GetPrimaryLen             1004859f f   libucrt:getqloc_downlevel.obj
 0001:000475cb       _LangCountryEnumProc@4     100485cb f   libucrt:getqloc_downlevel.obj
 0001:0004781e       _LanguageEnumProc@4        1004881e f   libucrt:getqloc_downlevel.obj
 0001:000478f3       _LcidFromHexString         100488f3 f   libucrt:getqloc_downlevel.obj
 0001:00047944       _ProcessCodePage           10048944 f   libucrt:getqloc_downlevel.obj
 0001:00047a25       _TestDefaultCountry        10048a25 f   libucrt:getqloc_downlevel.obj
 0001:00047a4a       _TestDefaultLanguage       10048a4a f   libucrt:getqloc_downlevel.obj
 0001:00047ab8       _TranslateName             10048ab8 f   libucrt:getqloc_downlevel.obj
 0001:00048180       ?swap@@YAXPAD0I@Z          10049180 f   libucrt:qsort.obj
 0001:00048610       $$000000                   10049610     libucrt:strpbrk.obj
 0001:000486f4       ?initialize_multibyte@@YAHXZ 100496f4 f   libucrt:multibyte_initializer.obj
 0001:000488c4       ??$?RV<lambda_218ce3db14220d0be481dae8ef3383b6>@@AAV<lambda_628dfdc04ba53c8bfc02c9951375f3f5>@@V<lambda_57dc472bd5c9d5f3b2cbca59b8a843ae>@@@?$__crt_seh_guarded_call@H@@QAEH$$QAV<lambda_218ce3db14220d0be481dae8ef3383b6>@@AAV<lambda_628dfdc04ba53c8bfc02c9951375f3f5>@@$$QAV<lambda_57dc472bd5c9d5f3b2cbca59b8a843ae>@@@Z 100498c4 f   libucrt:close.obj
 0001:00048c5b       ?__dcrt_lowio_initialize_console_output@@YAXXZ 10049c5b f   libucrt:initcon.obj
 0001:00048dba       ??$common_xtox@K_W@@YAHKQA_WII_N@Z 10049dba f   libucrt:xtoa.obj
 0001:00048e6d       ??$common_xtox_s@K_W@@YAHKQA_WII_N@Z 10049e6d f   libucrt:xtoa.obj
 0001:000490d0       $$000000                   1004a0d0     libucrt:_strnicm.obj
 0001:00049290       $$000000                   1004a290     LIBCMT:lldvrm.obj
 0001:00049370       $$000000                   1004a370     libvcruntime:strrchr.obj
 0001:000494b0       $$000000                   1004a4b0     libvcruntime:strchr.obj
 0001:00049660       __unwindfunclet$??$decimal_point_impl@_W@detail@v7@fmt@@YA_WVlocale_ref@012@@Z$0 1004a660 f   format.obj
 0001:00049660       __unwindfunclet$??$grouping_impl@_W@detail@v7@fmt@@YA?AV?$basic_string@DU?$char_traits@D@std@@V?$allocator@D@2@@std@@Vlocale_ref@012@@Z$0 1004a660 f   format.obj
 0001:00049660       __unwindfunclet$??$thousands_sep_impl@_W@detail@v7@fmt@@YA_WVlocale_ref@012@@Z$0 1004a660 f   format.obj
 0001:00049668       __ehhandler$??$decimal_point_impl@_W@detail@v7@fmt@@YA_WVlocale_ref@012@@Z 1004a668 f   format.obj
 0001:00049668       __ehhandler$??$grouping_impl@_W@detail@v7@fmt@@YA?AV?$basic_string@DU?$char_traits@D@std@@V?$allocator@D@2@@std@@Vlocale_ref@012@@Z 1004a668 f   format.obj
 0001:00049668       __ehhandler$??$thousands_sep_impl@_W@detail@v7@fmt@@YA_WVlocale_ref@012@@Z 1004a668 f   format.obj
 0001:00049680       __unwindfunclet$??$fallback_format@N@detail@v7@fmt@@YAXNH_NAAV?$buffer@D@012@AAH@Z$0 1004a680 f   format.obj
 0001:00049680       __unwindfunclet$??$fallback_format@O@detail@v7@fmt@@YAXOH_NAAV?$buffer@D@012@AAH@Z$0 1004a680 f   format.obj
 0001:0004968b       __unwindfunclet$??$fallback_format@N@detail@v7@fmt@@YAXNH_NAAV?$buffer@D@012@AAH@Z$1 1004a68b f   format.obj
 0001:0004968b       __unwindfunclet$??$fallback_format@O@detail@v7@fmt@@YAXOH_NAAV?$buffer@D@012@AAH@Z$1 1004a68b f   format.obj
 0001:00049696       __unwindfunclet$??$fallback_format@N@detail@v7@fmt@@YAXNH_NAAV?$buffer@D@012@AAH@Z$2 1004a696 f   format.obj
 0001:00049696       __unwindfunclet$??$fallback_format@O@detail@v7@fmt@@YAXOH_NAAV?$buffer@D@012@AAH@Z$2 1004a696 f   format.obj
 0001:000496a1       __unwindfunclet$??$fallback_format@N@detail@v7@fmt@@YAXNH_NAAV?$buffer@D@012@AAH@Z$3 1004a6a1 f   format.obj
 0001:000496a1       __unwindfunclet$??$fallback_format@O@detail@v7@fmt@@YAXOH_NAAV?$buffer@D@012@AAH@Z$3 1004a6a1 f   format.obj
 0001:000496ac       __ehhandler$??$fallback_format@N@detail@v7@fmt@@YAXNH_NAAV?$buffer@D@012@AAH@Z 1004a6ac f   format.obj
 0001:000496ac       __ehhandler$??$fallback_format@O@detail@v7@fmt@@YAXOH_NAAV?$buffer@D@012@AAH@Z 1004a6ac f   format.obj
 0001:000496c0       __ehhandler$??$get@Vlocale@std@@@locale_ref@detail@v7@fmt@@QBE?AVlocale@std@@XZ 1004a6c0 f   format.obj
 0001:000496d0       __unwindfunclet$??$use_facet@V?$numpunct@_W@std@@@std@@YAABV?$numpunct@_W@0@ABVlocale@0@@Z$0 1004a6d0 f   format.obj
 0001:000496d8       __unwindfunclet$??$use_facet@V?$numpunct@_W@std@@@std@@YAABV?$numpunct@_W@0@ABVlocale@0@@Z$2 1004a6d8 f   format.obj
 0001:000496e7       __unwindfunclet$??$use_facet@V?$numpunct@_W@std@@@std@@YAABV?$numpunct@_W@0@ABVlocale@0@@Z$3 1004a6e7 f   format.obj
 0001:00049700       __unwindfunclet$??$use_facet@V?$numpunct@_W@std@@@std@@YAABV?$numpunct@_W@0@ABVlocale@0@@Z$4 1004a700 f   format.obj
 0001:00049708       __unwindfunclet$??$use_facet@V?$numpunct@_W@std@@@std@@YAABV?$numpunct@_W@0@ABVlocale@0@@Z$5 1004a708 f   format.obj
 0001:00049710       __unwindfunclet$??$use_facet@V?$numpunct@_W@std@@@std@@YAABV?$numpunct@_W@0@ABVlocale@0@@Z$1 1004a710 f   format.obj
 0001:00049718       __ehhandler$??$use_facet@V?$numpunct@_W@std@@@std@@YAABV?$numpunct@_W@0@ABVlocale@0@@Z 1004a718 f   format.obj
 0001:00049730       __unwindfunclet$??0_Locinfo@std@@QAE@PBD@Z$0 1004a730 f   format.obj
 0001:00049738       __unwindfunclet$??0_Locinfo@std@@QAE@PBD@Z$1 1004a738 f   format.obj
 0001:00049743       __unwindfunclet$??0_Locinfo@std@@QAE@PBD@Z$2 1004a743 f   format.obj
 0001:0004974e       __unwindfunclet$??0_Locinfo@std@@QAE@PBD@Z$3 1004a74e f   format.obj
 0001:00049759       __unwindfunclet$??0_Locinfo@std@@QAE@PBD@Z$4 1004a759 f   format.obj
 0001:00049764       __unwindfunclet$??0_Locinfo@std@@QAE@PBD@Z$5 1004a764 f   format.obj
 0001:0004976f       __unwindfunclet$??0_Locinfo@std@@QAE@PBD@Z$6 1004a76f f   format.obj
 0001:0004977a       __ehhandler$??0_Locinfo@std@@QAE@PBD@Z 1004a77a f   format.obj
 0001:00049790       __ehhandler$??1PluginDialogBuilder@@QAE@XZ 1004a790 f   Pcfg.obj
 0001:00049790       __ehhandler$??1PluginSettings@@QAE@XZ 1004a790 f   Pcfg.obj
 0001:00049790       __ehhandler$??1_Locinfo@std@@QAE@XZ 1004a790 f   format.obj
 0001:00049790       __ehhandler$??1?$scoped_lock@VPerfThread@@@std@@QAE@XZ 1004a790 f   handles.obj
 0001:00049790       __ehhandler$??1DebugToken@@QAE@XZ 1004a790 f   handles.obj
 0001:00049790       __ehhandler$??1?$unique_ptr@UIWbemClassObject@@Ucom_closer@@@std@@QAE@XZ 1004a790 f   wmi.obj
 0001:00049790       __ehhandler$??1?$unique_ptr@UIWbemLocator@@Ucom_closer@@@std@@QAE@XZ 1004a790 f   wmi.obj
 0001:000497a0       __unwindfunclet$?on_error@error_handler@detail@v7@fmt@@QAEXPBD@Z$0 1004a7a0 f   format.obj
 0001:000497a0       __unwindfunclet$??$handle_int_type_spec@AAU?$int_writer@V?$buffer_appender@_W@detail@v7@fmt@@_WI@detail@v7@fmt@@@detail@v7@fmt@@YAXDAAU?$int_writer@V?$buffer_appender@_W@detail@v7@fmt@@_WI@012@@Z$0 1004a7a0 f   handles.obj
 0001:000497a0       __unwindfunclet$?write@?$arg_formatter_base@V?$buffer_appender@_W@detail@v7@fmt@@_WUerror_handler@234@@detail@v7@fmt@@IAEXPB_W@Z$0 1004a7a0 f   handles.obj
 0001:000497a8       __ehhandler$?on_error@error_handler@detail@v7@fmt@@QAEXPBD@Z 1004a7a8 f   format.obj
 0001:000497a8       __ehhandler$??$handle_int_type_spec@AAU?$int_writer@V?$buffer_appender@_W@detail@v7@fmt@@_WI@detail@v7@fmt@@@detail@v7@fmt@@YAXDAAU?$int_writer@V?$buffer_appender@_W@detail@v7@fmt@@_WI@012@@Z 1004a7a8 f   handles.obj
 0001:000497a8       __ehhandler$?write@?$arg_formatter_base@V?$buffer_appender@_W@detail@v7@fmt@@_WUerror_handler@234@@detail@v7@fmt@@IAEXPB_W@Z 1004a7a8 f   handles.obj
 0001:000497c0       __unwindfunclet$?square@bigint@detail@v7@fmt@@QAEXXZ$0 1004a7c0 f   format.obj
 0001:000497cb       __ehhandler$?square@bigint@detail@v7@fmt@@QAEXXZ 1004a7cb f   format.obj
 0001:000497e0       __unwindfunclet$??$handle_int_type_spec@AAU?$int_writer@V?$buffer_appender@_W@detail@v7@fmt@@_W_K@detail@v7@fmt@@@detail@v7@fmt@@YAXDAAU?$int_writer@V?$buffer_appender@_W@detail@v7@fmt@@_W_K@012@@Z$0 1004a7e0 f   handles.obj
 0001:000497e0       __unwindfunclet$??$visit_format_arg@U?$default_arg_formatter@V?$buffer_appender@_W@detail@v7@fmt@@_W@detail@v7@fmt@@V?$basic_format_context@V?$buffer_appender@_W@detail@v7@fmt@@_W@34@@v7@fmt@@YA?AV?$buffer_appender@_W@detail@01@$$QAU?$default_arg_formatter@V?$buffer_appender@_W@detail@v7@fmt@@_W@301@ABV?$basic_format_arg@V?$basic_format_context@V?$buffer_appender@_W@detail@v7@fmt@@_W@v7@fmt@@@01@@Z$3 1004a7e0 f   handles.obj
 0001:000497e8       __ehhandler$??$handle_int_type_spec@AAU?$int_writer@V?$buffer_appender@_W@detail@v7@fmt@@_W_K@detail@v7@fmt@@@detail@v7@fmt@@YAXDAAU?$int_writer@V?$buffer_appender@_W@detail@v7@fmt@@_W_K@012@@Z 1004a7e8 f   handles.obj
 0001:000497e8       __ehhandler$??$visit_format_arg@U?$default_arg_formatter@V?$buffer_appender@_W@detail@v7@fmt@@_W@detail@v7@fmt@@V?$basic_format_context@V?$buffer_appender@_W@detail@v7@fmt@@_W@34@@v7@fmt@@YA?AV?$buffer_appender@_W@detail@01@$$QAU?$default_arg_formatter@V?$buffer_appender@_W@detail@v7@fmt@@_W@301@ABV?$basic_format_arg@V?$basic_format_context@V?$buffer_appender@_W@detail@v7@fmt@@_W@v7@fmt@@@01@@Z 1004a7e8 f   handles.obj
 0001:00049800       __unwindfunclet$??$vformat@_W$0A@@detail@v7@fmt@@YA?AV?$basic_string@_WU?$char_traits@_W@std@@V?$allocator@_W@2@@std@@V?$basic_string_view@_W@12@V?$basic_format_args@V?$basic_format_context@V?$buffer_appender@_W@detail@v7@fmt@@_W@v7@fmt@@@12@@Z$0 1004a800 f   handles.obj
 0001:0004980b       __ehhandler$??$vformat@_W$0A@@detail@v7@fmt@@YA?AV?$basic_string@_WU?$char_traits@_W@std@@V?$allocator@_W@2@@std@@V?$basic_string_view@_W@12@V?$basic_format_args@V?$basic_format_context@V?$buffer_appender@_W@detail@v7@fmt@@_W@v7@fmt@@@12@@Z 1004a80b f   handles.obj
 0001:00049820       __unwindfunclet$??$write@_WV?$buffer_appender@_W@detail@v7@fmt@@M$0A@@detail@v7@fmt@@YA?AV?$buffer_appender@_W@012@V3012@MU?$basic_format_specs@_W@12@Vlocale_ref@012@@Z$0 1004a820 f   handles.obj
 0001:0004982b       __unwindfunclet$??$write@_WV?$buffer_appender@_W@detail@v7@fmt@@M$0A@@detail@v7@fmt@@YA?AV?$buffer_appender@_W@012@V3012@MU?$basic_format_specs@_W@12@Vlocale_ref@012@@Z$1 1004a82b f   handles.obj
 0001:00049833       __ehhandler$??$write@_WV?$buffer_appender@_W@detail@v7@fmt@@M$0A@@detail@v7@fmt@@YA?AV?$buffer_appender@_W@012@V3012@MU?$basic_format_specs@_W@12@Vlocale_ref@012@@Z 1004a833 f   handles.obj
 0001:00049840       __unwindfunclet$??$write@_WV?$buffer_appender@_W@detail@v7@fmt@@N$0A@@detail@v7@fmt@@YA?AV?$buffer_appender@_W@012@V3012@NU?$basic_format_specs@_W@12@Vlocale_ref@012@@Z$0 1004a840 f   handles.obj
 0001:00049840       __unwindfunclet$??$write@_WV?$buffer_appender@_W@detail@v7@fmt@@O$0A@@detail@v7@fmt@@YA?AV?$buffer_appender@_W@012@V3012@OU?$basic_format_specs@_W@12@Vlocale_ref@012@@Z$0 1004a840 f   handles.obj
 0001:0004984b       __unwindfunclet$??$write@_WV?$buffer_appender@_W@detail@v7@fmt@@N$0A@@detail@v7@fmt@@YA?AV?$buffer_appender@_W@012@V3012@NU?$basic_format_specs@_W@12@Vlocale_ref@012@@Z$1 1004a84b f   handles.obj
 0001:0004984b       __unwindfunclet$??$write@_WV?$buffer_appender@_W@detail@v7@fmt@@O$0A@@detail@v7@fmt@@YA?AV?$buffer_appender@_W@012@V3012@OU?$basic_format_specs@_W@12@Vlocale_ref@012@@Z$1 1004a84b f   handles.obj
 0001:00049853       __ehhandler$??$write@_WV?$buffer_appender@_W@detail@v7@fmt@@N$0A@@detail@v7@fmt@@YA?AV?$buffer_appender@_W@012@V3012@NU?$basic_format_specs@_W@12@Vlocale_ref@012@@Z 1004a853 f   handles.obj
 0001:00049853       __ehhandler$??$write@_WV?$buffer_appender@_W@detail@v7@fmt@@O$0A@@detail@v7@fmt@@YA?AV?$buffer_appender@_W@012@V3012@OU?$basic_format_specs@_W@12@Vlocale_ref@012@@Z 1004a853 f   handles.obj
 0001:00049860       __unwindfunclet$??R<lambda_c3630acb37279cf92411e07a2b271fdf>@@QBE?AV?$basic_string@_WU?$char_traits@_W@std@@V?$allocator@_W@2@@std@@XZ$1 1004a860 f   handles.obj
 0001:00049868       __unwindfunclet$??R<lambda_c3630acb37279cf92411e07a2b271fdf>@@QBE?AV?$basic_string@_WU?$char_traits@_W@std@@V?$allocator@_W@2@@std@@XZ$2 1004a868 f   handles.obj
 0001:00049870       __unwindfunclet$??R<lambda_c3630acb37279cf92411e07a2b271fdf>@@QBE?AV?$basic_string@_WU?$char_traits@_W@std@@V?$allocator@_W@2@@std@@XZ$3 1004a870 f   handles.obj
 0001:00049878       __ehhandler$??R<lambda_c3630acb37279cf92411e07a2b271fdf>@@QBE?AV?$basic_string@_WU?$char_traits@_W@std@@V?$allocator@_W@2@@std@@XZ 1004a878 f   handles.obj
 0001:00049890       __unwindfunclet$?GetNameByType@@YA?AV?$basic_string@_WU?$char_traits@_W@std@@V?$allocator@_W@2@@std@@PAXGPAVPerfThread@@@Z$1 1004a890 f   handles.obj
 0001:00049898       __unwindfunclet$?GetNameByType@@YA?AV?$basic_string@_WU?$char_traits@_W@std@@V?$allocator@_W@2@@std@@PAXGPAVPerfThread@@@Z$12 1004a898 f   handles.obj
 0001:000498a0       __unwindfunclet$?GetNameByType@@YA?AV?$basic_string@_WU?$char_traits@_W@std@@V?$allocator@_W@2@@std@@PAXGPAVPerfThread@@@Z$14 1004a8a0 f   handles.obj
 0001:000498a8       __unwindfunclet$?GetNameByType@@YA?AV?$basic_string@_WU?$char_traits@_W@std@@V?$allocator@_W@2@@std@@PAXGPAVPerfThread@@@Z$2 1004a8a8 f   handles.obj
 0001:000498b0       __unwindfunclet$?GetNameByType@@YA?AV?$basic_string@_WU?$char_traits@_W@std@@V?$allocator@_W@2@@std@@PAXGPAVPerfThread@@@Z$20 1004a8b0 f   handles.obj
 0001:000498be       __unwindfunclet$?GetNameByType@@YA?AV?$basic_string@_WU?$char_traits@_W@std@@V?$allocator@_W@2@@std@@PAXGPAVPerfThread@@@Z$3 1004a8be f   handles.obj
 0001:000498c6       __ehhandler$?GetNameByType@@YA?AV?$basic_string@_WU?$char_traits@_W@std@@V?$allocator@_W@2@@std@@PAXGPAVPerfThread@@@Z 1004a8c6 f   handles.obj
 0001:000498d0       __unwindfunclet$?PrintHandleInfo@@YA_NKPAX_NPAVPerfThread@@@Z$0 1004a8d0 f   handles.obj
 0001:000498d8       __unwindfunclet$?PrintHandleInfo@@YA_NKPAX_NPAVPerfThread@@@Z$2 1004a8d8 f   handles.obj
 0001:000498e0       __unwindfunclet$?PrintHandleInfo@@YA_NKPAX_NPAVPerfThread@@@Z$3 1004a8e0 f   handles.obj
 0001:000498e8       __unwindfunclet$?PrintHandleInfo@@YA_NKPAX_NPAVPerfThread@@@Z$20 1004a8e8 f   handles.obj
 0001:000498f0       __unwindfunclet$?PrintHandleInfo@@YA_NKPAX_NPAVPerfThread@@@Z$5 1004a8f0 f   handles.obj
 0001:000498f8       __unwindfunclet$?PrintHandleInfo@@YA_NKPAX_NPAVPerfThread@@@Z$6 1004a8f8 f   handles.obj
 0001:00049900       __unwindfunclet$?PrintHandleInfo@@YA_NKPAX_NPAVPerfThread@@@Z$7 1004a900 f   handles.obj
 0001:0004990b       __ehhandler$?PrintHandleInfo@@YA_NKPAX_NPAVPerfThread@@@Z 1004a90b f   handles.obj
 0001:00049920       __unwindfunclet$?duplicate_handle@@YA?AV?$unique_ptr@XUhandle_closer@@@std@@PAXK@Z$0 1004a920 f   handles.obj
 0001:00049928       __ehhandler$?duplicate_handle@@YA?AV?$unique_ptr@XUhandle_closer@@@std@@PAXK@Z 1004a928 f   handles.obj
 0001:00049940       __unwindfunclet$?on_fill@?$specs_setter@_W@detail@v7@fmt@@QAEXV?$basic_string_view@_W@34@@Z$0 1004a940 f   handles.obj
 0001:00049948       __ehhandler$?on_fill@?$specs_setter@_W@detail@v7@fmt@@QAEXV?$basic_string_view@_W@34@@Z 1004a948 f   handles.obj
 0001:00049960       __unwindfunclet$?on_num@?$int_writer@V?$buffer_appender@_W@detail@v7@fmt@@_WI@detail@v7@fmt@@QAEXXZ$0 1004a960 f   handles.obj
 0001:00049960       __unwindfunclet$?on_num@?$int_writer@V?$buffer_appender@_W@detail@v7@fmt@@_W_K@detail@v7@fmt@@QAEXXZ$0 1004a960 f   handles.obj
 0001:00049968       __unwindfunclet$?on_num@?$int_writer@V?$buffer_appender@_W@detail@v7@fmt@@_WI@detail@v7@fmt@@QAEXXZ$1 1004a968 f   handles.obj
 0001:00049968       __unwindfunclet$?on_num@?$int_writer@V?$buffer_appender@_W@detail@v7@fmt@@_W_K@detail@v7@fmt@@QAEXXZ$1 1004a968 f   handles.obj
 0001:00049973       __ehhandler$?on_num@?$int_writer@V?$buffer_appender@_W@detail@v7@fmt@@_WI@detail@v7@fmt@@QAEXXZ 1004a973 f   handles.obj
 0001:00049973       __ehhandler$?on_num@?$int_writer@V?$buffer_appender@_W@detail@v7@fmt@@_W_K@detail@v7@fmt@@QAEXXZ 1004a973 f   handles.obj
 0001:00049980       __unwindfunclet$?query_object@@YA?AV?$unique_ptr@$$BY0A@DU?$default_delete@$$BY0A@D@std@@@std@@PAXW4OBJECT_INFORMATION_CLASS@@@Z$0 1004a980 f   handles.obj
 0001:00049988       __ehhandler$?query_object@@YA?AV?$unique_ptr@$$BY0A@DU?$default_delete@$$BY0A@D@std@@@std@@PAXW4OBJECT_INFORMATION_CLASS@@@Z 1004a988 f   handles.obj
 0001:000499a0       __unwindfunclet$?Config@@YAHXZ$0 1004a9a0 f   Pcfg.obj
 0001:000499a8       __ehhandler$?Config@@YAHXZ 1004a9a8 f   Pcfg.obj
 0001:000499c0       __unwindfunclet$?Read@options@@QAEXXZ$0 1004a9c0 f   Pcfg.obj
 0001:000499c0       __unwindfunclet$?Write@options@@QBEXXZ$0 1004a9c0 f   Pcfg.obj
 0001:000499c8       __ehhandler$?Read@options@@QAEXXZ 1004a9c8 f   Pcfg.obj
 0001:000499c8       __ehhandler$?Write@options@@QBEXXZ 1004a9c8 f   Pcfg.obj
 0001:000499e0       __unwindfunclet$??$_Assign_range@PBUmode@@@?$vector@Umode@@V?$allocator@Umode@@@std@@@std@@AAEXPBUmode@@0Uforward_iterator_tag@1@@Z$0 1004a9e0 f   Pclass.obj
 0001:000499e8       __unwindfunclet$??$_Assign_range@PBUmode@@@?$vector@Umode@@V?$allocator@Umode@@@std@@@std@@AAEXPBUmode@@0Uforward_iterator_tag@1@@Z$3 1004a9e8 f   Pclass.obj
 0001:000499f0       __unwindfunclet$??$_Assign_range@PBUmode@@@?$vector@Umode@@V?$allocator@Umode@@@std@@@std@@AAEXPBUmode@@0Uforward_iterator_tag@1@@Z$4 1004a9f0 f   Pclass.obj
 0001:000499fb       __unwindfunclet$??$_Assign_range@PBUmode@@@?$vector@Umode@@V?$allocator@Umode@@@std@@@std@@AAEXPBUmode@@0Uforward_iterator_tag@1@@Z$1 1004a9fb f   Pclass.obj
 0001:00049a03       __unwindfunclet$??$_Assign_range@PBUmode@@@?$vector@Umode@@V?$allocator@Umode@@@std@@@std@@AAEXPBUmode@@0Uforward_iterator_tag@1@@Z$6 1004aa03 f   Pclass.obj
 0001:00049a0b       __unwindfunclet$??$_Assign_range@PBUmode@@@?$vector@Umode@@V?$allocator@Umode@@@std@@@std@@AAEXPBUmode@@0Uforward_iterator_tag@1@@Z$7 1004aa0b f   Pclass.obj
 0001:00049a16       __ehhandler$??$_Assign_range@PBUmode@@@?$vector@Umode@@V?$allocator@Umode@@@std@@@std@@AAEXPBUmode@@0Uforward_iterator_tag@1@@Z 1004aa16 f   Pclass.obj
 0001:00049a20       __unwindfunclet$??$_Try_emplace@ABK$$V@?$_Hash@V?$_Umap_traits@KPAUHWND__@@V?$_Uhash_compare@KU?$hash@K@std@@U?$equal_to@K@2@@std@@V?$allocator@U?$pair@$$CBKPAUHWND__@@@std@@@3@$0A@@std@@@std@@IAE?AU?$pair@PAU?$_List_node@U?$pair@$$CBKPAUHWND__@@@std@@PAX@std@@_N@1@ABK@Z$1 1004aa20 f   Pclass.obj
 0001:00049a28       __unwindfunclet$??$_Try_emplace@ABK$$V@?$_Hash@V?$_Umap_traits@KPAUHWND__@@V?$_Uhash_compare@KU?$hash@K@std@@U?$equal_to@K@2@@std@@V?$allocator@U?$pair@$$CBKPAUHWND__@@@std@@@3@$0A@@std@@@std@@IAE?AU?$pair@PAU?$_List_node@U?$pair@$$CBKPAUHWND__@@@std@@PAX@std@@_N@1@ABK@Z$0 1004aa28 f   Pclass.obj
 0001:00049a30       __ehhandler$??$_Try_emplace@ABK$$V@?$_Hash@V?$_Umap_traits@KPAUHWND__@@V?$_Uhash_compare@KU?$hash@K@std@@U?$equal_to@K@2@@std@@V?$allocator@U?$pair@$$CBKPAUHWND__@@@std@@@3@$0A@@std@@@std@@IAE?AU?$pair@PAU?$_List_node@U?$pair@$$CBKPAUHWND__@@@std@@PAX@std@@_N@1@ABK@Z 1004aa30 f   Pclass.obj
 0001:00049a40       __unwindfunclet$??$make_unique@VPerfThread@@$$V$0A@@std@@YA?AV?$unique_ptr@VPerfThread@@U?$default_delete@VPerfThread@@@std@@@0@XZ$0 1004aa40 f   Pclass.obj
 0001:00049a52       __ehhandler$??$make_unique@VPerfThread@@$$V$0A@@std@@YA?AV?$unique_ptr@VPerfThread@@U?$default_delete@VPerfThread@@@std@@@0@XZ 1004aa52 f   Pclass.obj
 0001:00049a60       __unwindfunclet$??0Plist@@QAE@XZ$0 1004aa60 f   Pclass.obj
 0001:00049a6b       __unwindfunclet$??0Plist@@QAE@XZ$1 1004aa6b f   Pclass.obj
 0001:00049a76       __unwindfunclet$??0Plist@@QAE@XZ$2 1004aa76 f   Pclass.obj
 0001:00049a81       __unwindfunclet$??0Plist@@QAE@XZ$3 1004aa81 f   Pclass.obj
 0001:00049a89       __unwindfunclet$??0Plist@@QAE@XZ$7 1004aa89 f   Pclass.obj
 0001:00049a9b       __ehhandler$??0Plist@@QAE@XZ 1004aa9b f   Pclass.obj
 0001:00049ab0       __unwindfunclet$?Compare@Plist@@QBEHPBUPluginPanelItem@@0I@Z$0 1004aab0 f   Pclass.obj
 0001:00049ab8       __ehhandler$?Compare@Plist@@QBEHPBUPluginPanelItem@@0I@Z 1004aab8 f   Pclass.obj
 0001:00049ad0       __unwindfunclet$?Connect@Plist@@QAE_NPB_W00@Z$0 1004aad0 f   Pclass.obj
 0001:00049ad8       __unwindfunclet$?Connect@Plist@@QAE_NPB_W00@Z$3 1004aad8 f   Pclass.obj
 0001:00049aea       __unwindfunclet$?Connect@Plist@@QAE_NPB_W00@Z$1 1004aaea f   Pclass.obj
 0001:00049af2       __ehhandler$?Connect@Plist@@QAE_NPB_W00@Z 1004aaf2 f   Pclass.obj
 0001:00049b00       __unwindfunclet$?ConnectWMI@Plist@@AAE_NXZ$1 1004ab00 f   Pclass.obj
 0001:00049b0f       __ehhandler$?ConnectWMI@Plist@@AAE_NXZ 1004ab0f f   Pclass.obj
 0001:00049b20       __unwindfunclet$?DeleteFiles@Plist@@QAEHPAUPluginPanelItem@@I_K@Z$0 1004ab20 f   Pclass.obj
 0001:00049b28       __unwindfunclet$?DeleteFiles@Plist@@QAEHPAUPluginPanelItem@@I_K@Z$3 1004ab28 f   Pclass.obj
 0001:00049b30       __ehhandler$?DeleteFiles@Plist@@QAEHPAUPluginPanelItem@@I_K@Z 1004ab30 f   Pclass.obj
 0001:00049b40       __unwindfunclet$?DumpNTCounters@@YAXPAXAAVPerfThread@@KK@Z$0 1004ab40 f   Pclass.obj
 0001:00049b48       __unwindfunclet$?DumpNTCounters@@YAXPAXAAVPerfThread@@KK@Z$1 1004ab48 f   Pclass.obj
 0001:00049b53       __unwindfunclet$?DumpNTCounters@@YAXPAXAAVPerfThread@@KK@Z$2 1004ab53 f   Pclass.obj
 0001:00049b5b       __unwindfunclet$?DumpNTCounters@@YAXPAXAAVPerfThread@@KK@Z$3 1004ab5b f   Pclass.obj
 0001:00049b66       __unwindfunclet$?DumpNTCounters@@YAXPAXAAVPerfThread@@KK@Z$4 1004ab66 f   Pclass.obj
 0001:00049b6e       __unwindfunclet$?DumpNTCounters@@YAXPAXAAVPerfThread@@KK@Z$5 1004ab6e f   Pclass.obj
 0001:00049b79       __ehhandler$?DumpNTCounters@@YAXPAXAAVPerfThread@@KK@Z 1004ab79 f   Pclass.obj
 0001:00049b90       __unwindfunclet$?GetFiles@Plist@@QAEHPAUPluginPanelItem@@IHPAPB_W_KAAUoptions@@@Z$0 1004ab90 f   Pclass.obj
 0001:00049b9b       __unwindfunclet$?GetFiles@Plist@@QAEHPAUPluginPanelItem@@IHPAPB_W_KAAUoptions@@@Z$1 1004ab9b f   Pclass.obj
 0001:00049ba6       __unwindfunclet$?GetFiles@Plist@@QAEHPAUPluginPanelItem@@IHPAPB_W_KAAUoptions@@@Z$2 1004aba6 f   Pclass.obj
 0001:00049bae       __unwindfunclet$?GetFiles@Plist@@QAEHPAUPluginPanelItem@@IHPAPB_W_KAAUoptions@@@Z$3 1004abae f   Pclass.obj
 0001:00049bb6       __unwindfunclet$?GetFiles@Plist@@QAEHPAUPluginPanelItem@@IHPAPB_W_KAAUoptions@@@Z$4 1004abb6 f   Pclass.obj
 0001:00049bbe       __unwindfunclet$?GetFiles@Plist@@QAEHPAUPluginPanelItem@@IHPAPB_W_KAAUoptions@@@Z$5 1004abbe f   Pclass.obj
 0001:00049bc6       __unwindfunclet$?GetFiles@Plist@@QAEHPAUPluginPanelItem@@IHPAPB_W_KAAUoptions@@@Z$6 1004abc6 f   Pclass.obj
 0001:00049bce       __unwindfunclet$?GetFiles@Plist@@QAEHPAUPluginPanelItem@@IHPAPB_W_KAAUoptions@@@Z$7 1004abce f   Pclass.obj
 0001:00049bd6       __unwindfunclet$?GetFiles@Plist@@QAEHPAUPluginPanelItem@@IHPAPB_W_KAAUoptions@@@Z$8 1004abd6 f   Pclass.obj
 0001:00049bde       __unwindfunclet$?GetFiles@Plist@@QAEHPAUPluginPanelItem@@IHPAPB_W_KAAUoptions@@@Z$9 1004abde f   Pclass.obj
 0001:00049be6       __unwindfunclet$?GetFiles@Plist@@QAEHPAUPluginPanelItem@@IHPAPB_W_KAAUoptions@@@Z$10 1004abe6 f   Pclass.obj
 0001:00049bee       __unwindfunclet$?GetFiles@Plist@@QAEHPAUPluginPanelItem@@IHPAPB_W_KAAUoptions@@@Z$11 1004abee f   Pclass.obj
 0001:00049bf6       __unwindfunclet$?GetFiles@Plist@@QAEHPAUPluginPanelItem@@IHPAPB_W_KAAUoptions@@@Z$12 1004abf6 f   Pclass.obj
 0001:00049bfe       __unwindfunclet$?GetFiles@Plist@@QAEHPAUPluginPanelItem@@IHPAPB_W_KAAUoptions@@@Z$13 1004abfe f   Pclass.obj
 0001:00049c06       __unwindfunclet$?GetFiles@Plist@@QAEHPAUPluginPanelItem@@IHPAPB_W_KAAUoptions@@@Z$14 1004ac06 f   Pclass.obj
 0001:00049c0e       __unwindfunclet$?GetFiles@Plist@@QAEHPAUPluginPanelItem@@IHPAPB_W_KAAUoptions@@@Z$15 1004ac0e f   Pclass.obj
 0001:00049c16       __unwindfunclet$?GetFiles@Plist@@QAEHPAUPluginPanelItem@@IHPAPB_W_KAAUoptions@@@Z$16 1004ac16 f   Pclass.obj
 0001:00049c1e       __unwindfunclet$?GetFiles@Plist@@QAEHPAUPluginPanelItem@@IHPAPB_W_KAAUoptions@@@Z$19 1004ac1e f   Pclass.obj
 0001:00049c26       __unwindfunclet$?GetFiles@Plist@@QAEHPAUPluginPanelItem@@IHPAPB_W_KAAUoptions@@@Z$20 1004ac26 f   Pclass.obj
 0001:00049c2e       __unwindfunclet$?GetFiles@Plist@@QAEHPAUPluginPanelItem@@IHPAPB_W_KAAUoptions@@@Z$17 1004ac2e f   Pclass.obj
 0001:00049c36       __unwindfunclet$?GetFiles@Plist@@QAEHPAUPluginPanelItem@@IHPAPB_W_KAAUoptions@@@Z$18 1004ac36 f   Pclass.obj
 0001:00049c3e       __unwindfunclet$?GetFiles@Plist@@QAEHPAUPluginPanelItem@@IHPAPB_W_KAAUoptions@@@Z$21 1004ac3e f   Pclass.obj
 0001:00049c46       __unwindfunclet$?GetFiles@Plist@@QAEHPAUPluginPanelItem@@IHPAPB_W_KAAUoptions@@@Z$22 1004ac46 f   Pclass.obj
 0001:00049c4e       __unwindfunclet$?GetFiles@Plist@@QAEHPAUPluginPanelItem@@IHPAPB_W_KAAUoptions@@@Z$23 1004ac4e f   Pclass.obj
 0001:00049c56       __unwindfunclet$?GetFiles@Plist@@QAEHPAUPluginPanelItem@@IHPAPB_W_KAAUoptions@@@Z$24 1004ac56 f   Pclass.obj
 0001:00049c5e       __unwindfunclet$?GetFiles@Plist@@QAEHPAUPluginPanelItem@@IHPAPB_W_KAAUoptions@@@Z$25 1004ac5e f   Pclass.obj
 0001:00049c69       __unwindfunclet$?GetFiles@Plist@@QAEHPAUPluginPanelItem@@IHPAPB_W_KAAUoptions@@@Z$26 1004ac69 f   Pclass.obj
 0001:00049c74       __unwindfunclet$?GetFiles@Plist@@QAEHPAUPluginPanelItem@@IHPAPB_W_KAAUoptions@@@Z$27 1004ac74 f   Pclass.obj
 0001:00049c7c       __unwindfunclet$?GetFiles@Plist@@QAEHPAUPluginPanelItem@@IHPAPB_W_KAAUoptions@@@Z$28 1004ac7c f   Pclass.obj
 0001:00049c84       __unwindfunclet$?GetFiles@Plist@@QAEHPAUPluginPanelItem@@IHPAPB_W_KAAUoptions@@@Z$29 1004ac84 f   Pclass.obj
 0001:00049c8c       __unwindfunclet$?GetFiles@Plist@@QAEHPAUPluginPanelItem@@IHPAPB_W_KAAUoptions@@@Z$30 1004ac8c f   Pclass.obj
 0001:00049c94       __unwindfunclet$?GetFiles@Plist@@QAEHPAUPluginPanelItem@@IHPAPB_W_KAAUoptions@@@Z$31 1004ac94 f   Pclass.obj
 0001:00049c9c       __unwindfunclet$?GetFiles@Plist@@QAEHPAUPluginPanelItem@@IHPAPB_W_KAAUoptions@@@Z$32 1004ac9c f   Pclass.obj
 0001:00049ca4       __unwindfunclet$?GetFiles@Plist@@QAEHPAUPluginPanelItem@@IHPAPB_W_KAAUoptions@@@Z$33 1004aca4 f   Pclass.obj
 0001:00049cac       __unwindfunclet$?GetFiles@Plist@@QAEHPAUPluginPanelItem@@IHPAPB_W_KAAUoptions@@@Z$34 1004acac f   Pclass.obj
 0001:00049cb4       __unwindfunclet$?GetFiles@Plist@@QAEHPAUPluginPanelItem@@IHPAPB_W_KAAUoptions@@@Z$35 1004acb4 f   Pclass.obj
 0001:00049cbc       __unwindfunclet$?GetFiles@Plist@@QAEHPAUPluginPanelItem@@IHPAPB_W_KAAUoptions@@@Z$36 1004acbc f   Pclass.obj
 0001:00049cc7       __unwindfunclet$?GetFiles@Plist@@QAEHPAUPluginPanelItem@@IHPAPB_W_KAAUoptions@@@Z$37 1004acc7 f   Pclass.obj
 0001:00049ccf       __unwindfunclet$?GetFiles@Plist@@QAEHPAUPluginPanelItem@@IHPAPB_W_KAAUoptions@@@Z$38 1004accf f   Pclass.obj
 0001:00049cd7       __unwindfunclet$?GetFiles@Plist@@QAEHPAUPluginPanelItem@@IHPAPB_W_KAAUoptions@@@Z$39 1004acd7 f   Pclass.obj
 0001:00049ce2       __unwindfunclet$?GetFiles@Plist@@QAEHPAUPluginPanelItem@@IHPAPB_W_KAAUoptions@@@Z$40 1004ace2 f   Pclass.obj
 0001:00049cea       __unwindfunclet$?GetFiles@Plist@@QAEHPAUPluginPanelItem@@IHPAPB_W_KAAUoptions@@@Z$41 1004acea f   Pclass.obj
 0001:00049cf2       __unwindfunclet$?GetFiles@Plist@@QAEHPAUPluginPanelItem@@IHPAPB_W_KAAUoptions@@@Z$42 1004acf2 f   Pclass.obj
 0001:00049cfa       __ehhandler$?GetFiles@Plist@@QAEHPAUPluginPanelItem@@IHPAPB_W_KAAUoptions@@@Z 1004acfa f   Pclass.obj
 0001:00049d10       __unwindfunclet$?GetFindData@Plist@@QAEHAAPAUPluginPanelItem@@AAI_K@Z$0 1004ad10 f   Pclass.obj
 0001:00049d1b       __unwindfunclet$?GetFindData@Plist@@QAEHAAPAUPluginPanelItem@@AAI_K@Z$13 1004ad1b f   Pclass.obj
 0001:00049d26       __unwindfunclet$?GetFindData@Plist@@QAEHAAPAUPluginPanelItem@@AAI_K@Z$14 1004ad26 f   Pclass.obj
 0001:00049d31       __unwindfunclet$?GetFindData@Plist@@QAEHAAPAUPluginPanelItem@@AAI_K@Z$1 1004ad31 f   Pclass.obj
 0001:00049d3c       __unwindfunclet$?GetFindData@Plist@@QAEHAAPAUPluginPanelItem@@AAI_K@Z$2 1004ad3c f   Pclass.obj
 0001:00049d44       __unwindfunclet$?GetFindData@Plist@@QAEHAAPAUPluginPanelItem@@AAI_K@Z$3 1004ad44 f   Pclass.obj
 0001:00049d4c       __unwindfunclet$?GetFindData@Plist@@QAEHAAPAUPluginPanelItem@@AAI_K@Z$4 1004ad4c f   Pclass.obj
 0001:00049d57       __unwindfunclet$?GetFindData@Plist@@QAEHAAPAUPluginPanelItem@@AAI_K@Z$5 1004ad57 f   Pclass.obj
 0001:00049d5f       __unwindfunclet$?GetFindData@Plist@@QAEHAAPAUPluginPanelItem@@AAI_K@Z$6 1004ad5f f   Pclass.obj
 0001:00049d6a       __unwindfunclet$?GetFindData@Plist@@QAEHAAPAUPluginPanelItem@@AAI_K@Z$7 1004ad6a f   Pclass.obj
 0001:00049d72       __ehhandler$?GetFindData@Plist@@QAEHAAPAUPluginPanelItem@@AAI_K@Z 1004ad72 f   Pclass.obj
 0001:00049d80       __unwindfunclet$?GetVersionInfo@Plist@@SA_NPB_WAAV?$unique_ptr@$$BY0A@DU?$default_delete@$$BY0A@D@std@@@std@@AAPB_W2@Z$1 1004ad80 f   Pclass.obj
 0001:00049d88       __unwindfunclet$?GetVersionInfo@Plist@@SA_NPB_WAAV?$unique_ptr@$$BY0A@DU?$default_delete@$$BY0A@D@std@@@std@@AAPB_W2@Z$2 1004ad88 f   Pclass.obj
 0001:00049d90       __unwindfunclet$?GetVersionInfo@Plist@@SA_NPB_WAAV?$unique_ptr@$$BY0A@DU?$default_delete@$$BY0A@D@std@@@std@@AAPB_W2@Z$4 1004ad90 f   Pclass.obj
 0001:00049d98       __ehhandler$?GetVersionInfo@Plist@@SA_NPB_WAAV?$unique_ptr@$$BY0A@DU?$default_delete@$$BY0A@D@std@@@std@@AAPB_W2@Z 1004ad98 f   Pclass.obj
 0001:00049db0       __unwindfunclet$?InitializePanelModes@Plist@@SAXXZ$0 1004adb0 f   Pclass.obj
 0001:00049dbb       __unwindfunclet$?InitializePanelModes@Plist@@SAXXZ$8 1004adbb f   Pclass.obj
 0001:00049dc6       __unwindfunclet$?InitializePanelModes@Plist@@SAXXZ$9 1004adc6 f   Pclass.obj
 0001:00049dd1       __unwindfunclet$?InitializePanelModes@Plist@@SAXXZ$17 1004add1 f   Pclass.obj
 0001:00049ddc       __unwindfunclet$?InitializePanelModes@Plist@@SAXXZ$18 1004addc f   Pclass.obj
 0001:00049de7       __unwindfunclet$?InitializePanelModes@Plist@@SAXXZ$26 1004ade7 f   Pclass.obj
 0001:00049df2       __unwindfunclet$?InitializePanelModes@Plist@@SAXXZ$27 1004adf2 f   Pclass.obj
 0001:00049dfd       __unwindfunclet$?InitializePanelModes@Plist@@SAXXZ$35 1004adfd f   Pclass.obj
 0001:00049e08       __unwindfunclet$?InitializePanelModes@Plist@@SAXXZ$36 1004ae08 f   Pclass.obj
 0001:00049e13       __unwindfunclet$?InitializePanelModes@Plist@@SAXXZ$44 1004ae13 f   Pclass.obj
 0001:00049e1e       __unwindfunclet$?InitializePanelModes@Plist@@SAXXZ$45 1004ae1e f   Pclass.obj
 0001:00049e29       __unwindfunclet$?InitializePanelModes@Plist@@SAXXZ$53 1004ae29 f   Pclass.obj
 0001:00049e34       __unwindfunclet$?InitializePanelModes@Plist@@SAXXZ$54 1004ae34 f   Pclass.obj
 0001:00049e3f       __unwindfunclet$?InitializePanelModes@Plist@@SAXXZ$62 1004ae3f f   Pclass.obj
 0001:00049e4a       __unwindfunclet$?InitializePanelModes@Plist@@SAXXZ$63 1004ae4a f   Pclass.obj
 0001:00049e55       __unwindfunclet$?InitializePanelModes@Plist@@SAXXZ$71 1004ae55 f   Pclass.obj
 0001:00049e60       __unwindfunclet$?InitializePanelModes@Plist@@SAXXZ$72 1004ae60 f   Pclass.obj
 0001:00049e6b       __unwindfunclet$?InitializePanelModes@Plist@@SAXXZ$80 1004ae6b f   Pclass.obj
 0001:00049e76       __unwindfunclet$?InitializePanelModes@Plist@@SAXXZ$81 1004ae76 f   Pclass.obj
 0001:00049e81       __unwindfunclet$?InitializePanelModes@Plist@@SAXXZ$90 1004ae81 f   Pclass.obj
 0001:00049e9a       __unwindfunclet$?InitializePanelModes@Plist@@SAXXZ$91 1004ae9a f   Pclass.obj
 0001:00049ea5       __unwindfunclet$?InitializePanelModes@Plist@@SAXXZ$99 1004aea5 f   Pclass.obj
 0001:00049eb0       __unwindfunclet$?InitializePanelModes@Plist@@SAXXZ$100 1004aeb0 f   Pclass.obj
 0001:00049ebb       __unwindfunclet$?InitializePanelModes@Plist@@SAXXZ$108 1004aebb f   Pclass.obj
 0001:00049ec6       __unwindfunclet$?InitializePanelModes@Plist@@SAXXZ$109 1004aec6 f   Pclass.obj
 0001:00049ed1       __unwindfunclet$?InitializePanelModes@Plist@@SAXXZ$117 1004aed1 f   Pclass.obj
 0001:00049edc       __unwindfunclet$?InitializePanelModes@Plist@@SAXXZ$118 1004aedc f   Pclass.obj
 0001:00049ee7       __unwindfunclet$?InitializePanelModes@Plist@@SAXXZ$126 1004aee7 f   Pclass.obj
 0001:00049ef2       __unwindfunclet$?InitializePanelModes@Plist@@SAXXZ$127 1004aef2 f   Pclass.obj
 0001:00049efd       __unwindfunclet$?InitializePanelModes@Plist@@SAXXZ$135 1004aefd f   Pclass.obj
 0001:00049f08       __unwindfunclet$?InitializePanelModes@Plist@@SAXXZ$136 1004af08 f   Pclass.obj
 0001:00049f13       __unwindfunclet$?InitializePanelModes@Plist@@SAXXZ$144 1004af13 f   Pclass.obj
 0001:00049f1e       __unwindfunclet$?InitializePanelModes@Plist@@SAXXZ$145 1004af1e f   Pclass.obj
 0001:00049f29       __unwindfunclet$?InitializePanelModes@Plist@@SAXXZ$153 1004af29 f   Pclass.obj
 0001:00049f34       __unwindfunclet$?InitializePanelModes@Plist@@SAXXZ$154 1004af34 f   Pclass.obj
 0001:00049f3f       __unwindfunclet$?InitializePanelModes@Plist@@SAXXZ$162 1004af3f f   Pclass.obj
 0001:00049f4a       __unwindfunclet$?InitializePanelModes@Plist@@SAXXZ$163 1004af4a f   Pclass.obj
 0001:00049f55       __unwindfunclet$?InitializePanelModes@Plist@@SAXXZ$171 1004af55 f   Pclass.obj
 0001:00049f60       __unwindfunclet$?InitializePanelModes@Plist@@SAXXZ$172 1004af60 f   Pclass.obj
 0001:00049f6b       __unwindfunclet$?InitializePanelModes@Plist@@SAXXZ$181 1004af6b f   Pclass.obj
 0001:00049f84       __unwindfunclet$?InitializePanelModes@Plist@@SAXXZ$182 1004af84 f   Pclass.obj
 0001:00049f8c       __unwindfunclet$?InitializePanelModes@Plist@@SAXXZ$183 1004af8c f   Pclass.obj
 0001:00049f94       __ehhandler$?InitializePanelModes@Plist@@SAXXZ 1004af94 f   Pclass.obj
 0001:00049fa0       __unwindfunclet$?PrintOwnerInfo@Plist@@AAEXPAXK@Z$0 1004afa0 f   Pclass.obj
 0001:00049fa8       __unwindfunclet$?PrintOwnerInfo@Plist@@AAEXPAXK@Z$1 1004afa8 f   Pclass.obj
 0001:00049fb3       __unwindfunclet$?PrintOwnerInfo@Plist@@AAEXPAXK@Z$2 1004afb3 f   Pclass.obj
 0001:00049fbb       __unwindfunclet$?PrintOwnerInfo@Plist@@AAEXPAXK@Z$3 1004afbb f   Pclass.obj
 0001:00049fc3       __unwindfunclet$?PrintOwnerInfo@Plist@@AAEXPAXK@Z$4 1004afc3 f   Pclass.obj
 0001:00049fcb       __unwindfunclet$?PrintOwnerInfo@Plist@@AAEXPAXK@Z$5 1004afcb f   Pclass.obj
 0001:00049fd3       __unwindfunclet$?PrintOwnerInfo@Plist@@AAEXPAXK@Z$6 1004afd3 f   Pclass.obj
 0001:00049fde       __unwindfunclet$?PrintOwnerInfo@Plist@@AAEXPAXK@Z$7 1004afde f   Pclass.obj
 0001:00049fe6       __ehhandler$?PrintOwnerInfo@Plist@@AAEXPAXK@Z 1004afe6 f   Pclass.obj
 0001:00049ff0       __unwindfunclet$?PrintTitle@@YA?AV?$basic_string@_WU?$char_traits@_W@std@@V?$allocator@_W@2@@std@@V?$basic_string_view@_WU?$char_traits@_W@std@@@2@@Z$0 1004aff0 f   Pclass.obj
 0001:00049ff8       __ehhandler$?PrintTitle@@YA?AV?$basic_string@_WU?$char_traits@_W@std@@V?$allocator@_W@2@@std@@V?$basic_string_view@_WU?$char_traits@_W@std@@@2@@Z 1004aff8 f   Pclass.obj
 0001:0004a010       __unwindfunclet$?PrintVersionInfo@Plist@@CAXPAXPB_W@Z$0 1004b010 f   Pclass.obj
 0001:0004a018       __unwindfunclet$?PrintVersionInfo@Plist@@CAXPAXPB_W@Z$1 1004b018 f   Pclass.obj
 0001:0004a020       __unwindfunclet$?PrintVersionInfo@Plist@@CAXPAXPB_W@Z$2 1004b020 f   Pclass.obj
 0001:0004a028       __unwindfunclet$?PrintVersionInfo@Plist@@CAXPAXPB_W@Z$3 1004b028 f   Pclass.obj
 0001:0004a030       __unwindfunclet$?PrintVersionInfo@Plist@@CAXPAXPB_W@Z$4 1004b030 f   Pclass.obj
 0001:0004a038       __ehhandler$?PrintVersionInfo@Plist@@CAXPAXPB_W@Z 1004b038 f   Pclass.obj
 0001:0004a050       __unwindfunclet$?ProcessEvent@Plist@@QAEHHPAX@Z$0 1004b050 f   Pclass.obj
 0001:0004a058       __ehhandler$?ProcessEvent@Plist@@QAEHHPAX@Z 1004b058 f   Pclass.obj
 0001:0004a070       __unwindfunclet$?ProcessKey@Plist@@QAEHPBU_INPUT_RECORD@@@Z$0 1004b070 f   Pclass.obj
 0001:0004a078       __unwindfunclet$?ProcessKey@Plist@@QAEHPBU_INPUT_RECORD@@@Z$4 1004b078 f   Pclass.obj
 0001:0004a083       __unwindfunclet$?ProcessKey@Plist@@QAEHPBU_INPUT_RECORD@@@Z$17 1004b083 f   Pclass.obj
 0001:0004a095       __unwindfunclet$?ProcessKey@Plist@@QAEHPBU_INPUT_RECORD@@@Z$1 1004b095 f   Pclass.obj
 0001:0004a09d       __unwindfunclet$?ProcessKey@Plist@@QAEHPBU_INPUT_RECORD@@@Z$2 1004b09d f   Pclass.obj
 0001:0004a0a8       __unwindfunclet$?ProcessKey@Plist@@QAEHPBU_INPUT_RECORD@@@Z$3 1004b0a8 f   Pclass.obj
 0001:0004a0b0       __unwindfunclet$?ProcessKey@Plist@@QAEHPBU_INPUT_RECORD@@@Z$7 1004b0b0 f   Pclass.obj
 0001:0004a0b8       __unwindfunclet$?ProcessKey@Plist@@QAEHPBU_INPUT_RECORD@@@Z$8 1004b0b8 f   Pclass.obj
 0001:0004a0c0       __unwindfunclet$?ProcessKey@Plist@@QAEHPBU_INPUT_RECORD@@@Z$9 1004b0c0 f   Pclass.obj
 0001:0004a0c8       __unwindfunclet$?ProcessKey@Plist@@QAEHPBU_INPUT_RECORD@@@Z$10 1004b0c8 f   Pclass.obj
 0001:0004a0d0       __unwindfunclet$?ProcessKey@Plist@@QAEHPBU_INPUT_RECORD@@@Z$21 1004b0d0 f   Pclass.obj
 0001:0004a0db       __unwindfunclet$?ProcessKey@Plist@@QAEHPBU_INPUT_RECORD@@@Z$11 1004b0db f   Pclass.obj
 0001:0004a0e3       __unwindfunclet$?ProcessKey@Plist@@QAEHPBU_INPUT_RECORD@@@Z$12 1004b0e3 f   Pclass.obj
 0001:0004a0eb       __unwindfunclet$?ProcessKey@Plist@@QAEHPBU_INPUT_RECORD@@@Z$13 1004b0eb f   Pclass.obj
 0001:0004a0f3       __unwindfunclet$?ProcessKey@Plist@@QAEHPBU_INPUT_RECORD@@@Z$14 1004b0f3 f   Pclass.obj
 0001:0004a10c       __unwindfunclet$?ProcessKey@Plist@@QAEHPBU_INPUT_RECORD@@@Z$15 1004b10c f   Pclass.obj
 0001:0004a128       __ehhandler$?ProcessKey@Plist@@QAEHPBU_INPUT_RECORD@@@Z 1004b128 f   Pclass.obj
 0001:0004a140       __unwindfunclet$?SavePanelModes@Plist@@SAXXZ$0 1004b140 f   Pclass.obj
 0001:0004a148       __unwindfunclet$?SavePanelModes@Plist@@SAXXZ$1 1004b148 f   Pclass.obj
 0001:0004a150       __ehhandler$?SavePanelModes@Plist@@SAXXZ 1004b150 f   Pclass.obj
 0001:0004a160       __unwindfunclet$?TranslateMode@@YA_NABV?$basic_string@_WU?$char_traits@_W@std@@V?$allocator@_W@2@@std@@AAV12@@Z$0 1004b160 f   Pclass.obj
 0001:0004a168       __ehhandler$?TranslateMode@@YA_NABV?$basic_string@_WU?$char_traits@_W@std@@V?$allocator@_W@2@@std@@AAV12@@Z 1004b168 f   Pclass.obj
 0001:0004a180       __unwindfunclet$?generate_titles@@YAXABV?$basic_string@_WU?$char_traits@_W@std@@V?$allocator@_W@2@@std@@AAUPanelMode@@@Z$0 1004b180 f   Pclass.obj
 0001:0004a188       __ehhandler$?generate_titles@@YAXABV?$basic_string@_WU?$char_traits@_W@std@@V?$allocator@_W@2@@std@@AAUPanelMode@@@Z 1004b188 f   Pclass.obj
 0001:0004a1a0       __unwindfunclet$?ui64toa_width@@YA?AV?$basic_string@_WU?$char_traits@_W@std@@V?$allocator@_W@2@@std@@_KI_N@Z$0 1004b1a0 f   Pclass.obj
 0001:0004a1a0       __unwindfunclet$?read_string@?$ipc_functions@$00@@SA?AV?$basic_string@_WU?$char_traits@_W@std@@V?$allocator@_W@2@@std@@PAXABUUNICODE_STRING_64@detail@@@Z$0 1004b1a0 f   Plist.obj
 0001:0004a1a8       __ehhandler$?ui64toa_width@@YA?AV?$basic_string@_WU?$char_traits@_W@std@@V?$allocator@_W@2@@std@@_KI_N@Z 1004b1a8 f   Pclass.obj
 0001:0004a1a8       __ehhandler$?read_string@?$ipc_functions@$00@@SA?AV?$basic_string@_WU?$char_traits@_W@std@@V?$allocator@_W@2@@std@@PAXABUUNICODE_STRING_64@detail@@@Z 1004b1a8 f   Plist.obj
 0001:0004a1c0       __unwindfunclet$?window_ex_style@@YA@PAUHWND__@@@Z$0 1004b1c0 f   Pclass.obj
 0001:0004a1c0       __unwindfunclet$?window_style@@YA@PAUHWND__@@@Z$0 1004b1c0 f   Pclass.obj
 0001:0004a1c8       __ehhandler$?window_ex_style@@YA@PAUHWND__@@@Z 1004b1c8 f   Pclass.obj
 0001:0004a1c8       __ehhandler$?window_style@@YA@PAUHWND__@@@Z 1004b1c8 f   Pclass.obj
 0001:0004a1e0       __unwindfunclet$??0PerfThread@@QAE@PB_W00@Z$14 1004b1e0 f   perfthread.obj
 0001:0004a1ee       __unwindfunclet$??0PerfThread@@QAE@PB_W00@Z$0 1004b1ee f   perfthread.obj
 0001:0004a1f9       __unwindfunclet$??0PerfThread@@QAE@PB_W00@Z$1 1004b1f9 f   perfthread.obj
 0001:0004a204       __unwindfunclet$??0PerfThread@@QAE@PB_W00@Z$2 1004b204 f   perfthread.obj
 0001:0004a20f       __unwindfunclet$??0PerfThread@@QAE@PB_W00@Z$3 1004b20f f   perfthread.obj
 0001:0004a21a       __unwindfunclet$??0PerfThread@@QAE@PB_W00@Z$4 1004b21a f   perfthread.obj
 0001:0004a225       __unwindfunclet$??0PerfThread@@QAE@PB_W00@Z$5 1004b225 f   perfthread.obj
 0001:0004a230       __unwindfunclet$??0PerfThread@@QAE@PB_W00@Z$6 1004b230 f   perfthread.obj
 0001:0004a23b       __unwindfunclet$??0PerfThread@@QAE@PB_W00@Z$7 1004b23b f   perfthread.obj
 0001:0004a246       __unwindfunclet$??0PerfThread@@QAE@PB_W00@Z$8 1004b246 f   perfthread.obj
 0001:0004a251       __unwindfunclet$??0PerfThread@@QAE@PB_W00@Z$9 1004b251 f   perfthread.obj
 0001:0004a25f       __unwindfunclet$??0PerfThread@@QAE@PB_W00@Z$10 1004b25f f   perfthread.obj
 0001:0004a26d       __unwindfunclet$??0PerfThread@@QAE@PB_W00@Z$11 1004b26d f   perfthread.obj
 0001:0004a275       __unwindfunclet$??0PerfThread@@QAE@PB_W00@Z$12 1004b275 f   perfthread.obj
 0001:0004a27d       __ehhandler$??0PerfThread@@QAE@PB_W00@Z 1004b27d f   perfthread.obj
 0001:0004a290       __unwindfunclet$?Refresh@PerfThread@@AAEXXZ$0 1004b290 f   perfthread.obj
 0001:0004a298       __unwindfunclet$?Refresh@PerfThread@@AAEXXZ$1 1004b298 f   perfthread.obj
 0001:0004a2a0       __unwindfunclet$?Refresh@PerfThread@@AAEXXZ$2 1004b2a0 f   perfthread.obj
 0001:0004a2a8       __unwindfunclet$?Refresh@PerfThread@@AAEXXZ$5 1004b2a8 f   perfthread.obj
 0001:0004a2b0       __ehhandler$?Refresh@PerfThread@@AAEXXZ 1004b2b0 f   perfthread.obj
 0001:0004a2c0       __unwindfunclet$?RefreshWMIData@PerfThread@@AAEXXZ$2 1004b2c0 f   perfthread.obj
 0001:0004a2c8       __ehhandler$?RefreshWMIData@PerfThread@@AAEXXZ 1004b2c8 f   perfthread.obj
 0001:0004a2e0       __unwindfunclet$??$print_module@PAX@@YAXQAXPAXKAAUoptions@@ABV?$function@$$A6A_NPA_WI@Z@std@@@Z$0 1004b2e0 f   Plist.obj
 0001:0004a2e8       __ehhandler$??$print_module@PAX@@YAXQAXPAXKAAUoptions@@ABV?$function@$$A6A_NPA_WI@Z@std@@@Z 1004b2e8 f   Plist.obj
 0001:0004a300       __unwindfunclet$??0?$vector@UProcessPerfData@@V?$allocator@UProcessPerfData@@@std@@@std@@QAE@ABV01@@Z$0 1004b300 f   Plist.obj
 0001:0004a308       __unwindfunclet$??0?$vector@UProcessPerfData@@V?$allocator@UProcessPerfData@@@std@@@std@@QAE@ABV01@@Z$1 1004b308 f   Plist.obj
 0001:0004a310       __unwindfunclet$??0?$vector@UProcessPerfData@@V?$allocator@UProcessPerfData@@@std@@@std@@QAE@ABV01@@Z$2 1004b310 f   Plist.obj
 0001:0004a31e       __unwindfunclet$??0?$vector@UProcessPerfData@@V?$allocator@UProcessPerfData@@@std@@@std@@QAE@ABV01@@Z$3 1004b31e f   Plist.obj
 0001:0004a32c       __unwindfunclet$??0?$vector@UProcessPerfData@@V?$allocator@UProcessPerfData@@@std@@@std@@QAE@ABV01@@Z$4 1004b32c f   Plist.obj
 0001:0004a33a       __ehhandler$??0?$vector@UProcessPerfData@@V?$allocator@UProcessPerfData@@@std@@@std@@QAE@ABV01@@Z 1004b33a f   Plist.obj
 0001:0004a350       __unwindfunclet$?GetList@@YA_NAAPAUPluginPanelItem@@AAIAAVPerfThread@@@Z$0 1004b350 f   Plist.obj
 0001:0004a358       __ehhandler$?GetList@@YA_NAAPAUPluginPanelItem@@AAIAAVPerfThread@@@Z 1004b358 f   Plist.obj
 0001:0004a370       __unwindfunclet$?GetOpenProcessData@@YAXPAXPAV?$basic_string@_WU?$char_traits@_W@std@@V?$allocator@_W@2@@std@@1111@Z$0 1004b370 f   Plist.obj
 0001:0004a370       __unwindfunclet$?is_wow64_itself@@YA_NXZ$0 1004b370 f   Plist.obj
 0001:0004a37e       __ehhandler$?GetOpenProcessData@@YAXPAXPAV?$basic_string@_WU?$char_traits@_W@std@@V?$allocator@_W@2@@std@@1111@Z 1004b37e f   Plist.obj
 0001:0004a37e       __ehhandler$?is_wow64_itself@@YA_NXZ 1004b37e f   Plist.obj
 0001:0004a390       __unwindfunclet$?KillProcess@@YA_NKPAUHWND__@@@Z$0 1004b390 f   Plist.obj
 0001:0004a398       __unwindfunclet$?KillProcess@@YA_NKPAUHWND__@@@Z$1 1004b398 f   Plist.obj
 0001:0004a3a0       __ehhandler$?KillProcess@@YA_NKPAUHWND__@@@Z 1004b3a0 f   Plist.obj
 0001:0004a3b0       __unwindfunclet$?PrintModules@?$ipc_functions@$00@@SAXPAX0AAUoptions@@@Z$0 1004b3b0 f   Plist.obj
 0001:0004a3b8       __unwindfunclet$?PrintModules@?$ipc_functions@$00@@SAXPAX0AAUoptions@@@Z$1 1004b3b8 f   Plist.obj
 0001:0004a3c0       __ehhandler$?PrintModules@?$ipc_functions@$00@@SAXPAX0AAUoptions@@@Z 1004b3c0 f   Plist.obj
 0001:0004a3d0       __unwindfunclet$?PrintModules@?$ipc_functions@$0A@@@SAXPAX0AAUoptions@@@Z$0 1004b3d0 f   Plist.obj
 0001:0004a3d8       __ehhandler$?PrintModules@?$ipc_functions@$0A@@@SAXPAX0AAUoptions@@@Z 1004b3d8 f   Plist.obj
 0001:0004a3f0       __unwindfunclet$?PrintModules@@YAXPAXKAAUoptions@@@Z$0 1004b3f0 f   Plist.obj
 0001:0004a3f8       __unwindfunclet$?PrintModules@@YAXPAXKAAUoptions@@@Z$1 1004b3f8 f   Plist.obj
 0001:0004a400       __unwindfunclet$?PrintModules@@YAXPAXKAAUoptions@@@Z$2 1004b400 f   Plist.obj
 0001:0004a408       __unwindfunclet$?PrintModules@@YAXPAXKAAUoptions@@@Z$3 1004b408 f   Plist.obj
 0001:0004a410       __ehhandler$?PrintModules@@YAXPAXKAAUoptions@@@Z 1004b410 f   Plist.obj
 0001:0004a420       __unwindfunclet$?PrintNTCurDirAndEnv@@YAXPAX0H@Z$0 1004b420 f   Plist.obj
 0001:0004a428       __unwindfunclet$?PrintNTCurDirAndEnv@@YAXPAX0H@Z$1 1004b428 f   Plist.obj
 0001:0004a430       __unwindfunclet$?PrintNTCurDirAndEnv@@YAXPAX0H@Z$7 1004b430 f   Plist.obj
 0001:0004a43e       __unwindfunclet$?PrintNTCurDirAndEnv@@YAXPAX0H@Z$2 1004b43e f   Plist.obj
 0001:0004a446       __unwindfunclet$?PrintNTCurDirAndEnv@@YAXPAX0H@Z$3 1004b446 f   Plist.obj
 0001:0004a44e       __unwindfunclet$?PrintNTCurDirAndEnv@@YAXPAX0H@Z$4 1004b44e f   Plist.obj
 0001:0004a456       __ehhandler$?PrintNTCurDirAndEnv@@YAXPAX0H@Z 1004b456 f   Plist.obj
 0001:0004a460       __unwindfunclet$?print_module_impl@@YAXQAXABV?$basic_string@_WU?$char_traits@_W@std@@V?$allocator@_W@2@@std@@KABUoptions@@ABV?$function@$$A6A_NPA_WI@Z@2@@Z$0 1004b460 f   Plist.obj
 0001:0004a468       __unwindfunclet$?print_module_impl@@YAXQAXABV?$basic_string@_WU?$char_traits@_W@std@@V?$allocator@_W@2@@std@@KABUoptions@@ABV?$function@$$A6A_NPA_WI@Z@2@@Z$1 1004b468 f   Plist.obj
 0001:0004a470       __unwindfunclet$?print_module_impl@@YAXQAXABV?$basic_string@_WU?$char_traits@_W@std@@V?$allocator@_W@2@@std@@KABUoptions@@ABV?$function@$$A6A_NPA_WI@Z@2@@Z$2 1004b470 f   Plist.obj
 0001:0004a478       __ehhandler$?print_module_impl@@YAXQAXABV?$basic_string@_WU?$char_traits@_W@std@@V?$allocator@_W@2@@std@@KABUoptions@@ABV?$function@$$A6A_NPA_WI@Z@2@@Z 1004b478 f   Plist.obj
 0001:0004a490       __unwindfunclet$?WinError@@YAHPB_W@Z$0 1004b490 f   Pmix.obj
 0001:0004a498       __unwindfunclet$?WinError@@YAHPB_W@Z$1 1004b498 f   Pmix.obj
 0001:0004a4a0       __ehhandler$?WinError@@YAHPB_W@Z 1004b4a0 f   Pmix.obj
 0001:0004a4b0       __unwindfunclet$??0WMIConnection@@QAE@XZ$0 1004b4b0 f   wmi.obj
 0001:0004a4b8       __ehhandler$??0WMIConnection@@QAE@XZ 1004b4b8 f   wmi.obj
 0001:0004a4d0       __ehhandler$??1?$ptr_setter@V?$unique_ptr@UIWbemClassObject@@Ucom_closer@@@std@@@@QAE@XZ 1004b4d0 f   wmi.obj
 0001:0004a4d0       __ehhandler$??1WMIConnection@@QAE@XZ 1004b4d0 f   wmi.obj
 0001:0004a4e0       __unwindfunclet$?Connect@WMIConnection@@QAE_NPB_W00@Z$0 1004b4e0 f   wmi.obj
 0001:0004a4e8       __unwindfunclet$?Connect@WMIConnection@@QAE_NPB_W00@Z$2 1004b4e8 f   wmi.obj
 0001:0004a4f0       __unwindfunclet$?Connect@WMIConnection@@QAE_NPB_W00@Z$3 1004b4f0 f   wmi.obj
 0001:0004a4f8       __unwindfunclet$?Connect@WMIConnection@@QAE_NPB_W00@Z$4 1004b4f8 f   wmi.obj
 0001:0004a500       __unwindfunclet$?Connect@WMIConnection@@QAE_NPB_W00@Z$5 1004b500 f   wmi.obj
 0001:0004a508       __ehhandler$?Connect@WMIConnection@@QAE_NPB_W00@Z 1004b508 f   wmi.obj
 0001:0004a520       __unwindfunclet$?ExecMethod@WMIConnection@@AAEHKPB_W0K@Z$0 1004b520 f   wmi.obj
 0001:0004a528       __unwindfunclet$?ExecMethod@WMIConnection@@AAEHKPB_W0K@Z$1 1004b528 f   wmi.obj
 0001:0004a530       __unwindfunclet$?ExecMethod@WMIConnection@@AAEHKPB_W0K@Z$2 1004b530 f   wmi.obj
 0001:0004a538       __unwindfunclet$?ExecMethod@WMIConnection@@AAEHKPB_W0K@Z$3 1004b538 f   wmi.obj
 0001:0004a540       __unwindfunclet$?ExecMethod@WMIConnection@@AAEHKPB_W0K@Z$4 1004b540 f   wmi.obj
 0001:0004a548       __unwindfunclet$?ExecMethod@WMIConnection@@AAEHKPB_W0K@Z$5 1004b548 f   wmi.obj
 0001:0004a550       __unwindfunclet$?ExecMethod@WMIConnection@@AAEHKPB_W0K@Z$6 1004b550 f   wmi.obj
 0001:0004a558       __unwindfunclet$?ExecMethod@WMIConnection@@AAEHKPB_W0K@Z$7 1004b558 f   wmi.obj
 0001:0004a560       __unwindfunclet$?ExecMethod@WMIConnection@@AAEHKPB_W0K@Z$8 1004b560 f   wmi.obj
 0001:0004a568       __unwindfunclet$?ExecMethod@WMIConnection@@AAEHKPB_W0K@Z$9 1004b568 f   wmi.obj
 0001:0004a570       __unwindfunclet$?ExecMethod@WMIConnection@@AAEHKPB_W0K@Z$10 1004b570 f   wmi.obj
 0001:0004a578       __ehhandler$?ExecMethod@WMIConnection@@AAEHKPB_W0K@Z 1004b578 f   wmi.obj
 0001:0004a590       __unwindfunclet$?GetProcessCommandLine@WMIConnection@@QAE?AV?$basic_string@_WU?$char_traits@_W@std@@V?$allocator@_W@2@@std@@K@Z$1 1004b590 f   wmi.obj
 0001:0004a590       __unwindfunclet$?GetProcessExecutablePath@WMIConnection@@QAE?AV?$basic_string@_WU?$char_traits@_W@std@@V?$allocator@_W@2@@std@@K@Z$1 1004b590 f   wmi.obj
 0001:0004a5a9       __unwindfunclet$?GetProcessCommandLine@WMIConnection@@QAE?AV?$basic_string@_WU?$char_traits@_W@std@@V?$allocator@_W@2@@std@@K@Z$2 1004b5a9 f   wmi.obj
 0001:0004a5a9       __unwindfunclet$?GetProcessExecutablePath@WMIConnection@@QAE?AV?$basic_string@_WU?$char_traits@_W@std@@V?$allocator@_W@2@@std@@K@Z$2 1004b5a9 f   wmi.obj
 0001:0004a5b1       __ehhandler$?GetProcessCommandLine@WMIConnection@@QAE?AV?$basic_string@_WU?$char_traits@_W@std@@V?$allocator@_W@2@@std@@K@Z 1004b5b1 f   wmi.obj
 0001:0004a5b1       __ehhandler$?GetProcessExecutablePath@WMIConnection@@QAE?AV?$basic_string@_WU?$char_traits@_W@std@@V?$allocator@_W@2@@std@@K@Z 1004b5b1 f   wmi.obj
 0001:0004a5c0       __unwindfunclet$?GetProcessOwner@WMIConnection@@QAE?AV?$basic_string@_WU?$char_traits@_W@std@@V?$allocator@_W@2@@std@@KPAV23@@Z$0 1004b5c0 f   wmi.obj
 0001:0004a5c0       __unwindfunclet$?GetProcessUserSid@WMIConnection@@QAE?AV?$basic_string@_WU?$char_traits@_W@std@@V?$allocator@_W@2@@std@@K@Z$0 1004b5c0 f   wmi.obj
 0001:0004a5c8       __unwindfunclet$?GetProcessOwner@WMIConnection@@QAE?AV?$basic_string@_WU?$char_traits@_W@std@@V?$allocator@_W@2@@std@@KPAV23@@Z$1 1004b5c8 f   wmi.obj
 0001:0004a5c8       __unwindfunclet$?GetProcessUserSid@WMIConnection@@QAE?AV?$basic_string@_WU?$char_traits@_W@std@@V?$allocator@_W@2@@std@@K@Z$1 1004b5c8 f   wmi.obj
 0001:0004a5d0       __unwindfunclet$?GetProcessOwner@WMIConnection@@QAE?AV?$basic_string@_WU?$char_traits@_W@std@@V?$allocator@_W@2@@std@@KPAV23@@Z$2 1004b5d0 f   wmi.obj
 0001:0004a5d0       __unwindfunclet$?GetProcessUserSid@WMIConnection@@QAE?AV?$basic_string@_WU?$char_traits@_W@std@@V?$allocator@_W@2@@std@@K@Z$2 1004b5d0 f   wmi.obj
 0001:0004a5d8       __unwindfunclet$?GetProcessOwner@WMIConnection@@QAE?AV?$basic_string@_WU?$char_traits@_W@std@@V?$allocator@_W@2@@std@@KPAV23@@Z$3 1004b5d8 f   wmi.obj
 0001:0004a5d8       __unwindfunclet$?GetProcessUserSid@WMIConnection@@QAE?AV?$basic_string@_WU?$char_traits@_W@std@@V?$allocator@_W@2@@std@@K@Z$3 1004b5d8 f   wmi.obj
 0001:0004a5e0       __unwindfunclet$?GetProcessOwner@WMIConnection@@QAE?AV?$basic_string@_WU?$char_traits@_W@std@@V?$allocator@_W@2@@std@@KPAV23@@Z$5 1004b5e0 f   wmi.obj
 0001:0004a5e0       __unwindfunclet$?GetProcessUserSid@WMIConnection@@QAE?AV?$basic_string@_WU?$char_traits@_W@std@@V?$allocator@_W@2@@std@@K@Z$5 1004b5e0 f   wmi.obj
 0001:0004a5e8       __ehhandler$?GetProcessOwner@WMIConnection@@QAE?AV?$basic_string@_WU?$char_traits@_W@std@@V?$allocator@_W@2@@std@@KPAV23@@Z 1004b5e8 f   wmi.obj
 0001:0004a5e8       __ehhandler$?GetProcessUserSid@WMIConnection@@QAE?AV?$basic_string@_WU?$char_traits@_W@std@@V?$allocator@_W@2@@std@@K@Z 1004b5e8 f   wmi.obj
 0001:0004a600       __unwindfunclet$?GetProcessPriority@WMIConnection@@QAEKK@Z$0 1004b600 f   wmi.obj
 0001:0004a600       __unwindfunclet$?GetProcessSessionId@WMIConnection@@QAEKK@Z$0 1004b600 f   wmi.obj
 0001:0004a608       __ehhandler$?GetProcessPriority@WMIConnection@@QAEKK@Z 1004b608 f   wmi.obj
 0001:0004a608       __ehhandler$?GetProcessSessionId@WMIConnection@@QAEKK@Z 1004b608 f   wmi.obj
 0001:0004a620       __unwindfunclet$?GetProcessProperty@WMIConnection@@AAE_NKPB_WABV?$function@$$A6AXABUtagVARIANT@@@Z@std@@@Z$0 1004b620 f   wmi.obj
 0001:0004a628       __unwindfunclet$?GetProcessProperty@WMIConnection@@AAE_NKPB_WABV?$function@$$A6AXABUtagVARIANT@@@Z@std@@@Z$1 1004b628 f   wmi.obj
 0001:0004a630       __unwindfunclet$?GetProcessProperty@WMIConnection@@AAE_NKPB_WABV?$function@$$A6AXABUtagVARIANT@@@Z@std@@@Z$2 1004b630 f   wmi.obj
 0001:0004a638       __ehhandler$?GetProcessProperty@WMIConnection@@AAE_NKPB_WABV?$function@$$A6AXABUtagVARIANT@@@Z@std@@@Z 1004b638 f   wmi.obj
 0001:0004a642       __unwindfunclet$?_Init@locale@std@@CAPAV_Locimp@12@_N@Z$0 1004b642 f   libcpmt:locale0.obj
 0001:0004a64a       __ehhandler$?_Init@locale@std@@CAPAV_Locimp@12@_N@Z 1004b64a f   libcpmt:locale0.obj
 0001:0004a665       __ehhandler$??1_Init_atexit@@QAE@XZ 1004b665 f   libcpmt:iosptrs.obj
 0001:0004a680       __ehhandler$?CallUnexpected@@YAXPBU_s_ESTypeList@@@Z 1004b680 f   libvcruntime:frame.obj
 0001:0004a69b       __unwindfunclet$?_wcstombs_l_helper@@YAIPADPB_WIPAU__crt_locale_pointers@@@Z$0 1004b69b f   libucrt:wcstombs.obj
 0001:0004a6a3       __ehhandler$?_wcstombs_l_helper@@YAIPADPB_WIPAU__crt_locale_pointers@@@Z 1004b6a3 f   libucrt:wcstombs.obj
 0001:0004a6d0       ??__F?m_PanelModesDataLocal@Plist@@0V?$vector@Umode@@V?$allocator@Umode@@@std@@@std@@A@@YAXXZ 1004b6d0 f   fileio.obj
 0001:0004a6e0       ??__F?m_PanelModesDataRemote@Plist@@0V?$vector@Umode@@V?$allocator@Umode@@@std@@@std@@A@@YAXXZ 1004b6e0 f   fileio.obj
 0001:0004a6f0       ??__FUserAccountID@?1??GetUserAccountID@@YA@XZ@YAXXZ 1004b6f0 f   handles.obj
 0001:0004a750       ??__FTitle@?1??GetOpenPanelInfo@Plist@@QAEXPAUOpenPanelInfo@@@Z@YAXXZ 1004b750 f   Pclass.obj
 0001:0004a7b0       ??__FhDebugToken@@YAXXZ    1004b7b0 f   Plist.obj
 0001:0004a7d0       ??__FDeleter@?1??InitializeSListHead@implementation@slist@@YGXPAT_SLIST_HEADER@@@Z@YAXXZ 1004b7d0 f   vc_crt_fix_impl.obj
 0001:0004a80d       ??__Finitlocks@std@@YAXXZ  1004b80d f   libcpmt:xlock.obj
 0001:0004a817       ??__F_Fac_tidy_reg@std@@YAXXZ 1004b817 f   libcpmt:locale0.obj
 0001:0004a821       ??__Fclassic_locale@std@@YAXXZ 1004b821 f   libcpmt:locale0.obj
 0001:0004a82b       ??__Finit_atexit@@YAXXZ    1004b82b f   libcpmt:iosptrs.obj
 0001:0004a835       ??__Finitlocks@std@@YAXXZ  1004b835 f   libcpmt:iosptrs.obj
 0001:0004a840       __ehfuncinfo$??0_Locinfo@std@@QAE@PBD@Z 1004b840     format.obj
 0001:0004a864       __unwindtable$??0_Locinfo@std@@QAE@PBD@Z 1004b864     format.obj
 0001:0004a89c       __ehfuncinfo$??1PluginDialogBuilder@@QAE@XZ 1004b89c     Pcfg.obj
 0001:0004a89c       __ehfuncinfo$??1PluginSettings@@QAE@XZ 1004b89c     Pcfg.obj
 0001:0004a89c       __ehfuncinfo$??1_Locinfo@std@@QAE@XZ 1004b89c     format.obj
 0001:0004a89c       __ehfuncinfo$??1?$scoped_lock@VPerfThread@@@std@@QAE@XZ 1004b89c     handles.obj
 0001:0004a89c       __ehfuncinfo$??1DebugToken@@QAE@XZ 1004b89c     handles.obj
 0001:0004a89c       __ehfuncinfo$??1?$unique_ptr@UIWbemClassObject@@Ucom_closer@@@std@@QAE@XZ 1004b89c     wmi.obj
 0001:0004a89c       __ehfuncinfo$??1?$unique_ptr@UIWbemLocator@@Ucom_closer@@@std@@QAE@XZ 1004b89c     wmi.obj
 0001:0004a89c       __ehfuncinfo$??1_Init_atexit@@QAE@XZ 1004b89c     libcpmt:iosptrs.obj
 0001:0004a8c0       __unwindtable$?on_error@error_handler@detail@v7@fmt@@QAEXPBD@Z 1004b8c0     format.obj
 0001:0004a8c0       __unwindtable$??$handle_int_type_spec@AAU?$int_writer@V?$buffer_appender@_W@detail@v7@fmt@@_WI@detail@v7@fmt@@@detail@v7@fmt@@YAXDAAU?$int_writer@V?$buffer_appender@_W@detail@v7@fmt@@_WI@012@@Z 1004b8c0     handles.obj
 0001:0004a8c0       __unwindtable$?write@?$arg_formatter_base@V?$buffer_appender@_W@detail@v7@fmt@@_WUerror_handler@234@@detail@v7@fmt@@IAEXPB_W@Z 1004b8c0     handles.obj
 0001:0004a8c8       __ehfuncinfo$?on_error@error_handler@detail@v7@fmt@@QAEXPBD@Z 1004b8c8     format.obj
 0001:0004a8c8       __ehfuncinfo$??$handle_int_type_spec@AAU?$int_writer@V?$buffer_appender@_W@detail@v7@fmt@@_WI@detail@v7@fmt@@@detail@v7@fmt@@YAXDAAU?$int_writer@V?$buffer_appender@_W@detail@v7@fmt@@_WI@012@@Z 1004b8c8     handles.obj
 0001:0004a8c8       __ehfuncinfo$?write@?$arg_formatter_base@V?$buffer_appender@_W@detail@v7@fmt@@_WUerror_handler@234@@detail@v7@fmt@@IAEXPB_W@Z 1004b8c8     handles.obj
 0001:0004a8ec       __unwindtable$??$decimal_point_impl@_W@detail@v7@fmt@@YA_WVlocale_ref@012@@Z 1004b8ec     format.obj
 0001:0004a8ec       __unwindtable$??$grouping_impl@_W@detail@v7@fmt@@YA?AV?$basic_string@DU?$char_traits@D@std@@V?$allocator@D@2@@std@@Vlocale_ref@012@@Z 1004b8ec     format.obj
 0001:0004a8ec       __unwindtable$??$thousands_sep_impl@_W@detail@v7@fmt@@YA_WVlocale_ref@012@@Z 1004b8ec     format.obj
 0001:0004a8f4       __ehfuncinfo$??$decimal_point_impl@_W@detail@v7@fmt@@YA_WVlocale_ref@012@@Z 1004b8f4     format.obj
 0001:0004a8f4       __ehfuncinfo$??$grouping_impl@_W@detail@v7@fmt@@YA?AV?$basic_string@DU?$char_traits@D@std@@V?$allocator@D@2@@std@@Vlocale_ref@012@@Z 1004b8f4     format.obj
 0001:0004a8f4       __ehfuncinfo$??$thousands_sep_impl@_W@detail@v7@fmt@@YA_WVlocale_ref@012@@Z 1004b8f4     format.obj
 0001:0004a918       __unwindtable$?square@bigint@detail@v7@fmt@@QAEXXZ 1004b918     format.obj
 0001:0004a928       __ehfuncinfo$?square@bigint@detail@v7@fmt@@QAEXXZ 1004b928     format.obj
 0001:0004a94c       __unwindtable$??$get@Vlocale@std@@@locale_ref@detail@v7@fmt@@QBE?AVlocale@std@@XZ 1004b94c     format.obj
 0001:0004a954       __ehfuncinfo$??$get@Vlocale@std@@@locale_ref@detail@v7@fmt@@QBE?AVlocale@std@@XZ 1004b954     format.obj
 0001:0004a978       __ehfuncinfo$??$use_facet@V?$numpunct@_W@std@@@std@@YAABV?$numpunct@_W@0@ABVlocale@0@@Z 1004b978     format.obj
 0001:0004a99c       __unwindtable$??$use_facet@V?$numpunct@_W@std@@@std@@YAABV?$numpunct@_W@0@ABVlocale@0@@Z 1004b99c     format.obj
 0001:0004a9d4       __unwindtable$??$fallback_format@N@detail@v7@fmt@@YAXNH_NAAV?$buffer@D@012@AAH@Z 1004b9d4     format.obj
 0001:0004a9d4       __unwindtable$??$fallback_format@O@detail@v7@fmt@@YAXOH_NAAV?$buffer@D@012@AAH@Z 1004b9d4     format.obj
 0001:0004a9f4       __ehfuncinfo$??$fallback_format@N@detail@v7@fmt@@YAXNH_NAAV?$buffer@D@012@AAH@Z 1004b9f4     format.obj
 0001:0004a9f4       __ehfuncinfo$??$fallback_format@O@detail@v7@fmt@@YAXOH_NAAV?$buffer@D@012@AAH@Z 1004b9f4     format.obj
 0001:0004ab00       __ehfuncinfo$?PrintHandleInfo@@YA_NKPAX_NPAVPerfThread@@@Z 1004bb00     handles.obj
 0001:0004ab24       __unwindtable$?PrintHandleInfo@@YA_NKPAX_NPAVPerfThread@@@Z 1004bb24     handles.obj
 0001:0004ab5c       __unwindtable$?query_object@@YA?AV?$unique_ptr@$$BY0A@DU?$default_delete@$$BY0A@D@std@@@std@@PAXW4OBJECT_INFORMATION_CLASS@@@Z 1004bb5c     handles.obj
 0001:0004ab64       __ehfuncinfo$?query_object@@YA?AV?$unique_ptr@$$BY0A@DU?$default_delete@$$BY0A@D@std@@@std@@PAXW4OBJECT_INFORMATION_CLASS@@@Z 1004bb64     handles.obj
 0001:0004ab88       __unwindtable$??R<lambda_c3630acb37279cf92411e07a2b271fdf>@@QBE?AV?$basic_string@_WU?$char_traits@_W@std@@V?$allocator@_W@2@@std@@XZ 1004bb88     handles.obj
 0001:0004aba0       __ehfuncinfo$??R<lambda_c3630acb37279cf92411e07a2b271fdf>@@QBE?AV?$basic_string@_WU?$char_traits@_W@std@@V?$allocator@_W@2@@std@@XZ 1004bba0     handles.obj
 0001:0004abc4       __ehfuncinfo$?GetNameByType@@YA?AV?$basic_string@_WU?$char_traits@_W@std@@V?$allocator@_W@2@@std@@PAXGPAVPerfThread@@@Z 1004bbc4     handles.obj
 0001:0004abe8       __unwindtable$?GetNameByType@@YA?AV?$basic_string@_WU?$char_traits@_W@std@@V?$allocator@_W@2@@std@@PAXGPAVPerfThread@@@Z 1004bbe8     handles.obj
 0001:0004ac20       __unwindtable$?duplicate_handle@@YA?AV?$unique_ptr@XUhandle_closer@@@std@@PAXK@Z 1004bc20     handles.obj
 0001:0004ac40       __ehfuncinfo$?duplicate_handle@@YA?AV?$unique_ptr@XUhandle_closer@@@std@@PAXK@Z 1004bc40     handles.obj
 0001:0004ac64       __unwindtable$??$vformat@_W$0A@@detail@v7@fmt@@YA?AV?$basic_string@_WU?$char_traits@_W@std@@V?$allocator@_W@2@@std@@V?$basic_string_view@_W@12@V?$basic_format_args@V?$basic_format_context@V?$buffer_appender@_W@detail@v7@fmt@@_W@v7@fmt@@@12@@Z 1004bc64     handles.obj
 0001:0004ac6c       __ehfuncinfo$??$vformat@_W$0A@@detail@v7@fmt@@YA?AV?$basic_string@_WU?$char_traits@_W@std@@V?$allocator@_W@2@@std@@V?$basic_string_view@_W@12@V?$basic_format_args@V?$basic_format_context@V?$buffer_appender@_W@detail@v7@fmt@@_W@v7@fmt@@@12@@Z 1004bc6c     handles.obj
 0001:0004ac90       __unwindtable$?on_fill@?$specs_setter@_W@detail@v7@fmt@@QAEXV?$basic_string_view@_W@34@@Z 1004bc90     handles.obj
 0001:0004ac98       __ehfuncinfo$?on_fill@?$specs_setter@_W@detail@v7@fmt@@QAEXV?$basic_string_view@_W@34@@Z 1004bc98     handles.obj
 0001:0004acbc       __unwindtable$??$handle_int_type_spec@AAU?$int_writer@V?$buffer_appender@_W@detail@v7@fmt@@_W_K@detail@v7@fmt@@@detail@v7@fmt@@YAXDAAU?$int_writer@V?$buffer_appender@_W@detail@v7@fmt@@_W_K@012@@Z 1004bcbc     handles.obj
 0001:0004acbc       __unwindtable$??$visit_format_arg@U?$default_arg_formatter@V?$buffer_appender@_W@detail@v7@fmt@@_W@detail@v7@fmt@@V?$basic_format_context@V?$buffer_appender@_W@detail@v7@fmt@@_W@34@@v7@fmt@@YA?AV?$buffer_appender@_W@detail@01@$$QAU?$default_arg_formatter@V?$buffer_appender@_W@detail@v7@fmt@@_W@301@ABV?$basic_format_arg@V?$basic_format_context@V?$buffer_appender@_W@detail@v7@fmt@@_W@v7@fmt@@@01@@Z 1004bcbc     handles.obj
 0001:0004acc4       __ehfuncinfo$??$handle_int_type_spec@AAU?$int_writer@V?$buffer_appender@_W@detail@v7@fmt@@_W_K@detail@v7@fmt@@@detail@v7@fmt@@YAXDAAU?$int_writer@V?$buffer_appender@_W@detail@v7@fmt@@_W_K@012@@Z 1004bcc4     handles.obj
 0001:0004acc4       __ehfuncinfo$??$visit_format_arg@U?$default_arg_formatter@V?$buffer_appender@_W@detail@v7@fmt@@_W@detail@v7@fmt@@V?$basic_format_context@V?$buffer_appender@_W@detail@v7@fmt@@_W@34@@v7@fmt@@YA?AV?$buffer_appender@_W@detail@01@$$QAU?$default_arg_formatter@V?$buffer_appender@_W@detail@v7@fmt@@_W@301@ABV?$basic_format_arg@V?$basic_format_context@V?$buffer_appender@_W@detail@v7@fmt@@_W@v7@fmt@@@01@@Z 1004bcc4     handles.obj
 0001:0004ace8       __unwindtable$??$write@_WV?$buffer_appender@_W@detail@v7@fmt@@M$0A@@detail@v7@fmt@@YA?AV?$buffer_appender@_W@012@V3012@MU?$basic_format_specs@_W@12@Vlocale_ref@012@@Z 1004bce8     handles.obj
 0001:0004acf8       __ehfuncinfo$??$write@_WV?$buffer_appender@_W@detail@v7@fmt@@M$0A@@detail@v7@fmt@@YA?AV?$buffer_appender@_W@012@V3012@MU?$basic_format_specs@_W@12@Vlocale_ref@012@@Z 1004bcf8     handles.obj
 0001:0004ad1c       __unwindtable$??$write@_WV?$buffer_appender@_W@detail@v7@fmt@@N$0A@@detail@v7@fmt@@YA?AV?$buffer_appender@_W@012@V3012@NU?$basic_format_specs@_W@12@Vlocale_ref@012@@Z 1004bd1c     handles.obj
 0001:0004ad1c       __unwindtable$??$write@_WV?$buffer_appender@_W@detail@v7@fmt@@O$0A@@detail@v7@fmt@@YA?AV?$buffer_appender@_W@012@V3012@OU?$basic_format_specs@_W@12@Vlocale_ref@012@@Z 1004bd1c     handles.obj
 0001:0004ad2c       __ehfuncinfo$??$write@_WV?$buffer_appender@_W@detail@v7@fmt@@N$0A@@detail@v7@fmt@@YA?AV?$buffer_appender@_W@012@V3012@NU?$basic_format_specs@_W@12@Vlocale_ref@012@@Z 1004bd2c     handles.obj
 0001:0004ad2c       __ehfuncinfo$??$write@_WV?$buffer_appender@_W@detail@v7@fmt@@O$0A@@detail@v7@fmt@@YA?AV?$buffer_appender@_W@012@V3012@OU?$basic_format_specs@_W@12@Vlocale_ref@012@@Z 1004bd2c     handles.obj
 0001:0004ad50       __unwindtable$?on_num@?$int_writer@V?$buffer_appender@_W@detail@v7@fmt@@_WI@detail@v7@fmt@@QAEXXZ 1004bd50     handles.obj
 0001:0004ad50       __unwindtable$?on_num@?$int_writer@V?$buffer_appender@_W@detail@v7@fmt@@_W_K@detail@v7@fmt@@QAEXXZ 1004bd50     handles.obj
 0001:0004ad60       __ehfuncinfo$?on_num@?$int_writer@V?$buffer_appender@_W@detail@v7@fmt@@_WI@detail@v7@fmt@@QAEXXZ 1004bd60     handles.obj
 0001:0004ad60       __ehfuncinfo$?on_num@?$int_writer@V?$buffer_appender@_W@detail@v7@fmt@@_W_K@detail@v7@fmt@@QAEXXZ 1004bd60     handles.obj
 0001:0004ad84       __unwindtable$?Read@options@@QAEXXZ 1004bd84     Pcfg.obj
 0001:0004ad84       __unwindtable$?Write@options@@QBEXXZ 1004bd84     Pcfg.obj
 0001:0004ad94       __ehfuncinfo$?Read@options@@QAEXXZ 1004bd94     Pcfg.obj
 0001:0004ad94       __ehfuncinfo$?Write@options@@QBEXXZ 1004bd94     Pcfg.obj
 0001:0004adb8       __unwindtable$?Config@@YAHXZ 1004bdb8     Pcfg.obj
 0001:0004adc8       __ehfuncinfo$?Config@@YAHXZ 1004bdc8     Pcfg.obj
 0001:0004adec       __ehfuncinfo$??0Plist@@QAE@XZ 1004bdec     Pclass.obj
 0001:0004ae10       __unwindtable$??0Plist@@QAE@XZ 1004be10     Pclass.obj
 0001:0004ae40       __unwindtable$?Connect@Plist@@QAE_NPB_W00@Z 1004be40     Pclass.obj
 0001:0004ae58       __ehfuncinfo$?Connect@Plist@@QAE_NPB_W00@Z 1004be58     Pclass.obj
 0001:0004ae7c       __ehfuncinfo$?GetFindData@Plist@@QAEHAAPAUPluginPanelItem@@AAI_K@Z 1004be7c     Pclass.obj
 0001:0004aea0       __unwindtable$?GetFindData@Plist@@QAEHAAPAUPluginPanelItem@@AAI_K@Z 1004bea0     Pclass.obj
 0001:0004af00       __ehfuncinfo$?GetFiles@Plist@@QAEHPAUPluginPanelItem@@IHPAPB_W_KAAUoptions@@@Z 1004bf00     Pclass.obj
 0001:0004af24       __unwindtable$?GetFiles@Plist@@QAEHPAUPluginPanelItem@@IHPAPB_W_KAAUoptions@@@Z 1004bf24     Pclass.obj
 0001:0004b094       __unwindtable$?DeleteFiles@Plist@@QAEHPAUPluginPanelItem@@I_K@Z 1004c094     Pclass.obj
 0001:0004b0a4       __ehfuncinfo$?DeleteFiles@Plist@@QAEHPAUPluginPanelItem@@I_K@Z 1004c0a4     Pclass.obj
 0001:0004b0c8       __unwindtable$?ProcessEvent@Plist@@QAEHHPAX@Z 1004c0c8     Pclass.obj
 0001:0004b0d8       __ehfuncinfo$?ProcessEvent@Plist@@QAEHHPAX@Z 1004c0d8     Pclass.obj
 0001:0004b0fc       __unwindtable$?Compare@Plist@@QBEHPBUPluginPanelItem@@0I@Z 1004c0fc     Pclass.obj
 0001:0004b11c       __ehfuncinfo$?Compare@Plist@@QBEHPBUPluginPanelItem@@0I@Z 1004c11c     Pclass.obj
 0001:0004b140       __ehfuncinfo$?ProcessKey@Plist@@QAEHPBU_INPUT_RECORD@@@Z 1004c140     Pclass.obj
 0001:0004b164       __unwindtable$?ProcessKey@Plist@@QAEHPBU_INPUT_RECORD@@@Z 1004c164     Pclass.obj
 0001:0004b1ec       __unwindtable$?GetVersionInfo@Plist@@SA_NPB_WAAV?$unique_ptr@$$BY0A@DU?$default_delete@$$BY0A@D@std@@@std@@AAPB_W2@Z 1004c1ec     Pclass.obj
 0001:0004b204       __ehfuncinfo$?GetVersionInfo@Plist@@SA_NPB_WAAV?$unique_ptr@$$BY0A@DU?$default_delete@$$BY0A@D@std@@@std@@AAPB_W2@Z 1004c204     Pclass.obj
 0001:0004b228       __unwindtable$?SavePanelModes@Plist@@SAXXZ 1004c228     Pclass.obj
 0001:0004b240       __ehfuncinfo$?SavePanelModes@Plist@@SAXXZ 1004c240     Pclass.obj
 0001:0004b264       __ehfuncinfo$?InitializePanelModes@Plist@@SAXXZ 1004c264     Pclass.obj
 0001:0004b288       __unwindtable$?InitializePanelModes@Plist@@SAXXZ 1004c288     Pclass.obj
 0001:0004b3e0       __ehfuncinfo$?PrintVersionInfo@Plist@@CAXPAXPB_W@Z 1004c3e0     Pclass.obj
 0001:0004b404       __unwindtable$?PrintVersionInfo@Plist@@CAXPAXPB_W@Z 1004c404     Pclass.obj
 0001:0004b42c       __ehfuncinfo$?PrintOwnerInfo@Plist@@AAEXPAXK@Z 1004c42c     Pclass.obj
 0001:0004b450       __unwindtable$?PrintOwnerInfo@Plist@@AAEXPAXK@Z 1004c450     Pclass.obj
 0001:0004b490       __unwindtable$?ConnectWMI@Plist@@AAE_NXZ 1004c490     Pclass.obj
 0001:0004b498       __ehfuncinfo$?ConnectWMI@Plist@@AAE_NXZ 1004c498     Pclass.obj
 0001:0004b4bc       __unwindtable$?ui64toa_width@@YA?AV?$basic_string@_WU?$char_traits@_W@std@@V?$allocator@_W@2@@std@@_KI_N@Z 1004c4bc     Pclass.obj
 0001:0004b4bc       __unwindtable$?read_string@?$ipc_functions@$00@@SA?AV?$basic_string@_WU?$char_traits@_W@std@@V?$allocator@_W@2@@std@@PAXABUUNICODE_STRING_64@detail@@@Z 1004c4bc     Plist.obj
 0001:0004b4c4       __ehfuncinfo$?ui64toa_width@@YA?AV?$basic_string@_WU?$char_traits@_W@std@@V?$allocator@_W@2@@std@@_KI_N@Z 1004c4c4     Pclass.obj
 0001:0004b4c4       __ehfuncinfo$?read_string@?$ipc_functions@$00@@SA?AV?$basic_string@_WU?$char_traits@_W@std@@V?$allocator@_W@2@@std@@PAXABUUNICODE_STRING_64@detail@@@Z 1004c4c4     Plist.obj
 0001:0004b4e8       __unwindtable$?PrintTitle@@YA?AV?$basic_string@_WU?$char_traits@_W@std@@V?$allocator@_W@2@@std@@V?$basic_string_view@_WU?$char_traits@_W@std@@@2@@Z 1004c4e8     Pclass.obj
 0001:0004b4f0       __ehfuncinfo$?PrintTitle@@YA?AV?$basic_string@_WU?$char_traits@_W@std@@V?$allocator@_W@2@@std@@V?$basic_string_view@_WU?$char_traits@_W@std@@@2@@Z 1004c4f0     Pclass.obj
 0001:0004b514       __unwindtable$??$make_unique@VPerfThread@@$$V$0A@@std@@YA?AV?$unique_ptr@VPerfThread@@U?$default_delete@VPerfThread@@@std@@@0@XZ 1004c514     Pclass.obj
 0001:0004b51c       __ehfuncinfo$??$make_unique@VPerfThread@@$$V$0A@@std@@YA?AV?$unique_ptr@VPerfThread@@U?$default_delete@VPerfThread@@@std@@@0@XZ 1004c51c     Pclass.obj
 0001:0004b540       __unwindtable$?TranslateMode@@YA_NABV?$basic_string@_WU?$char_traits@_W@std@@V?$allocator@_W@2@@std@@AAV12@@Z 1004c540     Pclass.obj
 0001:0004b548       __ehfuncinfo$?TranslateMode@@YA_NABV?$basic_string@_WU?$char_traits@_W@std@@V?$allocator@_W@2@@std@@AAV12@@Z 1004c548     Pclass.obj
 0001:0004b56c       __unwindtable$?generate_titles@@YAXABV?$basic_string@_WU?$char_traits@_W@std@@V?$allocator@_W@2@@std@@AAUPanelMode@@@Z 1004c56c     Pclass.obj
 0001:0004b574       __ehfuncinfo$?generate_titles@@YAXABV?$basic_string@_WU?$char_traits@_W@std@@V?$allocator@_W@2@@std@@AAUPanelMode@@@Z 1004c574     Pclass.obj
 0001:0004b598       __unwindtable$?window_ex_style@@YA@PAUHWND__@@@Z 1004c598     Pclass.obj
 0001:0004b598       __unwindtable$?window_style@@YA@PAUHWND__@@@Z 1004c598     Pclass.obj
 0001:0004b5a0       __ehfuncinfo$?window_ex_style@@YA@PAUHWND__@@@Z 1004c5a0     Pclass.obj
 0001:0004b5a0       __ehfuncinfo$?window_style@@YA@PAUHWND__@@@Z 1004c5a0     Pclass.obj
 0001:0004b5c4       __ehfuncinfo$?DumpNTCounters@@YAXPAXAAVPerfThread@@KK@Z 1004c5c4     Pclass.obj
 0001:0004b5e8       __unwindtable$?DumpNTCounters@@YAXPAXAAVPerfThread@@KK@Z 1004c5e8     Pclass.obj
 0001:0004b628       __unwindtable$??$_Try_emplace@ABK$$V@?$_Hash@V?$_Umap_traits@KPAUHWND__@@V?$_Uhash_compare@KU?$hash@K@std@@U?$equal_to@K@2@@std@@V?$allocator@U?$pair@$$CBKPAUHWND__@@@std@@@3@$0A@@std@@@std@@IAE?AU?$pair@PAU?$_List_node@U?$pair@$$CBKPAUHWND__@@@std@@PAX@std@@_N@1@ABK@Z 1004c628     Pclass.obj
 0001:0004b638       __ehfuncinfo$??$_Try_emplace@ABK$$V@?$_Hash@V?$_Umap_traits@KPAUHWND__@@V?$_Uhash_compare@KU?$hash@K@std@@U?$equal_to@K@2@@std@@V?$allocator@U?$pair@$$CBKPAUHWND__@@@std@@@3@$0A@@std@@@std@@IAE?AU?$pair@PAU?$_List_node@U?$pair@$$CBKPAUHWND__@@@std@@PAX@std@@_N@1@ABK@Z 1004c638     Pclass.obj
 0001:0004b65c       __ehfuncinfo$??$_Assign_range@PBUmode@@@?$vector@Umode@@V?$allocator@Umode@@@std@@@std@@AAEXPBUmode@@0Uforward_iterator_tag@1@@Z 1004c65c     Pclass.obj
 0001:0004b680       __unwindtable$??$_Assign_range@PBUmode@@@?$vector@Umode@@V?$allocator@Umode@@@std@@@std@@AAEXPBUmode@@0Uforward_iterator_tag@1@@Z 1004c680     Pclass.obj
 0001:0004b6b0       __ehfuncinfo$??0PerfThread@@QAE@PB_W00@Z 1004c6b0     perfthread.obj
 0001:0004b6d4       __unwindtable$??0PerfThread@@QAE@PB_W00@Z 1004c6d4     perfthread.obj
 0001:0004b744       __ehfuncinfo$?Refresh@PerfThread@@AAEXXZ 1004c744     perfthread.obj
 0001:0004b768       __unwindtable$?Refresh@PerfThread@@AAEXXZ 1004c768     perfthread.obj
 0001:0004b798       __unwindtable$?RefreshWMIData@PerfThread@@AAEXXZ 1004c798     perfthread.obj
 0001:0004b7a0       __ehfuncinfo$?RefreshWMIData@PerfThread@@AAEXXZ 1004c7a0     perfthread.obj
 0001:0004b7c4       __unwindtable$?GetList@@YA_NAAPAUPluginPanelItem@@AAIAAVPerfThread@@@Z 1004c7c4     Plist.obj
 0001:0004b7cc       __ehfuncinfo$?GetList@@YA_NAAPAUPluginPanelItem@@AAIAAVPerfThread@@@Z 1004c7cc     Plist.obj
 0001:0004b7f0       __unwindtable$?KillProcess@@YA_NKPAUHWND__@@@Z 1004c7f0     Plist.obj
 0001:0004b800       __ehfuncinfo$?KillProcess@@YA_NKPAUHWND__@@@Z 1004c800     Plist.obj
 0001:0004b824       __unwindtable$?GetOpenProcessData@@YAXPAXPAV?$basic_string@_WU?$char_traits@_W@std@@V?$allocator@_W@2@@std@@1111@Z 1004c824     Plist.obj
 0001:0004b824       __unwindtable$?is_wow64_itself@@YA_NXZ 1004c824     Plist.obj
 0001:0004b82c       __ehfuncinfo$?GetOpenProcessData@@YAXPAXPAV?$basic_string@_WU?$char_traits@_W@std@@V?$allocator@_W@2@@std@@1111@Z 1004c82c     Plist.obj
 0001:0004b82c       __ehfuncinfo$?is_wow64_itself@@YA_NXZ 1004c82c     Plist.obj
 0001:0004b850       __ehfuncinfo$?PrintNTCurDirAndEnv@@YAXPAX0H@Z 1004c850     Plist.obj
 0001:0004b874       __unwindtable$?PrintNTCurDirAndEnv@@YAXPAX0H@Z 1004c874     Plist.obj
 0001:0004b8a4       __unwindtable$?PrintModules@@YAXPAXKAAUoptions@@@Z 1004c8a4     Plist.obj
 0001:0004b8c4       __ehfuncinfo$?PrintModules@@YAXPAXKAAUoptions@@@Z 1004c8c4     Plist.obj
 0001:0004b8e8       __ehfuncinfo$??0?$vector@UProcessPerfData@@V?$allocator@UProcessPerfData@@@std@@@std@@QAE@ABV01@@Z 1004c8e8     Plist.obj
 0001:0004b90c       __unwindtable$??0?$vector@UProcessPerfData@@V?$allocator@UProcessPerfData@@@std@@@std@@QAE@ABV01@@Z 1004c90c     Plist.obj
 0001:0004b934       __unwindtable$?PrintModules@?$ipc_functions@$00@@SAXPAX0AAUoptions@@@Z 1004c934     Plist.obj
 0001:0004b944       __ehfuncinfo$?PrintModules@?$ipc_functions@$00@@SAXPAX0AAUoptions@@@Z 1004c944     Plist.obj
 0001:0004b968       __unwindtable$?PrintModules@?$ipc_functions@$0A@@@SAXPAX0AAUoptions@@@Z 1004c968     Plist.obj
 0001:0004b970       __ehfuncinfo$?PrintModules@?$ipc_functions@$0A@@@SAXPAX0AAUoptions@@@Z 1004c970     Plist.obj
 0001:0004b994       __unwindtable$?print_module_impl@@YAXQAXABV?$basic_string@_WU?$char_traits@_W@std@@V?$allocator@_W@2@@std@@KABUoptions@@ABV?$function@$$A6A_NPA_WI@Z@2@@Z 1004c994     Plist.obj
 0001:0004b9ac       __ehfuncinfo$?print_module_impl@@YAXQAXABV?$basic_string@_WU?$char_traits@_W@std@@V?$allocator@_W@2@@std@@KABUoptions@@ABV?$function@$$A6A_NPA_WI@Z@2@@Z 1004c9ac     Plist.obj
 0001:0004b9d0       __unwindtable$??$print_module@PAX@@YAXQAXPAXKAAUoptions@@ABV?$function@$$A6A_NPA_WI@Z@std@@@Z 1004c9d0     Plist.obj
 0001:0004b9d8       __ehfuncinfo$??$print_module@PAX@@YAXQAXPAXKAAUoptions@@ABV?$function@$$A6A_NPA_WI@Z@std@@@Z 1004c9d8     Plist.obj
 0001:0004b9fc       __unwindtable$?WinError@@YAHPB_W@Z 1004c9fc     Pmix.obj
 0001:0004ba0c       __ehfuncinfo$?WinError@@YAHPB_W@Z 1004ca0c     Pmix.obj
 0001:0004ba30       __unwindtable$??0WMIConnection@@QAE@XZ 1004ca30     wmi.obj
 0001:0004ba38       __ehfuncinfo$??0WMIConnection@@QAE@XZ 1004ca38     wmi.obj
 0001:0004ba5c       __unwindtable$??1?$ptr_setter@V?$unique_ptr@UIWbemClassObject@@Ucom_closer@@@std@@@@QAE@XZ 1004ca5c     wmi.obj
 0001:0004ba5c       __unwindtable$??1WMIConnection@@QAE@XZ 1004ca5c     wmi.obj
 0001:0004ba64       __ehfuncinfo$??1?$ptr_setter@V?$unique_ptr@UIWbemClassObject@@Ucom_closer@@@std@@@@QAE@XZ 1004ca64     wmi.obj
 0001:0004ba64       __ehfuncinfo$??1WMIConnection@@QAE@XZ 1004ca64     wmi.obj
 0001:0004ba88       __ehfuncinfo$?Connect@WMIConnection@@QAE_NPB_W00@Z 1004ca88     wmi.obj
 0001:0004baac       __unwindtable$?Connect@WMIConnection@@QAE_NPB_W00@Z 1004caac     wmi.obj
 0001:0004bae4       __unwindtable$?GetProcessPriority@WMIConnection@@QAEKK@Z 1004cae4     wmi.obj
 0001:0004bae4       __unwindtable$?GetProcessSessionId@WMIConnection@@QAEKK@Z 1004cae4     wmi.obj
 0001:0004baec       __ehfuncinfo$?GetProcessPriority@WMIConnection@@QAEKK@Z 1004caec     wmi.obj
 0001:0004baec       __ehfuncinfo$?GetProcessSessionId@WMIConnection@@QAEKK@Z 1004caec     wmi.obj
 0001:0004bb10       __ehfuncinfo$?GetProcessOwner@WMIConnection@@QAE?AV?$basic_string@_WU?$char_traits@_W@std@@V?$allocator@_W@2@@std@@KPAV23@@Z 1004cb10     wmi.obj
 0001:0004bb10       __ehfuncinfo$?GetProcessUserSid@WMIConnection@@QAE?AV?$basic_string@_WU?$char_traits@_W@std@@V?$allocator@_W@2@@std@@K@Z 1004cb10     wmi.obj
 0001:0004bb34       __unwindtable$?GetProcessOwner@WMIConnection@@QAE?AV?$basic_string@_WU?$char_traits@_W@std@@V?$allocator@_W@2@@std@@KPAV23@@Z 1004cb34     wmi.obj
 0001:0004bb34       __unwindtable$?GetProcessUserSid@WMIConnection@@QAE?AV?$basic_string@_WU?$char_traits@_W@std@@V?$allocator@_W@2@@std@@K@Z 1004cb34     wmi.obj
 0001:0004bb74       __unwindtable$?GetProcessCommandLine@WMIConnection@@QAE?AV?$basic_string@_WU?$char_traits@_W@std@@V?$allocator@_W@2@@std@@K@Z 1004cb74     wmi.obj
 0001:0004bb74       __unwindtable$?GetProcessExecutablePath@WMIConnection@@QAE?AV?$basic_string@_WU?$char_traits@_W@std@@V?$allocator@_W@2@@std@@K@Z 1004cb74     wmi.obj
 0001:0004bb84       __ehfuncinfo$?GetProcessCommandLine@WMIConnection@@QAE?AV?$basic_string@_WU?$char_traits@_W@std@@V?$allocator@_W@2@@std@@K@Z 1004cb84     wmi.obj
 0001:0004bb84       __ehfuncinfo$?GetProcessExecutablePath@WMIConnection@@QAE?AV?$basic_string@_WU?$char_traits@_W@std@@V?$allocator@_W@2@@std@@K@Z 1004cb84     wmi.obj
 0001:0004bba8       __ehfuncinfo$?ExecMethod@WMIConnection@@AAEHKPB_W0K@Z 1004cba8     wmi.obj
 0001:0004bbcc       __unwindtable$?ExecMethod@WMIConnection@@AAEHKPB_W0K@Z 1004cbcc     wmi.obj
 0001:0004bc6c       __ehfuncinfo$?GetProcessProperty@WMIConnection@@AAE_NKPB_WABV?$function@$$A6AXABUtagVARIANT@@@Z@std@@@Z 1004cc6c     wmi.obj
 0001:0004bc90       __unwindtable$?GetProcessProperty@WMIConnection@@AAE_NKPB_WABV?$function@$$A6AXABUtagVARIANT@@@Z@std@@@Z 1004cc90     wmi.obj
 0001:0004bdb0       __unwindtable$?_Init@locale@std@@CAPAV_Locimp@12@_N@Z 1004cdb0     libcpmt:locale0.obj
 0001:0004bdb8       __ehfuncinfo$?_Init@locale@std@@CAPAV_Locimp@12@_N@Z 1004cdb8     libcpmt:locale0.obj
 0001:0004bde0       __sehtable$___scrt_is_nonwritable_in_current_image 1004cde0     LIBCMT:utility.obj
 0001:0004be00       __sehtable$??_M@YGXPAXIIP6EX0@Z@Z 1004ce00     LIBCMT:ehvecdtr.obj
 0001:0004be20       __sehtable$?__ArrayUnwind@@YGXPAXIIP6EX0@Z@Z 1004ce20     LIBCMT:ehvecdtr.obj
 0001:0004be40       __sehtable$?dllmain_crt_process_attach@@YAHQAUHINSTANCE__@@QAX@Z 1004ce40     LIBCMT:dll_dllmain.obj
 0001:0004be60       __sehtable$?dllmain_crt_process_detach@@YAH_N@Z 1004ce60     LIBCMT:dll_dllmain.obj
 0001:0004be88       __sehtable$?dllmain_dispatch@@YAHQAUHINSTANCE__@@KQAX@Z 1004ce88     LIBCMT:dll_dllmain.obj
 0001:0004bea8       __sehtable$___DestructExceptionObject 1004cea8     libvcruntime:ehhelpers.obj
 0001:0004bec8       __sehtable$?FrameUnwindToState@__FrameHandler3@@SAXPAUEHRegistrationNode@@PAXPBU_s_FuncInfo@@H@Z 1004cec8     libvcruntime:frame.obj
 0001:0004bef0       __sehtable$?CallCatchBlock@@YAPAXPAUEHExceptionRecord@@PAUEHRegistrationNode@@PAU_CONTEXT@@PBU_s_FuncInfo@@PAXHK@Z 1004cef0     libvcruntime:frame.obj
 0001:0004bf18       __catchsym$?CallUnexpected@@YAXPBU_s_ESTypeList@@@Z$2 1004cf18     libvcruntime:frame.obj
 0001:0004bf28       __unwindtable$?CallUnexpected@@YAXPBU_s_ESTypeList@@@Z 1004cf28     libvcruntime:frame.obj
 0001:0004bf38       __tryblocktable$?CallUnexpected@@YAXPBU_s_ESTypeList@@@Z 1004cf38     libvcruntime:frame.obj
 0001:0004bf4c       __ehfuncinfo$?CallUnexpected@@YAXPBU_s_ESTypeList@@@Z 1004cf4c     libvcruntime:frame.obj
 0001:0004bf70       __sehtable$??$BuildCatchObjectHelperInternal@V__FrameHandler3@@@@YAHPAUEHExceptionRecord@@PAXPBU_s_HandlerType@@PBU_s_CatchableType@@@Z 1004cf70     libvcruntime:frame.obj
 0001:0004bf90       __sehtable$??$BuildCatchObjectInternal@V__FrameHandler3@@@@YAXPAUEHExceptionRecord@@PAXPBU_s_HandlerType@@PBU_s_CatchableType@@@Z 1004cf90     libvcruntime:frame.obj
 0001:0004bfe8       __sehtable$_terminate      1004cfe8     libucrt:terminate.obj
 0001:0004c008       __sehtable$___acrt_lowio_ensure_fh_exists 1004d008     libucrt:osfinfo.obj
 0001:0004c028       __sehtable$??$?RV<lambda_646e26742ed01d5bc03234f44bb6d3d3>@@AAV<lambda_b37934c380d97b75fd242ea49540127a>@@V<lambda_bbd9d45274666fbb50f81a29ad795c13>@@@?$__crt_seh_guarded_call@PAD@@QAEPAD$$QAV<lambda_646e26742ed01d5bc03234f44bb6d3d3>@@AAV<lambda_b37934c380d97b75fd242ea49540127a>@@$$QAV<lambda_bbd9d45274666fbb50f81a29ad795c13>@@@Z 1004d028     libucrt:setlocale.obj
 0001:0004c048       __sehtable$??R<lambda_6e4b09c48022b2350581041d5f6b0c4c>@@QBE@XZ 1004d048     libucrt:exit.obj
 0001:0004c068       __sehtable$??$?RV<lambda_03b1d95aef87969028cfba75ccab2455>@@AAV<lambda_6e4b09c48022b2350581041d5f6b0c4c>@@V<lambda_22bdf7517842c4b3e53723af5aa32b9e>@@@?$__crt_seh_guarded_call@X@@QAEX$$QAV<lambda_03b1d95aef87969028cfba75ccab2455>@@AAV<lambda_6e4b09c48022b2350581041d5f6b0c4c>@@$$QAV<lambda_22bdf7517842c4b3e53723af5aa32b9e>@@@Z 1004d068     libucrt:exit.obj
 0001:0004c088       __sehtable$??$?RV<lambda_8e746cf0007f6ed984d6f78af1fec997>@@AAV<lambda_22ebabd17bc4fa466a2aca6d8deb888d>@@V<lambda_18ed0c0b38a6dc0daf1e7ac6d6adf05e>@@@?$__crt_seh_guarded_call@H@@QAEH$$QAV<lambda_8e746cf0007f6ed984d6f78af1fec997>@@AAV<lambda_22ebabd17bc4fa466a2aca6d8deb888d>@@$$QAV<lambda_18ed0c0b38a6dc0daf1e7ac6d6adf05e>@@@Z 1004d088     libucrt:onexit.obj
 0001:0004c0a8       __sehtable$??$?RV<lambda_69a2805e680e0e292e8ba93315fe43a8>@@AAV<lambda_f03950bc5685219e0bcd2087efbe011e>@@V<lambda_03fcd07e894ec930e3f35da366ca99d6>@@@?$__crt_seh_guarded_call@H@@QAEH$$QAV<lambda_69a2805e680e0e292e8ba93315fe43a8>@@AAV<lambda_f03950bc5685219e0bcd2087efbe011e>@@$$QAV<lambda_03fcd07e894ec930e3f35da366ca99d6>@@@Z 1004d0a8     libucrt:onexit.obj
 0001:0004c0c8       __sehtable$__query_new_handler 1004d0c8     libucrt:new_handler.obj
 0001:0004c0e8       __sehtable$??$?RV<lambda_15ade71b0218206bbe3333a0c9b79046>@@AAV<lambda_da44e0f8b0f19ba52fefafb335991732>@@V<lambda_207f2d024fc103971653565357d6cd41>@@@?$__crt_seh_guarded_call@X@@QAEX$$QAV<lambda_15ade71b0218206bbe3333a0c9b79046>@@AAV<lambda_da44e0f8b0f19ba52fefafb335991732>@@$$QAV<lambda_207f2d024fc103971653565357d6cd41>@@@Z 1004d0e8     libucrt:per_thread_data.obj
 0001:0004c108       __sehtable$??$?RV<lambda_a7e850c220f1c8d1e6efeecdedd162c6>@@AAV<lambda_46720907175c18b6c9d2717bc0d2d362>@@V<lambda_9048902d66e8d99359bc9897bbb930a8>@@@?$__crt_seh_guarded_call@X@@QAEX$$QAV<lambda_a7e850c220f1c8d1e6efeecdedd162c6>@@AAV<lambda_46720907175c18b6c9d2717bc0d2d362>@@$$QAV<lambda_9048902d66e8d99359bc9897bbb930a8>@@@Z 1004d108     libucrt:per_thread_data.obj
 0001:0004c128       __sehtable$??$?RV<lambda_38edbb1296d33220d7e4dd0ed76b244a>@@AAV<lambda_5ce1d447e08cb34b2473517608e21441>@@V<lambda_fb385d3da700c9147fc39e65dd577a8c>@@@?$__crt_seh_guarded_call@X@@QAEX$$QAV<lambda_38edbb1296d33220d7e4dd0ed76b244a>@@AAV<lambda_5ce1d447e08cb34b2473517608e21441>@@$$QAV<lambda_fb385d3da700c9147fc39e65dd577a8c>@@@Z 1004d128     libucrt:per_thread_data.obj
 0001:0004c148       __sehtable$??$?RV<lambda_6affb1475c98b40b75cdec977db92e3c>@@AAV<lambda_b8d4b9c228a6ecc3f80208dbb4b4a104>@@V<lambda_608742c3c92a14382c1684fc64f96c88>@@@?$__crt_seh_guarded_call@X@@QAEX$$QAV<lambda_6affb1475c98b40b75cdec977db92e3c>@@AAV<lambda_b8d4b9c228a6ecc3f80208dbb4b4a104>@@$$QAV<lambda_608742c3c92a14382c1684fc64f96c88>@@@Z 1004d148     libucrt:per_thread_data.obj
 0001:0004c168       __sehtable$??$?RV<lambda_6b4b7855443974f2b4b77000ea21c99c>@@AAV<lambda_8f7d3b162ab39427f4fa9995c67a7986>@@V<lambda_cc9a5ba8a5d8428b9634eab82665e5dc>@@@?$__crt_seh_guarded_call@H@@QAEH$$QAV<lambda_6b4b7855443974f2b4b77000ea21c99c>@@AAV<lambda_8f7d3b162ab39427f4fa9995c67a7986>@@$$QAV<lambda_cc9a5ba8a5d8428b9634eab82665e5dc>@@@Z 1004d168     libucrt:winapi_thunks.obj
 0001:0004c188       __sehtable$__fcloseall     1004d188     libucrt:closeall.obj
 0001:0004c1a8       __sehtable$??$?RV<lambda_2866be3712abc81a800a822484c830d8>@@AAV<lambda_39ca0ed439415581b5b15c265174cece>@@V<lambda_2b24c74d71094a6cd0cb82e44167d71b>@@@?$__crt_seh_guarded_call@X@@QAEX$$QAV<lambda_2866be3712abc81a800a822484c830d8>@@AAV<lambda_39ca0ed439415581b5b15c265174cece>@@$$QAV<lambda_2b24c74d71094a6cd0cb82e44167d71b>@@@Z 1004d1a8     libucrt:fflush.obj
 0001:0004c1c8       __sehtable$??$?RV<lambda_2cc53f568c5a2bb6f192f930a45d44ea>@@AAV<lambda_ab61a845afdef5b7c387490eaf3616ee>@@V<lambda_c2ffc0b7726aa6be21d5f0026187e748>@@@?$__crt_seh_guarded_call@X@@QAEX$$QAV<lambda_2cc53f568c5a2bb6f192f930a45d44ea>@@AAV<lambda_ab61a845afdef5b7c387490eaf3616ee>@@$$QAV<lambda_c2ffc0b7726aa6be21d5f0026187e748>@@@Z 1004d1c8     libucrt:fflush.obj
 0001:0004c1e8       __sehtable$___acrt_initialize_lowio 1004d1e8     libucrt:ioinit.obj
 0001:0004c208       __sehtable$__write         1004d208     libucrt:write.obj
 0001:0004c228       __sehtable$??$?RV<lambda_e5124f882df8998aaf41531e079ba474>@@AAV<lambda_3e16ef9562a7dcce91392c22ab16ea36>@@V<lambda_e25ca0880e6ef98be67edffd8c599615>@@@?$__crt_seh_guarded_call@X@@QAEX$$QAV<lambda_e5124f882df8998aaf41531e079ba474>@@AAV<lambda_3e16ef9562a7dcce91392c22ab16ea36>@@$$QAV<lambda_e25ca0880e6ef98be67edffd8c599615>@@@Z 1004d228     libucrt:wsetlocale.obj
 0001:0004c248       __sehtable$??$?RV<lambda_4fdada1b837b2abbf20876fac97688ad>@@AAV<lambda_b57350f2640456a0859d250846f69caf>@@V<lambda_eed5e4f92b5b7d55fa22c48c484aaa54>@@@?$__crt_seh_guarded_call@X@@QAEX$$QAV<lambda_4fdada1b837b2abbf20876fac97688ad>@@AAV<lambda_b57350f2640456a0859d250846f69caf>@@$$QAV<lambda_eed5e4f92b5b7d55fa22c48c484aaa54>@@@Z 1004d248     libucrt:wsetlocale.obj
 0001:0004c268       __sehtable$??$?RV<lambda_135d2772fca65dc1248eeaa1b56e886a>@@AAV<lambda_2a444430fde8c29194d880d93eed5e8f>@@AAV<lambda_8dff2cf36a5417162780cd64fa2883ef>@@@?$__crt_seh_guarded_call@X@@QAEX$$QAV<lambda_135d2772fca65dc1248eeaa1b56e886a>@@AAV<lambda_2a444430fde8c29194d880d93eed5e8f>@@AAV<lambda_8dff2cf36a5417162780cd64fa2883ef>@@@Z 1004d268     libucrt:wsetlocale.obj
 0001:0004c284       __unwindtable$?_wcstombs_l_helper@@YAIPADPB_WIPAU__crt_locale_pointers@@@Z 1004d284     libucrt:wcstombs.obj
 0001:0004c28c       __ehfuncinfo$?_wcstombs_l_helper@@YAIPADPB_WIPAU__crt_locale_pointers@@@Z 1004d28c     libucrt:wcstombs.obj
 0001:0004c2b0       __sehtable$_raise          1004d2b0     libucrt:signal.obj
 0001:0004c2d0       __sehtable$??$?RV<lambda_cbab9ec6f41b0180b23cc171c22676b0>@@AAV<lambda_44731a7d0e6d81c3e6aa82d741081786>@@V<lambda_4b292cb8dd18144e164572427af410ab>@@@?$__crt_seh_guarded_call@P6AXH@Z@@QAEP6AXH@Z$$QAV<lambda_cbab9ec6f41b0180b23cc171c22676b0>@@AAV<lambda_44731a7d0e6d81c3e6aa82d741081786>@@$$QAV<lambda_4b292cb8dd18144e164572427af410ab>@@@Z 1004d2d0     libucrt:signal.obj
 0001:0004c2f0       __sehtable$?update_thread_multibyte_data_internal@@YAPAU__crt_multibyte_data@@QAU__acrt_ptd@@QAPAU1@@Z 1004d2f0     libucrt:mbctype.obj
 0001:0004c310       __sehtable$??$?RV<lambda_ceb1ee4838e85a9d631eb091e2fbe199>@@AAV<lambda_ae742caa10f662c28703da3d2ea5e57e>@@V<lambda_cd08b5d6af4937fe54fc07d0c9bf6b37>@@@?$__crt_seh_guarded_call@X@@QAEX$$QAV<lambda_ceb1ee4838e85a9d631eb091e2fbe199>@@AAV<lambda_ae742caa10f662c28703da3d2ea5e57e>@@$$QAV<lambda_cd08b5d6af4937fe54fc07d0c9bf6b37>@@@Z 1004d310     libucrt:mbctype.obj
 0001:0004c330       __sehtable$___acrt_update_thread_locale_data 1004d330     libucrt:locale_refcounting.obj
 0001:0004c350       __sehtable$_fclose         1004d350     libucrt:fclose.obj
 0001:0004c370       __sehtable$??$?RV<lambda_9e9de3de5fa147e2223d7db92bc10aa6>@@AAV<lambda_38ce7e780aa69e748d6df282ebc68efe>@@V<lambda_8ca6da459f0f6780f1cff60fdc3d00e5>@@@?$__crt_seh_guarded_call@H@@QAEH$$QAV<lambda_9e9de3de5fa147e2223d7db92bc10aa6>@@AAV<lambda_38ce7e780aa69e748d6df282ebc68efe>@@$$QAV<lambda_8ca6da459f0f6780f1cff60fdc3d00e5>@@@Z 1004d370     libucrt:commit.obj
 0001:0004c390       __sehtable$??$?RV<lambda_218ce3db14220d0be481dae8ef3383b6>@@AAV<lambda_628dfdc04ba53c8bfc02c9951375f3f5>@@V<lambda_57dc472bd5c9d5f3b2cbca59b8a843ae>@@@?$__crt_seh_guarded_call@H@@QAEH$$QAV<lambda_218ce3db14220d0be481dae8ef3383b6>@@AAV<lambda_628dfdc04ba53c8bfc02c9951375f3f5>@@$$QAV<lambda_57dc472bd5c9d5f3b2cbca59b8a843ae>@@@Z 1004d390     libucrt:close.obj
 0001:0004c3b0       __sehtable$__IsNonwritableInCurrentImage 1004d3b0     LIBCMT:pesect.obj
 0001:0004c3d0       .edata                     1004d3d0     ProcList.exp
 0001:0004c3f8       rgpv                       1004d3f8     ProcList.exp
 0001:0004c430       rgszName                   1004d430     ProcList.exp
 0001:0004c468       rgwOrd                     1004d468     ProcList.exp
 0001:0004c484       szName                     1004d484     ProcList.exp
 0001:0004c491       $N00001                    1004d491     ProcList.exp
 0001:0004c49d       $N00002                    1004d49d     ProcList.exp
 0001:0004c4a6       $N00003                    1004d4a6     ProcList.exp
 0001:0004c4b1       $N00004                    1004d4b1     ProcList.exp
 0001:0004c4be       $N00005                    1004d4be     ProcList.exp
 0001:0004c4cc       $N00006                    1004d4cc     ProcList.exp
 0001:0004c4d6       $N00007                    1004d4d6     ProcList.exp
 0001:0004c4e3       $N00008                    1004d4e3     ProcList.exp
 0001:0004c4f2       $N00009                    1004d4f2     ProcList.exp
 0001:0004c504       $N00010                    1004d504     ProcList.exp
 0001:0004c513       $N00011                    1004d513     ProcList.exp
 0001:0004c519       $N00012                    1004d519     ProcList.exp
 0001:0004c52c       $N00013                    1004d52c     ProcList.exp
 0001:0004c53f       $N00014                    1004d53f     ProcList.exp
 0002:00000178       ?FKeys@?1??GetOpenPanelInfo@Plist@@QAEXPAUOpenPanelInfo@@@Z@4PAGA 1004e178     Pclass.obj
 0002:000001bc       ?nr@?7??Connect@Plist@@QAE_NPB_W00@Z@4U_NETRESOURCEW@@A 1004e1bc     Pclass.obj
 0002:00000220       ?init@std@@3JA             1004e220     libcpmt:xlock.obj
 0002:00000224       ?atcount_cdecl@@3IA        1004e224     libcpmt:iosptrs.obj
 0002:00000260       ?__vcrt_flsindex@@3KA      1004e260     libvcruntime:per_thread_data.obj
 0002:00000280       ?errno_no_memory@@3HA      1004e280     libucrt:errno.obj
 0002:00000284       ?doserrno_no_memory@@3KA   1004e284     libucrt:errno.obj
 0002:000003b0       ?__acrt_flsindex@@3KA      1004e3b0     libucrt:per_thread_data.obj
 0002:000003b4       __ctype_loc_style          1004e3b4     libucrt:wsetlocale.obj
 0002:00000480       _newcw                     1004e480     libucrt:modf.obj
 0002:00000498       ?tzstd_program@@3PADA      1004e498     libucrt:timeset.obj
 0002:000004d8       ?tzdst_program@@3PADA      1004e4d8     libucrt:timeset.obj
 0002:00000518       ?tzname_states@@3PAY01PADA 1004e518     libucrt:timeset.obj
 0002:00000740       __mbctypes                 1004e740     libucrt:mbctype.obj
 0002:00000848       __mbcasemaps               1004e848     libucrt:mbctype.obj
 0002:00000948       ?__rgctypeflag@@3PADA      1004e948     libucrt:mbctype.obj
 0002:00000950       ?__rgcode_page_info@@3PAUcode_page_info@@A 1004e950     libucrt:mbctype.obj
 0002:00000b40       ?__dcrt_lowio_console_output_handle@@3PAXA 1004eb40     libucrt:initcon.obj
 0002:00000c64       ??_R0?AV<lambda_2188c710c02002b0eab1052a0acb7023>@@@8 1004ec64     Plist.obj
 0002:00000c9c       ??_R0?AV<lambda_d3397212bd5e450c6dbd36f327bf5553>@@@8 1004ec9c     wmi.obj
 0002:00000cd4       ??_R0?AV<lambda_8364a2c8b43a2a1256754ccc435293aa>@@@8 1004ecd4     wmi.obj
 0002:00000e9c       ?UserAccountID@?1??GetUserAccountID@@YA@XZ@4V?$basic_string@_WU?$char_traits@_W@std@@V?$allocator@_W@2@@std@@B 1004ee9c     handles.obj
 0002:00000eb4       ?$S1@?1??GetUserAccountID@@YA@XZ@4IA 1004eeb4     handles.obj
 0002:00000f18       ?TitlesLocal@?1??PanelModes@Plist@@QAEPAUPanelMode@@AAI@Z@4V?$array@V?$array@PA_W$0BI@@std@@$09@std@@A 1004ef18     Pclass.obj
 0002:000012d8       ?TitlesRemote@?1??PanelModes@Plist@@QAEPAUPanelMode@@AAI@Z@4V?$array@V?$array@PA_W$0BI@@std@@$09@std@@A 1004f2d8     Pclass.obj
 0002:00001698       ?PanelModesLocal@?1??PanelModes@Plist@@QAEPAUPanelMode@@AAI@Z@4V?$array@UPanelMode@@$09@std@@A 1004f698     Pclass.obj
 0002:000017d8       ?PanelModesRemote@?1??PanelModes@Plist@@QAEPAUPanelMode@@AAI@Z@4V?$array@UPanelMode@@$09@std@@A 1004f7d8     Pclass.obj
 0002:00001918       ?ArraysInited@?2??PanelModes@Plist@@QAEPAUPanelMode@@AAI@Z@4_NA 1004f918     Pclass.obj
 0002:0000191c       ?Title@?1??GetOpenPanelInfo@Plist@@QAEXPAUOpenPanelInfo@@@Z@4V?$basic_string@_WU?$char_traits@_W@std@@V?$allocator@_W@2@@std@@A 1004f91c     Pclass.obj
 0002:00001934       ?$S1@?1??GetOpenPanelInfo@Plist@@QAEXPAUOpenPanelInfo@@@Z@4IA 1004f934     Pclass.obj
 0002:00001938       ?kbl@?1??GetOpenPanelInfo@Plist@@QAEXPAUOpenPanelInfo@@@Z@4PAUKeyBarLabel@@A 1004f938     Pclass.obj
 0002:000019e8       ?kbt@?1??GetOpenPanelInfo@Plist@@QAEXPAUOpenPanelInfo@@@Z@4UKeyBarTitles@@A 1004f9e8     Pclass.obj
 0002:000019f0       ?$S2@?1??GetOpenPanelInfo@Plist@@QAEXPAUOpenPanelInfo@@@Z@4IA 1004f9f0     Pclass.obj
 0002:000019f8       ?Styles@?1??window_style@@YA@PAUHWND__@@@Z@4QBU?$pair@HPB_W@std@@B 1004f9f8     Pclass.obj
 0002:00001a78       ?$S3@?1??window_style@@YA@PAUHWND__@@@Z@4IA 1004fa78     Pclass.obj
 0002:00001a80       ?ExtStyles@?1??window_ex_style@@YA@PAUHWND__@@@Z@4QBU?$pair@HPB_W@std@@B 1004fa80     Pclass.obj
 0002:00001b20       ?$S5@?1??window_ex_style@@YA@PAUHWND__@@@Z@4IA 1004fb20     Pclass.obj
 0002:00001b24       ?IsWow64@?1??Is64BitWindows@@YA_NXZ@4_NB 1004fb24     perfthread.obj
 0002:00001b28       ?$S1@?1??Is64BitWindows@@YA_NXZ@4IA 1004fb28     perfthread.obj
 0002:00001b2c       ?IsWow64@?1??is_wow64_itself@@YA_NXZ@4_NB 1004fb2c     Plist.obj
 0002:00001b30       ?$S1@?1??is_wow64_itself@@YA_NXZ@4IA 1004fb30     Plist.obj
 0002:00001b34       ?hDebugToken@@3V?$unique_ptr@XUhandle_closer@@@std@@A 1004fb34     Plist.obj
 0002:00001cac       ?Inited@?1??dynamic_bind@@YAXXZ@4_NA 1004fcac     Proclist.obj
 0002:00001cb0       ?PluginMenuStrings@?4??GetPluginInfoW@@9@4@4PAPB_WA 1004fcb0     Proclist.obj
 0002:00001cb4       ?DiskMenuStrings@?7??GetPluginInfoW@@9@4@4PAPB_WA 1004fcb4     Proclist.obj
 0002:00001cb8       ?PluginCfgStrings@?1??GetPluginInfoW@@9@4@4PAPB_WA 1004fcb8     Proclist.obj
 0002:00001cc0       ?Cookie@?1??XorPointer@@YAPAXPAX@Z@4IB 1004fcc0     vc_crt_fix_impl.obj
 0002:00001cc4       ?$S1@?1??XorPointer@@YAPAXPAX@Z@4IA 1004fcc4     vc_crt_fix_impl.obj
 0002:00001cc8       ?Function@?1??EncodePointerWrapper@@9@4@4Q6GPAXPAX@ZA 1004fcc8     vc_crt_fix_impl.obj
 0002:00001ccc       ?$S2@?1??EncodePointerWrapper@@9@4@4IA 1004fccc     vc_crt_fix_impl.obj
 0002:00001cd0       ?Function@?1??DecodePointerWrapper@@9@4@4Q6GPAXPAX@ZA 1004fcd0     vc_crt_fix_impl.obj
 0002:00001cd4       ?$S3@?1??DecodePointerWrapper@@9@4@4IA 1004fcd4     vc_crt_fix_impl.obj
 0002:00001cd8       ?Function@?1??GetModuleHandleExWWrapper@@9@12@4Q6GHKPB_WPAPAUHINSTANCE__@@@ZA 1004fcd8     vc_crt_fix_impl.obj
 0002:00001cdc       ?$S4@?1??GetModuleHandleExWWrapper@@9@12@4IA 1004fcdc     vc_crt_fix_impl.obj
 0002:00001ce0       ?Deleter@?1??InitializeSListHead@implementation@slist@@YGXPAT_SLIST_HEADER@@@Z@4Vservice_deleter@23@A 1004fce0     vc_crt_fix_impl.obj
 0002:00001d00       ?$S5@?1??InitializeSListHead@implementation@slist@@YGXPAT_SLIST_HEADER@@@Z@4IA 1004fd00     vc_crt_fix_impl.obj
 0002:00001d04       ?Function@?1??InitializeSListHeadWrapper@@9@4@4Q6GXPAT_SLIST_HEADER@@@ZA 1004fd04     vc_crt_fix_impl.obj
 0002:00001d08       ?$S6@?1??InitializeSListHeadWrapper@@9@4@4IA 1004fd08     vc_crt_fix_impl.obj
 0002:00001d0c       ?Function@?1??InterlockedFlushSListWrapper@@9@4@4Q6GPAU_SINGLE_LIST_ENTRY@@PAT_SLIST_HEADER@@@ZA 1004fd0c     vc_crt_fix_impl.obj
 0002:00001d10       ?$S7@?1??InterlockedFlushSListWrapper@@9@4@4IA 1004fd10     vc_crt_fix_impl.obj
 0002:00001d14       ?Function@?1??InterlockedPopEntrySListWrapper@@9@4@4Q6GPAU_SINGLE_LIST_ENTRY@@PAT_SLIST_HEADER@@@ZA 1004fd14     vc_crt_fix_impl.obj
 0002:00001d18       ?$S8@?1??InterlockedPopEntrySListWrapper@@9@4@4IA 1004fd18     vc_crt_fix_impl.obj
 0002:00001d1c       ?Function@?1??InterlockedPushEntrySListWrapper@@9@8@4Q6GPAU_SINGLE_LIST_ENTRY@@PAT_SLIST_HEADER@@PAU2@@ZA 1004fd1c     vc_crt_fix_impl.obj
 0002:00001d20       ?$S9@?1??InterlockedPushEntrySListWrapper@@9@8@4IA 1004fd20     vc_crt_fix_impl.obj
 0002:00001d24       ?Function@?1??InterlockedPushListSListExWrapper@@9@16@4Q6GPAU_SINGLE_LIST_ENTRY@@PAT_SLIST_HEADER@@PAU2@1K@ZA 1004fd24     vc_crt_fix_impl.obj
 0002:00001d28       ?$S10@?1??InterlockedPushListSListExWrapper@@9@16@4IA 1004fd28     vc_crt_fix_impl.obj
 0002:00001d2c       ?Function@?1??RtlFirstEntrySListWrapper@@9@4@4Q6GPAU_SINGLE_LIST_ENTRY@@PAT_SLIST_HEADER@@@ZA 1004fd2c     vc_crt_fix_impl.obj
 0002:00001d30       ?$S11@?1??RtlFirstEntrySListWrapper@@9@4@4IA 1004fd30     vc_crt_fix_impl.obj
 0002:00001d34       ?Function@?1??QueryDepthSListWrapper@@9@4@4Q6GGPAT_SLIST_HEADER@@@ZA 1004fd34     vc_crt_fix_impl.obj
 0002:00001d38       ?$S12@?1??QueryDepthSListWrapper@@9@4@4IA 1004fd38     vc_crt_fix_impl.obj
 0002:00001d3c       ?Function@?1??GetNumaHighestNodeNumberWrapper@@9@4@4Q6GHPAK@ZA 1004fd3c     vc_crt_fix_impl.obj
 0002:00001d40       ?$S13@?1??GetNumaHighestNodeNumberWrapper@@9@4@4IA 1004fd40     vc_crt_fix_impl.obj
 0002:00001d44       ?Function@?1??GetLogicalProcessorInformationWrapper@@9@8@4Q6GHPAU_SYSTEM_LOGICAL_PROCESSOR_INFORMATION@@PAK@ZA 1004fd44     vc_crt_fix_impl.obj
 0002:00001d48       ?$S14@?1??GetLogicalProcessorInformationWrapper@@9@8@4IA 1004fd48     vc_crt_fix_impl.obj
 0002:00001d4c       ?Function@?1??SetThreadStackGuaranteeWrapper@@9@4@4Q6GHPAK@ZA 1004fd4c     vc_crt_fix_impl.obj
 0002:00001d50       ?$S15@?1??SetThreadStackGuaranteeWrapper@@9@4@4IA 1004fd50     vc_crt_fix_impl.obj
 0002:00001d54       ?Function@?1??InitializeCriticalSectionExWrapper@@9@12@4Q6GHPAU_RTL_CRITICAL_SECTION@@KK@ZA 1004fd54     vc_crt_fix_impl.obj
 0002:00001d58       ?$S16@?1??InitializeCriticalSectionExWrapper@@9@12@4IA 1004fd58     vc_crt_fix_impl.obj
 0002:00001d5c       ?Function@?1??CompareStringExWrapper@@9@36@4Q6GHPB_WK0H0HPAU_nlsversioninfo@@PAXJ@ZA 1004fd5c     vc_crt_fix_impl.obj
 0002:00001d60       ?$S17@?1??CompareStringExWrapper@@9@36@4IA 1004fd60     vc_crt_fix_impl.obj
 0002:00001d64       ?Function@?1??LCMapStringExWrapper@@9@36@4Q6GHPB_WK0HPA_WHPAU_nlsversioninfo@@PAXJ@ZA 1004fd64     vc_crt_fix_impl.obj
 0002:00001d68       ?$S18@?1??LCMapStringExWrapper@@9@36@4IA 1004fd68     vc_crt_fix_impl.obj
 0002:00001d70       ?initlocks@std@@3V_Init_locks@1@A 1004fd70     libcpmt:xlock.obj
 0002:00001d78       ?mtx@std@@3PAU_RTL_CRITICAL_SECTION@@A 1004fd78     libcpmt:xlock.obj
 0002:00001e54       ?classic_locale@std@@3Vlocale@1@A 1004fe54     libcpmt:locale0.obj
 0002:00001e5c       ?_Fac_tidy_reg@std@@3U_Fac_tidy_reg_t@1@B 1004fe5c     libcpmt:locale0.obj
 0002:00001e60       ?_Fac_head@std@@3PAU_Fac_node@1@A 1004fe60     libcpmt:locale0.obj
 0002:00001e64       _global_locale             1004fe64     libcpmt:locale0.obj
 0002:00001e68       ?registered@?1??_Setgloballocale@locale@std@@CAXPAX@Z@4_NA 1004fe68     libcpmt:locale0.obj
 0002:00001e98       ?initlocks@std@@3V_Init_locks@1@A 1004fe98     libcpmt:iosptrs.obj
 0002:00001e99       ?init_atexit@@3U_Init_atexit@@A 1004fe99     libcpmt:iosptrs.obj
 0002:00001e9c       ?atfuns_cdecl@@3PAP6AXXZA  1004fe9c     libcpmt:iosptrs.obj
 0002:00001fe4       ?is_initialized_as_dll@@3_NA 1004ffe4     LIBCMT:utility.obj
 0002:00001fe5       ?module_local_atexit_table_initialized@@3_NA 1004ffe5     LIBCMT:utility.obj
 0002:00001fe8       ?module_local_atexit_table@@3U_onexit_table_t@@A 1004ffe8     LIBCMT:utility.obj
 0002:00001ff4       ?module_local_at_quick_exit_table@@3U_onexit_table_t@@A 1004fff4     LIBCMT:utility.obj
 0002:00002000       ?__proc_attached@@3HA      10050000     LIBCMT:dll_dllmain.obj
 0002:00002020       _GS_ExceptionRecord        10050020     LIBCMT:gs_report.obj
 0002:00002070       _GS_ContextRecord          10050070     LIBCMT:gs_report.obj
 0002:00002344       ?__vcrt_startup_thread_ptd@@3U__vcrt_ptd@@A 10050344     libvcruntime:per_thread_data.obj
 0002:0000236c       ___vcrt_lock_table         1005036c     libvcruntime:locks.obj
 0002:00002384       ___vcrt_locks_initialized  10050384     libvcruntime:locks.obj
 0002:000023b0       ?heap@@3V_HeapManager@@A   100503b0     libvcruntime:undname.obj
 0002:000023c4       ?module_handles@@3PAPAUHINSTANCE__@@A 100503c4     libvcruntime:winapi_downlevel.obj
 0002:000023d0       ?function_pointers@@3PAPAXA 100503d0     libvcruntime:winapi_downlevel.obj
 0002:000023e4       ?__acrt_invalid_parameter_handler@@3V?$dual_state_global@P6AXPB_W00II@Z@__crt_state_management@@A 100503e4     libucrt:invalid_parameter.obj
 0002:000023f8       ?__acrt_lock_table@@3PAU_RTL_CRITICAL_SECTION@@A 100503f8     libucrt:locks.obj
 0002:00002548       ?__acrt_locks_initialized@@3IA 10050548     libucrt:locks.obj
 0002:0000254c       ?c_termination_complete@@3JA 1005054c     libucrt:exit.obj
 0002:00002550       ?thread_local_exit_callback_func@@3P6GXPAXK0@ZA 10050550     libucrt:exit.obj
 0002:00002558       ?program_name@?1???$common_configure_argv@D@@YAHW4_crt_argv_mode@@@Z@4PADA 10050558     libucrt:argv_parsing.obj
 0002:00002688       ?__acrt_new_handler@@3V?$dual_state_global@P6AHI@Z@__crt_state_management@@A 10050688     libucrt:new_handler.obj
 0002:00002690       ?module_handles@@3PAPAUHINSTANCE__@@A 10050690     libucrt:winapi_thunks.obj
 0002:000026e0       ?encoded_function_pointers@@3PAPAXA 100506e0     libucrt:winapi_thunks.obj
 0002:00002768       ?static_enum_proc@?1??enum_system_locales_ex_nolock@@YAHQ6GHPA_WKJ@Z@Z@4P6GH0KJ@ZA 10050768     libucrt:winapi_thunks.obj
 0002:0000297c       ?internal_state@?1??_mbtowc_l@@9@4U_Mbstatet@@A 1005097c     libucrt:mbtowc.obj
 0002:00002984       ?enable_percent_n@@3IA     10050984     libucrt:printf_count_output.obj
 0002:00002990       ?__acrt_app_type@@3W4_crt_app_type@@A 10050990     libucrt:report_runtime_error.obj
 0002:00002994       __pmatherr_set             10050994     libucrt:libm_error.obj
 0002:0000299c       ?ctrlc_action@@3V?$dual_state_global@P6AXH@Z@__crt_state_management@@A 1005099c     libucrt:signal.obj
 0002:000029a0       ?ctrlbreak_action@@3V?$dual_state_global@P6AXH@Z@__crt_state_management@@A 100509a0     libucrt:signal.obj
 0002:000029a4       ?abort_action@@3V?$dual_state_global@P6AXH@Z@__crt_state_management@@A 100509a4     libucrt:signal.obj
 0002:000029a8       ?term_action@@3V?$dual_state_global@P6AXH@Z@__crt_state_management@@A 100509a8     libucrt:signal.obj
 0002:000029b8       ?_tzname@@3V?$dual_state_global@PAPAD@__crt_state_management@@A 100509b8     libucrt:timeset.obj
 0002:000029c0       ?tz_api_used@@3HA          100509c0     libucrt:tzset.obj
 0002:000029c8       ?tz_info@@3U_TIME_ZONE_INFORMATION@@A 100509c8     libucrt:tzset.obj
 0002:00002a80       ?fSystemSet@@3HA           10050a80     libucrt:mbctype.obj
 0002:00002a84       ?initialized@?1??__acrt_initialize_multibyte@@9@4_NA 10050a84     libucrt:mbctype.obj
 0002:00002aa4       ?user_matherr@@3V?$dual_state_global@P6AHPAU_exception@@@Z@__crt_state_management@@A 10050aa4     libucrt:matherr.obj
 0002:00002aa8       ?__acrt_global_new_mode@@3V?$dual_state_global@J@__crt_state_management@@A 10050aa8     libucrt:new_mode.obj
 0002:00002aac       ?internal_pst@?1??__mbrtoc32_utf8@__crt_mbstring@@YAIPA_UPBDIPAU_Mbstatet@@@Z@4U3@A 10050aac     libucrt:mbrtoc32.obj
 0002:00002ab4       ?internal_pst@?1??__c16rtomb_utf8@__crt_mbstring@@YAIPAD_SPAU_Mbstatet@@@Z@4U3@A 10050ab4     libucrt:c16rtomb.obj
 0003:00000916       .idata$6                   10051916     kernel32:KERNEL32.dll
 0003:000009fa       .idata$6                   100519fa     user32:USER32.dll
 0003:00000afa       .idata$6                   10051afa     advapi32:ADVAPI32.dll
 0003:00000b3e       .idata$6                   10051b3e     ole32:ole32.dll
 0003:00000b78       .idata$6                   10051b78     mpr:MPR.dll
 0003:00000bc2       .idata$6                   10051bc2     version:VERSION.dll
 0003:00000bce       .idata$6                   10051bce     oleaut32:OLEAUT32.dll
 0003:00000c0c       .idata$6                   10051c0c     psapi:PSAPI.DLL
 0004:00000060       $R000000                   10052060     ProcList.res
